ARM GAS  /tmp/cc3Ha4nM.s 			page 1


   1              		.cpu cortex-m0
   2              		.eabi_attribute 20, 1
   3              		.eabi_attribute 21, 1
   4              		.eabi_attribute 23, 3
   5              		.eabi_attribute 24, 1
   6              		.eabi_attribute 25, 1
   7              		.eabi_attribute 26, 1
   8              		.eabi_attribute 30, 1
   9              		.eabi_attribute 34, 0
  10              		.eabi_attribute 18, 4
  11              		.file	"main.c"
  12              		.text
  13              	.Ltext0:
  14              		.cfi_sections	.debug_frame
  15              		.section	.text.MX_GPIO_Init,"ax",%progbits
  16              		.align	1
  17              		.arch armv6s-m
  18              		.syntax unified
  19              		.code	16
  20              		.thumb_func
  21              		.fpu softvfp
  23              	MX_GPIO_Init:
  24              	.LFB46:
  25              		.file 1 "Src/main.c"
   1:Src/main.c    **** 
   2:Src/main.c    **** /*
   3:Src/main.c    ****  * Otter-Iron  -  Stm32f072 based soldering iron.
   4:Src/main.c    ****  * Copyright (C) 2019 Jan Henrik Hemsing
   5:Src/main.c    ****  *
   6:Src/main.c    ****  * This program is free software: you can redistribute it and/or modify it
   7:Src/main.c    ****  * under the terms of the GNU General Public License as published by the Free
   8:Src/main.c    ****  * Software Foundation, either version 3 of the License, or (at your option)
   9:Src/main.c    ****  * any later version.
  10:Src/main.c    ****  *
  11:Src/main.c    ****  * This program is distributed in the hope that it will be useful, but WITHOUT
  12:Src/main.c    ****  * ANY WARRANTY; without even the implied warranty of  MERCHANTABILITY or
  13:Src/main.c    ****  * FITNESS FOR A PARTICULAR PURPOSE. See the GNU General Public License for
  14:Src/main.c    ****  * more details.
  15:Src/main.c    ****  *
  16:Src/main.c    ****  * You should have received a copy of the GNU General Public License along with
  17:Src/main.c    ****  * this program.  If not, see <http://www.gnu.org/licenses/>.
  18:Src/main.c    ****  */
  19:Src/main.c    **** 
  20:Src/main.c    **** #include "main.h"
  21:Src/main.c    **** 
  22:Src/main.c    **** ADC_HandleTypeDef hadc;
  23:Src/main.c    **** DMA_HandleTypeDef hdma_adc;
  24:Src/main.c    **** 
  25:Src/main.c    **** I2C_HandleTypeDef hi2c1;
  26:Src/main.c    **** I2C_HandleTypeDef hi2c2;
  27:Src/main.c    **** 
  28:Src/main.c    **** TIM_HandleTypeDef htim1;
  29:Src/main.c    **** 
  30:Src/main.c    **** PCD_HandleTypeDef hpcd_USB_FS;
  31:Src/main.c    **** 
  32:Src/main.c    **** void SystemClock_Config(void);
  33:Src/main.c    **** static void MX_GPIO_Init(void);
ARM GAS  /tmp/cc3Ha4nM.s 			page 2


  34:Src/main.c    **** static void MX_ADC_Init(void);
  35:Src/main.c    **** static void MX_DMA_Init(void);
  36:Src/main.c    **** static void MX_I2C1_Init(void);
  37:Src/main.c    **** static void MX_I2C2_Init(void);
  38:Src/main.c    **** static void MX_TIM1_Init(void);
  39:Src/main.c    **** static void MX_USB_PCD_Init(void);
  40:Src/main.c    **** 
  41:Src/main.c    **** void reg();
  42:Src/main.c    **** 
  43:Src/main.c    **** struct status_t{
  44:Src/main.c    ****   float ttip;
  45:Src/main.c    ****   float uin;
  46:Src/main.c    ****   float iin;
  47:Src/main.c    ****   float tref;
  48:Src/main.c    ****   uint8_t button[2];
  49:Src/main.c    **** }s;
  50:Src/main.c    **** 
  51:Src/main.c    **** struct tipcal_t{
  52:Src/main.c    ****   float offset;
  53:Src/main.c    ****   float coefficient;
  54:Src/main.c    **** } tipcal = {.offset = -55, .coefficient = 133};
  55:Src/main.c    **** 
  56:Src/main.c    **** static uint16_t ADC_raw[4];
  57:Src/main.c    **** uint8_t index;
  58:Src/main.c    **** 
  59:Src/main.c    **** int main(void)
  60:Src/main.c    **** {
  61:Src/main.c    **** 
  62:Src/main.c    ****   HAL_Init();
  63:Src/main.c    **** 
  64:Src/main.c    ****   SystemClock_Config();
  65:Src/main.c    **** 
  66:Src/main.c    ****   MX_GPIO_Init();
  67:Src/main.c    ****   MX_DMA_Init();
  68:Src/main.c    ****   MX_ADC_Init();
  69:Src/main.c    ****   MX_I2C1_Init();
  70:Src/main.c    ****   MX_I2C2_Init();
  71:Src/main.c    ****   MX_TIM1_Init();
  72:Src/main.c    ****   MX_USB_PCD_Init();
  73:Src/main.c    **** 
  74:Src/main.c    ****   //HAL_ADC_Start_DMA(&hadc);
  75:Src/main.c    **** 
  76:Src/main.c    ****   HAL_TIM_PWM_Start(&htim1, TIM_CHANNEL_1);
  77:Src/main.c    ****   HAL_TIM_OC_Start(&htim1, TIM_CHANNEL_4);
  78:Src/main.c    **** 
  79:Src/main.c    ****   HAL_ADC_Start_DMA(&hadc, (uint32_t *)ADC_raw, 4);
  80:Src/main.c    **** 
  81:Src/main.c    ****   while (1)
  82:Src/main.c    ****   {
  83:Src/main.c    ****     HAL_Delay(90);
  84:Src/main.c    ****     s.button[0] = HAL_GPIO_ReadPin(GPIOA,B1_Pin);
  85:Src/main.c    ****     s.button[1] = HAL_GPIO_ReadPin(GPIOA,B2_Pin);
  86:Src/main.c    ****     s.tref = ((((float)ADC_raw[3]/4095.0)*3.3)-0.5)/0.01;
  87:Src/main.c    ****     s.ttip = ((ADC_raw[1]-tipcal.offset)*tipcal.coefficient)/1000+s.tref;
  88:Src/main.c    ****     s.uin = ((ADC_raw[2]/4095.0)*3.3)*6.6;
  89:Src/main.c    ****     s.iin = ((ADC_raw[0]/4095.0)*3.3);
  90:Src/main.c    ****   }
ARM GAS  /tmp/cc3Ha4nM.s 			page 3


  91:Src/main.c    **** }
  92:Src/main.c    **** 
  93:Src/main.c    **** void reg(void) {
  94:Src/main.c    ****   index++;
  95:Src/main.c    **** }
  96:Src/main.c    **** 
  97:Src/main.c    **** /*
  98:Src/main.c    **** void HAL_TIM_PeriodElapsedCallback(TIM_HandleTypeDef *htim){
  99:Src/main.c    ****   HAL_ADC_Start_IT(&hadc);
 100:Src/main.c    **** }
 101:Src/main.c    **** 
 102:Src/main.c    **** void HAL_ADC_ConvCpltCallback(ADC_HandleTypeDef* hadc)
 103:Src/main.c    **** {
 104:Src/main.c    ****  if (__HAL_ADC_GET_FLAG(hadc, ADC_FLAG_EOC))
 105:Src/main.c    ****   {
 106:Src/main.c    ****     //HAL_Delay(10);
 107:Src/main.c    ****   __HAL_ADC_CLEAR_FLAG(hadc, ADC_FLAG_EOC);
 108:Src/main.c    ****   ADC_raw[index] = HAL_ADC_GetValue(hadc);
 109:Src/main.c    ****   index++;
 110:Src/main.c    ****   }
 111:Src/main.c    **** if (__HAL_ADC_GET_FLAG(hadc, ADC_FLAG_EOS))
 112:Src/main.c    ****  {
 113:Src/main.c    ****    __HAL_ADC_CLEAR_FLAG(hadc, ADC_FLAG_EOS);
 114:Src/main.c    ****    index = 0;
 115:Src/main.c    ****  }
 116:Src/main.c    **** }
 117:Src/main.c    **** */
 118:Src/main.c    **** 
 119:Src/main.c    **** 
 120:Src/main.c    **** void SystemClock_Config(void)
 121:Src/main.c    **** {
 122:Src/main.c    ****   RCC_OscInitTypeDef RCC_OscInitStruct = {0};
 123:Src/main.c    ****   RCC_ClkInitTypeDef RCC_ClkInitStruct = {0};
 124:Src/main.c    ****   RCC_PeriphCLKInitTypeDef PeriphClkInit = {0};
 125:Src/main.c    **** 
 126:Src/main.c    ****   RCC_OscInitStruct.OscillatorType = RCC_OSCILLATORTYPE_HSI|RCC_OSCILLATORTYPE_HSI14
 127:Src/main.c    ****                               |RCC_OSCILLATORTYPE_HSI48;
 128:Src/main.c    ****   RCC_OscInitStruct.HSIState = RCC_HSI_ON;
 129:Src/main.c    ****   RCC_OscInitStruct.HSI48State = RCC_HSI48_ON;
 130:Src/main.c    ****   RCC_OscInitStruct.HSI14State = RCC_HSI14_ON;
 131:Src/main.c    ****   RCC_OscInitStruct.HSICalibrationValue = RCC_HSICALIBRATION_DEFAULT;
 132:Src/main.c    ****   RCC_OscInitStruct.HSI14CalibrationValue = 16;
 133:Src/main.c    ****   RCC_OscInitStruct.PLL.PLLState = RCC_PLL_ON;
 134:Src/main.c    ****   RCC_OscInitStruct.PLL.PLLSource = RCC_PLLSOURCE_HSI48;
 135:Src/main.c    ****   RCC_OscInitStruct.PLL.PLLMUL = RCC_PLL_MUL2;
 136:Src/main.c    ****   RCC_OscInitStruct.PLL.PREDIV = RCC_PREDIV_DIV2;
 137:Src/main.c    ****   HAL_RCC_OscConfig(&RCC_OscInitStruct);
 138:Src/main.c    **** 
 139:Src/main.c    ****   RCC_ClkInitStruct.ClockType = RCC_CLOCKTYPE_HCLK|RCC_CLOCKTYPE_SYSCLK
 140:Src/main.c    ****                               |RCC_CLOCKTYPE_PCLK1;
 141:Src/main.c    ****   RCC_ClkInitStruct.SYSCLKSource = RCC_SYSCLKSOURCE_PLLCLK;
 142:Src/main.c    ****   RCC_ClkInitStruct.AHBCLKDivider = RCC_SYSCLK_DIV1;
 143:Src/main.c    ****   RCC_ClkInitStruct.APB1CLKDivider = RCC_HCLK_DIV1;
 144:Src/main.c    **** 
 145:Src/main.c    ****   HAL_RCC_ClockConfig(&RCC_ClkInitStruct, FLASH_LATENCY_1);
 146:Src/main.c    **** 
 147:Src/main.c    ****   PeriphClkInit.PeriphClockSelection = RCC_PERIPHCLK_USB|RCC_PERIPHCLK_I2C1;
ARM GAS  /tmp/cc3Ha4nM.s 			page 4


 148:Src/main.c    ****   PeriphClkInit.I2c1ClockSelection = RCC_I2C1CLKSOURCE_HSI;
 149:Src/main.c    ****   PeriphClkInit.UsbClockSelection = RCC_USBCLKSOURCE_HSI48;
 150:Src/main.c    **** 
 151:Src/main.c    ****   HAL_RCCEx_PeriphCLKConfig(&PeriphClkInit);
 152:Src/main.c    **** }
 153:Src/main.c    **** 
 154:Src/main.c    **** static void MX_ADC_Init(void)
 155:Src/main.c    **** {
 156:Src/main.c    ****   __HAL_RCC_DMA1_CLK_ENABLE();
 157:Src/main.c    ****   __HAL_RCC_ADC1_CLK_ENABLE();
 158:Src/main.c    **** 
 159:Src/main.c    ****   ADC_ChannelConfTypeDef sConfig = {0};
 160:Src/main.c    **** 
 161:Src/main.c    ****   hadc.Instance = ADC1;
 162:Src/main.c    ****   hadc.Init.ClockPrescaler = ADC_CLOCK_ASYNC_DIV1;
 163:Src/main.c    ****   hadc.Init.Resolution = ADC_RESOLUTION_12B;
 164:Src/main.c    ****   hadc.Init.DataAlign = ADC_DATAALIGN_RIGHT;
 165:Src/main.c    ****   hadc.Init.ScanConvMode = ADC_SCAN_DIRECTION_FORWARD;
 166:Src/main.c    ****   hadc.Init.EOCSelection = ADC_EOC_SEQ_CONV;
 167:Src/main.c    ****   hadc.Init.LowPowerAutoWait = DISABLE;
 168:Src/main.c    ****   hadc.Init.LowPowerAutoPowerOff = DISABLE;
 169:Src/main.c    ****   hadc.Init.ContinuousConvMode = DISABLE;
 170:Src/main.c    ****   hadc.Init.DiscontinuousConvMode = DISABLE;
 171:Src/main.c    ****   hadc.Init.ExternalTrigConv = ADC_EXTERNALTRIGCONV_T1_CC4;//ADC_EXTERNALTRIGCONV_T2_TRGO;
 172:Src/main.c    ****   hadc.Init.ExternalTrigConvEdge = ADC_EXTERNALTRIGCONVEDGE_RISING;
 173:Src/main.c    ****   hadc.Init.DMAContinuousRequests = ENABLE;
 174:Src/main.c    ****   hadc.Init.Overrun = ADC_OVR_DATA_PRESERVED;
 175:Src/main.c    ****   HAL_ADC_Init(&hadc);
 176:Src/main.c    **** 
 177:Src/main.c    ****   sConfig.Channel = ADC_CHANNEL_0;
 178:Src/main.c    ****   sConfig.Rank = ADC_RANK_CHANNEL_NUMBER;
 179:Src/main.c    ****   sConfig.SamplingTime = ADC_SAMPLETIME_13CYCLES_5;
 180:Src/main.c    ****   HAL_ADC_ConfigChannel(&hadc, &sConfig);
 181:Src/main.c    **** 
 182:Src/main.c    ****   sConfig.Channel = ADC_CHANNEL_1;
 183:Src/main.c    ****   HAL_ADC_ConfigChannel(&hadc, &sConfig);
 184:Src/main.c    **** 
 185:Src/main.c    ****   sConfig.Channel = ADC_CHANNEL_2;
 186:Src/main.c    ****   HAL_ADC_ConfigChannel(&hadc, &sConfig);
 187:Src/main.c    **** 
 188:Src/main.c    ****   sConfig.Channel = ADC_CHANNEL_5;
 189:Src/main.c    ****   HAL_ADC_ConfigChannel(&hadc, &sConfig);
 190:Src/main.c    **** 
 191:Src/main.c    ****   HAL_ADC_MspInit(&hadc);
 192:Src/main.c    **** }
 193:Src/main.c    **** 
 194:Src/main.c    **** static void MX_I2C1_Init(void)
 195:Src/main.c    **** {
 196:Src/main.c    **** 
 197:Src/main.c    ****   hi2c1.Instance = I2C1;
 198:Src/main.c    ****   hi2c1.Init.Timing = 0x2000090E;
 199:Src/main.c    ****   hi2c1.Init.OwnAddress1 = 0;
 200:Src/main.c    ****   hi2c1.Init.AddressingMode = I2C_ADDRESSINGMODE_7BIT;
 201:Src/main.c    ****   hi2c1.Init.DualAddressMode = I2C_DUALADDRESS_DISABLE;
 202:Src/main.c    ****   hi2c1.Init.OwnAddress2 = 0;
 203:Src/main.c    ****   hi2c1.Init.OwnAddress2Masks = I2C_OA2_NOMASK;
 204:Src/main.c    ****   hi2c1.Init.GeneralCallMode = I2C_GENERALCALL_DISABLE;
ARM GAS  /tmp/cc3Ha4nM.s 			page 5


 205:Src/main.c    ****   hi2c1.Init.NoStretchMode = I2C_NOSTRETCH_DISABLE;
 206:Src/main.c    ****   HAL_I2C_Init(&hi2c1);
 207:Src/main.c    **** 
 208:Src/main.c    ****   HAL_I2CEx_ConfigAnalogFilter(&hi2c1, I2C_ANALOGFILTER_ENABLE);
 209:Src/main.c    **** 
 210:Src/main.c    ****   HAL_I2CEx_ConfigDigitalFilter(&hi2c1, 0);
 211:Src/main.c    **** }
 212:Src/main.c    **** 
 213:Src/main.c    **** static void MX_I2C2_Init(void)
 214:Src/main.c    **** {
 215:Src/main.c    **** 
 216:Src/main.c    ****   hi2c2.Instance = I2C2;
 217:Src/main.c    ****   hi2c2.Init.Timing = 0x20303E5D;
 218:Src/main.c    ****   hi2c2.Init.OwnAddress1 = 0;
 219:Src/main.c    ****   hi2c2.Init.AddressingMode = I2C_ADDRESSINGMODE_7BIT;
 220:Src/main.c    ****   hi2c2.Init.DualAddressMode = I2C_DUALADDRESS_DISABLE;
 221:Src/main.c    ****   hi2c2.Init.OwnAddress2 = 0;
 222:Src/main.c    ****   hi2c2.Init.OwnAddress2Masks = I2C_OA2_NOMASK;
 223:Src/main.c    ****   hi2c2.Init.GeneralCallMode = I2C_GENERALCALL_DISABLE;
 224:Src/main.c    ****   hi2c2.Init.NoStretchMode = I2C_NOSTRETCH_DISABLE;
 225:Src/main.c    ****   HAL_I2C_Init(&hi2c2);
 226:Src/main.c    **** 
 227:Src/main.c    ****   HAL_I2CEx_ConfigAnalogFilter(&hi2c2, I2C_ANALOGFILTER_ENABLE);
 228:Src/main.c    **** 
 229:Src/main.c    ****   HAL_I2CEx_ConfigDigitalFilter(&hi2c2, 0);
 230:Src/main.c    **** }
 231:Src/main.c    **** 
 232:Src/main.c    **** static void MX_TIM1_Init(void)
 233:Src/main.c    **** {
 234:Src/main.c    **** 
 235:Src/main.c    ****   __HAL_RCC_TIM1_CLK_ENABLE();
 236:Src/main.c    **** 
 237:Src/main.c    ****   TIM_ClockConfigTypeDef sClockSourceConfig = {0};
 238:Src/main.c    ****   TIM_MasterConfigTypeDef sMasterConfig = {0};
 239:Src/main.c    ****   TIM_OC_InitTypeDef sConfigOC = {0};
 240:Src/main.c    ****   TIM_BreakDeadTimeConfigTypeDef sBreakDeadTimeConfig = {0};
 241:Src/main.c    **** 
 242:Src/main.c    ****   htim1.Instance = TIM1;
 243:Src/main.c    ****   htim1.Init.Prescaler = 2048;
 244:Src/main.c    ****   htim1.Init.CounterMode = TIM_COUNTERMODE_UP;
 245:Src/main.c    ****   htim1.Init.Period = 4096;
 246:Src/main.c    ****   htim1.Init.ClockDivision = TIM_CLOCKDIVISION_DIV4;
 247:Src/main.c    ****   htim1.Init.RepetitionCounter = 0;
 248:Src/main.c    ****   htim1.Init.AutoReloadPreload = TIM_AUTORELOAD_PRELOAD_ENABLE;
 249:Src/main.c    ****   HAL_TIM_Base_Init(&htim1);
 250:Src/main.c    **** 
 251:Src/main.c    ****   sClockSourceConfig.ClockSource = TIM_CLOCKSOURCE_INTERNAL;
 252:Src/main.c    ****   HAL_TIM_ConfigClockSource(&htim1, &sClockSourceConfig);
 253:Src/main.c    **** 
 254:Src/main.c    ****   HAL_TIM_PWM_Init(&htim1);
 255:Src/main.c    ****   HAL_TIM_OC_Init(&htim1);
 256:Src/main.c    **** 
 257:Src/main.c    ****   sMasterConfig.MasterOutputTrigger = TIM_TRGO_RESET;
 258:Src/main.c    ****   sMasterConfig.MasterSlaveMode = TIM_MASTERSLAVEMODE_DISABLE;
 259:Src/main.c    ****   HAL_TIMEx_MasterConfigSynchronization(&htim1, &sMasterConfig);
 260:Src/main.c    **** 
 261:Src/main.c    ****   sConfigOC.OCMode = TIM_OCMODE_PWM1;
ARM GAS  /tmp/cc3Ha4nM.s 			page 6


 262:Src/main.c    ****   sConfigOC.Pulse = 50;
 263:Src/main.c    ****   sConfigOC.OCPolarity = TIM_OCPOLARITY_HIGH;
 264:Src/main.c    ****   sConfigOC.OCNPolarity = TIM_OCNPOLARITY_HIGH;
 265:Src/main.c    ****   sConfigOC.OCFastMode = TIM_OCFAST_DISABLE;
 266:Src/main.c    ****   sConfigOC.OCIdleState = TIM_OCIDLESTATE_RESET;
 267:Src/main.c    ****   sConfigOC.OCNIdleState = TIM_OCNIDLESTATE_RESET;
 268:Src/main.c    ****   HAL_TIM_PWM_ConfigChannel(&htim1, &sConfigOC, TIM_CHANNEL_1);
 269:Src/main.c    **** 
 270:Src/main.c    ****   sConfigOC.OCMode = TIM_OCMODE_PWM2;
 271:Src/main.c    ****   sConfigOC.Pulse = 4090;
 272:Src/main.c    ****   HAL_TIM_OC_ConfigChannel(&htim1, &sConfigOC, TIM_CHANNEL_4);
 273:Src/main.c    **** 
 274:Src/main.c    ****   sBreakDeadTimeConfig.OffStateRunMode = TIM_OSSR_DISABLE;
 275:Src/main.c    ****   sBreakDeadTimeConfig.OffStateIDLEMode = TIM_OSSI_DISABLE;
 276:Src/main.c    ****   sBreakDeadTimeConfig.LockLevel = TIM_LOCKLEVEL_OFF;
 277:Src/main.c    ****   sBreakDeadTimeConfig.DeadTime = 0;
 278:Src/main.c    ****   sBreakDeadTimeConfig.BreakState = TIM_BREAK_DISABLE;
 279:Src/main.c    ****   sBreakDeadTimeConfig.BreakPolarity = TIM_BREAKPOLARITY_HIGH;
 280:Src/main.c    ****   sBreakDeadTimeConfig.AutomaticOutput = TIM_AUTOMATICOUTPUT_DISABLE;
 281:Src/main.c    ****   HAL_TIMEx_ConfigBreakDeadTime(&htim1, &sBreakDeadTimeConfig);
 282:Src/main.c    **** 
 283:Src/main.c    ****   HAL_TIM_MspPostInit(&htim1);
 284:Src/main.c    **** }
 285:Src/main.c    **** /*
 286:Src/main.c    **** static void MX_TIM2_Init(void)
 287:Src/main.c    **** {
 288:Src/main.c    ****   TIM_ClockConfigTypeDef sClockSourceConfig = {0};
 289:Src/main.c    ****   TIM_MasterConfigTypeDef sMasterConfig = {0};
 290:Src/main.c    ****   TIM_OC_InitTypeDef sConfigOC = {0};
 291:Src/main.c    **** 
 292:Src/main.c    ****   htim2.Instance = TIM2;
 293:Src/main.c    ****   htim2.Init.Prescaler = 2096;
 294:Src/main.c    ****   htim2.Init.CounterMode = TIM_COUNTERMODE_UP;
 295:Src/main.c    ****   htim2.Init.Period = 4096;
 296:Src/main.c    ****   htim2.Init.ClockDivision = TIM_CLOCKDIVISION_DIV4;
 297:Src/main.c    ****   htim2.Init.AutoReloadPreload = TIM_AUTORELOAD_PRELOAD_ENABLE;
 298:Src/main.c    ****   HAL_TIM_PWM_Init(&htim2);
 299:Src/main.c    **** 
 300:Src/main.c    ****   sClockSourceConfig.ClockSource = TIM_CLOCKSOURCE_INTERNAL;
 301:Src/main.c    ****   HAL_TIM_ConfigClockSource(&htim2, &sClockSourceConfig);
 302:Src/main.c    **** 
 303:Src/main.c    ****   sMasterConfig.MasterOutputTrigger = TIM_TRGO_UPDATE;
 304:Src/main.c    ****   sMasterConfig.MasterSlaveMode = TIM_MASTERSLAVEMODE_DISABLE;
 305:Src/main.c    ****   HAL_TIMEx_MasterConfigSynchronization(&htim2, &sMasterConfig);
 306:Src/main.c    **** 
 307:Src/main.c    ****   sConfigOC.OCMode = TIM_OCMODE_PWM1;
 308:Src/main.c    ****   sConfigOC.Pulse = 30;
 309:Src/main.c    ****   sConfigOC.OCPolarity = TIM_OCPOLARITY_HIGH;
 310:Src/main.c    ****   sConfigOC.OCFastMode = TIM_OCFAST_DISABLE;
 311:Src/main.c    ****   HAL_TIM_PWM_ConfigChannel(&htim2, &sConfigOC, TIM_CHANNEL_2);
 312:Src/main.c    **** 
 313:Src/main.c    ****   HAL_TIM_MspPostInit(&htim2);
 314:Src/main.c    **** 
 315:Src/main.c    **** }
 316:Src/main.c    **** */
 317:Src/main.c    **** static void MX_USB_PCD_Init(void)
 318:Src/main.c    **** {
ARM GAS  /tmp/cc3Ha4nM.s 			page 7


 319:Src/main.c    **** 
 320:Src/main.c    ****   hpcd_USB_FS.Instance = USB;
 321:Src/main.c    ****   hpcd_USB_FS.Init.dev_endpoints = 8;
 322:Src/main.c    ****   hpcd_USB_FS.Init.speed = PCD_SPEED_FULL;
 323:Src/main.c    ****   hpcd_USB_FS.Init.phy_itface = PCD_PHY_EMBEDDED;
 324:Src/main.c    ****   hpcd_USB_FS.Init.low_power_enable = DISABLE;
 325:Src/main.c    ****   hpcd_USB_FS.Init.lpm_enable = DISABLE;
 326:Src/main.c    ****   hpcd_USB_FS.Init.battery_charging_enable = DISABLE;
 327:Src/main.c    ****   HAL_PCD_Init(&hpcd_USB_FS);
 328:Src/main.c    **** }
 329:Src/main.c    **** 
 330:Src/main.c    **** static void MX_DMA_Init(void)
 331:Src/main.c    **** {
 332:Src/main.c    ****   __HAL_RCC_DMA1_CLK_ENABLE();
 333:Src/main.c    **** 
 334:Src/main.c    ****   HAL_NVIC_SetPriority(DMA1_Channel1_IRQn, 0, 0);
 335:Src/main.c    ****   HAL_NVIC_EnableIRQ(DMA1_Channel1_IRQn);
 336:Src/main.c    ****   /*
 337:Src/main.c    ****   HAL_NVIC_SetPriority(DMA1_Channel2_3_IRQn, 0, 0);
 338:Src/main.c    ****   HAL_NVIC_EnableIRQ(DMA1_Channel2_3_IRQn);
 339:Src/main.c    ****   HAL_NVIC_SetPriority(DMA1_Channel4_5_6_7_IRQn, 0, 0);
 340:Src/main.c    ****   HAL_NVIC_EnableIRQ(DMA1_Channel4_5_6_7_IRQn);
 341:Src/main.c    ****   */
 342:Src/main.c    **** 
 343:Src/main.c    **** }
 344:Src/main.c    **** 
 345:Src/main.c    **** static void MX_GPIO_Init(void)
 346:Src/main.c    **** {
  26              		.loc 1 346 1 view -0
  27              		.cfi_startproc
  28              		@ args = 0, pretend = 0, frame = 32
  29              		@ frame_needed = 0, uses_anonymous_args = 0
  30 0000 00B5     		push	{lr}
  31              	.LCFI0:
  32              		.cfi_def_cfa_offset 4
  33              		.cfi_offset 14, -4
  34 0002 89B0     		sub	sp, sp, #36
  35              	.LCFI1:
  36              		.cfi_def_cfa_offset 40
 347:Src/main.c    ****   GPIO_InitTypeDef GPIO_InitStruct = {0};
  37              		.loc 1 347 3 view .LVU1
  38              		.loc 1 347 20 is_stmt 0 view .LVU2
  39 0004 1022     		movs	r2, #16
  40 0006 0021     		movs	r1, #0
  41 0008 04A8     		add	r0, sp, #16
  42 000a FFF7FEFF 		bl	memset
  43              	.LVL0:
 348:Src/main.c    **** 
 349:Src/main.c    ****   __HAL_RCC_GPIOA_CLK_ENABLE();
  44              		.loc 1 349 3 is_stmt 1 view .LVU3
  45              	.LBB2:
  46              		.loc 1 349 3 view .LVU4
  47              		.loc 1 349 3 view .LVU5
  48 000e 144B     		ldr	r3, .L2
  49 0010 5969     		ldr	r1, [r3, #20]
  50 0012 8020     		movs	r0, #128
  51 0014 8002     		lsls	r0, r0, #10
ARM GAS  /tmp/cc3Ha4nM.s 			page 8


  52 0016 0143     		orrs	r1, r0
  53 0018 5961     		str	r1, [r3, #20]
  54              		.loc 1 349 3 view .LVU6
  55 001a 5A69     		ldr	r2, [r3, #20]
  56 001c 0240     		ands	r2, r0
  57 001e 0192     		str	r2, [sp, #4]
  58              		.loc 1 349 3 view .LVU7
  59 0020 019A     		ldr	r2, [sp, #4]
  60              	.LBE2:
 350:Src/main.c    ****   __HAL_RCC_GPIOB_CLK_ENABLE();
  61              		.loc 1 350 3 view .LVU8
  62              	.LBB3:
  63              		.loc 1 350 3 view .LVU9
  64              		.loc 1 350 3 view .LVU10
  65 0022 5A69     		ldr	r2, [r3, #20]
  66 0024 8021     		movs	r1, #128
  67 0026 C902     		lsls	r1, r1, #11
  68 0028 0A43     		orrs	r2, r1
  69 002a 5A61     		str	r2, [r3, #20]
  70              		.loc 1 350 3 view .LVU11
  71 002c 5B69     		ldr	r3, [r3, #20]
  72 002e 0B40     		ands	r3, r1
  73 0030 0293     		str	r3, [sp, #8]
  74              		.loc 1 350 3 view .LVU12
  75 0032 029B     		ldr	r3, [sp, #8]
  76              	.LBE3:
 351:Src/main.c    **** 
 352:Src/main.c    ****   GPIO_InitStruct.Pin = B1_Pin|B2_Pin;
  77              		.loc 1 352 3 view .LVU13
  78              		.loc 1 352 23 is_stmt 0 view .LVU14
  79 0034 1823     		movs	r3, #24
  80 0036 0393     		str	r3, [sp, #12]
 353:Src/main.c    ****   GPIO_InitStruct.Mode = GPIO_MODE_INPUT;
  81              		.loc 1 353 3 is_stmt 1 view .LVU15
 354:Src/main.c    ****   GPIO_InitStruct.Pull = GPIO_PULLDOWN;
  82              		.loc 1 354 3 view .LVU16
  83              		.loc 1 354 24 is_stmt 0 view .LVU17
  84 0038 163B     		subs	r3, r3, #22
  85 003a 0593     		str	r3, [sp, #20]
 355:Src/main.c    ****   HAL_GPIO_Init(GPIOA, &GPIO_InitStruct);
  86              		.loc 1 355 3 is_stmt 1 view .LVU18
  87 003c 9020     		movs	r0, #144
  88 003e 03A9     		add	r1, sp, #12
  89 0040 C005     		lsls	r0, r0, #23
  90 0042 FFF7FEFF 		bl	HAL_GPIO_Init
  91              	.LVL1:
 356:Src/main.c    **** 
 357:Src/main.c    ****   GPIO_InitStruct.Pin = INT_N_Pin;
  92              		.loc 1 357 3 view .LVU19
  93              		.loc 1 357 23 is_stmt 0 view .LVU20
  94 0046 8023     		movs	r3, #128
  95 0048 5B01     		lsls	r3, r3, #5
  96 004a 0393     		str	r3, [sp, #12]
 358:Src/main.c    ****   GPIO_InitStruct.Mode = GPIO_MODE_INPUT;
  97              		.loc 1 358 3 is_stmt 1 view .LVU21
  98              		.loc 1 358 24 is_stmt 0 view .LVU22
  99 004c 0023     		movs	r3, #0
ARM GAS  /tmp/cc3Ha4nM.s 			page 9


 100 004e 0493     		str	r3, [sp, #16]
 359:Src/main.c    ****   GPIO_InitStruct.Pull = GPIO_NOPULL;
 101              		.loc 1 359 3 is_stmt 1 view .LVU23
 102              		.loc 1 359 24 is_stmt 0 view .LVU24
 103 0050 0593     		str	r3, [sp, #20]
 360:Src/main.c    ****   HAL_GPIO_Init(INT_N_GPIO_Port, &GPIO_InitStruct);
 104              		.loc 1 360 3 is_stmt 1 view .LVU25
 105 0052 03A9     		add	r1, sp, #12
 106 0054 0348     		ldr	r0, .L2+4
 107 0056 FFF7FEFF 		bl	HAL_GPIO_Init
 108              	.LVL2:
 361:Src/main.c    **** 
 362:Src/main.c    **** }
 109              		.loc 1 362 1 is_stmt 0 view .LVU26
 110 005a 09B0     		add	sp, sp, #36
 111              		@ sp needed
 112 005c 00BD     		pop	{pc}
 113              	.L3:
 114 005e C046     		.align	2
 115              	.L2:
 116 0060 00100240 		.word	1073876992
 117 0064 00040048 		.word	1207960576
 118              		.cfi_endproc
 119              	.LFE46:
 121              		.section	.text.MX_DMA_Init,"ax",%progbits
 122              		.align	1
 123              		.syntax unified
 124              		.code	16
 125              		.thumb_func
 126              		.fpu softvfp
 128              	MX_DMA_Init:
 129              	.LFB45:
 331:Src/main.c    ****   __HAL_RCC_DMA1_CLK_ENABLE();
 130              		.loc 1 331 1 is_stmt 1 view -0
 131              		.cfi_startproc
 132              		@ args = 0, pretend = 0, frame = 8
 133              		@ frame_needed = 0, uses_anonymous_args = 0
 134 0000 00B5     		push	{lr}
 135              	.LCFI2:
 136              		.cfi_def_cfa_offset 4
 137              		.cfi_offset 14, -4
 138 0002 83B0     		sub	sp, sp, #12
 139              	.LCFI3:
 140              		.cfi_def_cfa_offset 16
 332:Src/main.c    **** 
 141              		.loc 1 332 3 view .LVU28
 142              	.LBB4:
 332:Src/main.c    **** 
 143              		.loc 1 332 3 view .LVU29
 332:Src/main.c    **** 
 144              		.loc 1 332 3 view .LVU30
 145 0004 094A     		ldr	r2, .L5
 146 0006 5169     		ldr	r1, [r2, #20]
 147 0008 0123     		movs	r3, #1
 148 000a 1943     		orrs	r1, r3
 149 000c 5161     		str	r1, [r2, #20]
 332:Src/main.c    **** 
ARM GAS  /tmp/cc3Ha4nM.s 			page 10


 150              		.loc 1 332 3 view .LVU31
 151 000e 5269     		ldr	r2, [r2, #20]
 152 0010 1340     		ands	r3, r2
 153 0012 0193     		str	r3, [sp, #4]
 332:Src/main.c    **** 
 154              		.loc 1 332 3 view .LVU32
 155 0014 019B     		ldr	r3, [sp, #4]
 156              	.LBE4:
 334:Src/main.c    ****   HAL_NVIC_EnableIRQ(DMA1_Channel1_IRQn);
 157              		.loc 1 334 3 view .LVU33
 158 0016 0022     		movs	r2, #0
 159 0018 0021     		movs	r1, #0
 160 001a 0920     		movs	r0, #9
 161 001c FFF7FEFF 		bl	HAL_NVIC_SetPriority
 162              	.LVL3:
 335:Src/main.c    ****   /*
 163              		.loc 1 335 3 view .LVU34
 164 0020 0920     		movs	r0, #9
 165 0022 FFF7FEFF 		bl	HAL_NVIC_EnableIRQ
 166              	.LVL4:
 343:Src/main.c    **** 
 167              		.loc 1 343 1 is_stmt 0 view .LVU35
 168 0026 03B0     		add	sp, sp, #12
 169              		@ sp needed
 170 0028 00BD     		pop	{pc}
 171              	.L6:
 172 002a C046     		.align	2
 173              	.L5:
 174 002c 00100240 		.word	1073876992
 175              		.cfi_endproc
 176              	.LFE45:
 178              		.section	.text.MX_ADC_Init,"ax",%progbits
 179              		.align	1
 180              		.syntax unified
 181              		.code	16
 182              		.thumb_func
 183              		.fpu softvfp
 185              	MX_ADC_Init:
 186              	.LFB40:
 155:Src/main.c    ****   __HAL_RCC_DMA1_CLK_ENABLE();
 187              		.loc 1 155 1 is_stmt 1 view -0
 188              		.cfi_startproc
 189              		@ args = 0, pretend = 0, frame = 24
 190              		@ frame_needed = 0, uses_anonymous_args = 0
 191 0000 70B5     		push	{r4, r5, r6, lr}
 192              	.LCFI4:
 193              		.cfi_def_cfa_offset 16
 194              		.cfi_offset 4, -16
 195              		.cfi_offset 5, -12
 196              		.cfi_offset 6, -8
 197              		.cfi_offset 14, -4
 198 0002 86B0     		sub	sp, sp, #24
 199              	.LCFI5:
 200              		.cfi_def_cfa_offset 40
 156:Src/main.c    ****   __HAL_RCC_ADC1_CLK_ENABLE();
 201              		.loc 1 156 3 view .LVU37
 202              	.LBB5:
ARM GAS  /tmp/cc3Ha4nM.s 			page 11


 156:Src/main.c    ****   __HAL_RCC_ADC1_CLK_ENABLE();
 203              		.loc 1 156 3 view .LVU38
 156:Src/main.c    ****   __HAL_RCC_ADC1_CLK_ENABLE();
 204              		.loc 1 156 3 view .LVU39
 205 0004 264B     		ldr	r3, .L8
 206 0006 5A69     		ldr	r2, [r3, #20]
 207 0008 0126     		movs	r6, #1
 208 000a 3243     		orrs	r2, r6
 209 000c 5A61     		str	r2, [r3, #20]
 156:Src/main.c    ****   __HAL_RCC_ADC1_CLK_ENABLE();
 210              		.loc 1 156 3 view .LVU40
 211 000e 5A69     		ldr	r2, [r3, #20]
 212 0010 3240     		ands	r2, r6
 213 0012 0192     		str	r2, [sp, #4]
 156:Src/main.c    ****   __HAL_RCC_ADC1_CLK_ENABLE();
 214              		.loc 1 156 3 view .LVU41
 215 0014 019A     		ldr	r2, [sp, #4]
 216              	.LBE5:
 157:Src/main.c    **** 
 217              		.loc 1 157 3 view .LVU42
 218              	.LBB6:
 157:Src/main.c    **** 
 219              		.loc 1 157 3 view .LVU43
 157:Src/main.c    **** 
 220              		.loc 1 157 3 view .LVU44
 221 0016 9A69     		ldr	r2, [r3, #24]
 222 0018 8021     		movs	r1, #128
 223 001a 8900     		lsls	r1, r1, #2
 224 001c 0A43     		orrs	r2, r1
 225 001e 9A61     		str	r2, [r3, #24]
 157:Src/main.c    **** 
 226              		.loc 1 157 3 view .LVU45
 227 0020 9B69     		ldr	r3, [r3, #24]
 228 0022 0B40     		ands	r3, r1
 229 0024 0293     		str	r3, [sp, #8]
 157:Src/main.c    **** 
 230              		.loc 1 157 3 view .LVU46
 231 0026 029B     		ldr	r3, [sp, #8]
 232              	.LBE6:
 159:Src/main.c    **** 
 233              		.loc 1 159 3 view .LVU47
 159:Src/main.c    **** 
 234              		.loc 1 159 26 is_stmt 0 view .LVU48
 235 0028 0C22     		movs	r2, #12
 236 002a 0021     		movs	r1, #0
 237 002c 03A8     		add	r0, sp, #12
 238 002e FFF7FEFF 		bl	memset
 239              	.LVL5:
 161:Src/main.c    ****   hadc.Init.ClockPrescaler = ADC_CLOCK_ASYNC_DIV1;
 240              		.loc 1 161 3 is_stmt 1 view .LVU49
 161:Src/main.c    ****   hadc.Init.ClockPrescaler = ADC_CLOCK_ASYNC_DIV1;
 241              		.loc 1 161 17 is_stmt 0 view .LVU50
 242 0032 1C4C     		ldr	r4, .L8+4
 243 0034 1C4B     		ldr	r3, .L8+8
 244 0036 2360     		str	r3, [r4]
 162:Src/main.c    ****   hadc.Init.Resolution = ADC_RESOLUTION_12B;
 245              		.loc 1 162 3 is_stmt 1 view .LVU51
ARM GAS  /tmp/cc3Ha4nM.s 			page 12


 162:Src/main.c    ****   hadc.Init.Resolution = ADC_RESOLUTION_12B;
 246              		.loc 1 162 28 is_stmt 0 view .LVU52
 247 0038 0025     		movs	r5, #0
 248 003a 6560     		str	r5, [r4, #4]
 163:Src/main.c    ****   hadc.Init.DataAlign = ADC_DATAALIGN_RIGHT;
 249              		.loc 1 163 3 is_stmt 1 view .LVU53
 163:Src/main.c    ****   hadc.Init.DataAlign = ADC_DATAALIGN_RIGHT;
 250              		.loc 1 163 24 is_stmt 0 view .LVU54
 251 003c A560     		str	r5, [r4, #8]
 164:Src/main.c    ****   hadc.Init.ScanConvMode = ADC_SCAN_DIRECTION_FORWARD;
 252              		.loc 1 164 3 is_stmt 1 view .LVU55
 164:Src/main.c    ****   hadc.Init.ScanConvMode = ADC_SCAN_DIRECTION_FORWARD;
 253              		.loc 1 164 23 is_stmt 0 view .LVU56
 254 003e E560     		str	r5, [r4, #12]
 165:Src/main.c    ****   hadc.Init.EOCSelection = ADC_EOC_SEQ_CONV;
 255              		.loc 1 165 3 is_stmt 1 view .LVU57
 165:Src/main.c    ****   hadc.Init.EOCSelection = ADC_EOC_SEQ_CONV;
 256              		.loc 1 165 26 is_stmt 0 view .LVU58
 257 0040 2661     		str	r6, [r4, #16]
 166:Src/main.c    ****   hadc.Init.LowPowerAutoWait = DISABLE;
 258              		.loc 1 166 3 is_stmt 1 view .LVU59
 166:Src/main.c    ****   hadc.Init.LowPowerAutoWait = DISABLE;
 259              		.loc 1 166 26 is_stmt 0 view .LVU60
 260 0042 0823     		movs	r3, #8
 261 0044 6361     		str	r3, [r4, #20]
 167:Src/main.c    ****   hadc.Init.LowPowerAutoPowerOff = DISABLE;
 262              		.loc 1 167 3 is_stmt 1 view .LVU61
 167:Src/main.c    ****   hadc.Init.LowPowerAutoPowerOff = DISABLE;
 263              		.loc 1 167 30 is_stmt 0 view .LVU62
 264 0046 A561     		str	r5, [r4, #24]
 168:Src/main.c    ****   hadc.Init.ContinuousConvMode = DISABLE;
 265              		.loc 1 168 3 is_stmt 1 view .LVU63
 168:Src/main.c    ****   hadc.Init.ContinuousConvMode = DISABLE;
 266              		.loc 1 168 34 is_stmt 0 view .LVU64
 267 0048 E561     		str	r5, [r4, #28]
 169:Src/main.c    ****   hadc.Init.DiscontinuousConvMode = DISABLE;
 268              		.loc 1 169 3 is_stmt 1 view .LVU65
 169:Src/main.c    ****   hadc.Init.DiscontinuousConvMode = DISABLE;
 269              		.loc 1 169 32 is_stmt 0 view .LVU66
 270 004a 2562     		str	r5, [r4, #32]
 170:Src/main.c    ****   hadc.Init.ExternalTrigConv = ADC_EXTERNALTRIGCONV_T1_CC4;//ADC_EXTERNALTRIGCONV_T2_TRGO;
 271              		.loc 1 170 3 is_stmt 1 view .LVU67
 170:Src/main.c    ****   hadc.Init.ExternalTrigConv = ADC_EXTERNALTRIGCONV_T1_CC4;//ADC_EXTERNALTRIGCONV_T2_TRGO;
 272              		.loc 1 170 35 is_stmt 0 view .LVU68
 273 004c 6562     		str	r5, [r4, #36]
 171:Src/main.c    ****   hadc.Init.ExternalTrigConvEdge = ADC_EXTERNALTRIGCONVEDGE_RISING;
 274              		.loc 1 171 3 is_stmt 1 view .LVU69
 171:Src/main.c    ****   hadc.Init.ExternalTrigConvEdge = ADC_EXTERNALTRIGCONVEDGE_RISING;
 275              		.loc 1 171 30 is_stmt 0 view .LVU70
 276 004e 3833     		adds	r3, r3, #56
 277 0050 A362     		str	r3, [r4, #40]
 172:Src/main.c    ****   hadc.Init.DMAContinuousRequests = ENABLE;
 278              		.loc 1 172 3 is_stmt 1 view .LVU71
 172:Src/main.c    ****   hadc.Init.DMAContinuousRequests = ENABLE;
 279              		.loc 1 172 34 is_stmt 0 view .LVU72
 280 0052 8023     		movs	r3, #128
 281 0054 DB00     		lsls	r3, r3, #3
ARM GAS  /tmp/cc3Ha4nM.s 			page 13


 282 0056 E362     		str	r3, [r4, #44]
 173:Src/main.c    ****   hadc.Init.Overrun = ADC_OVR_DATA_PRESERVED;
 283              		.loc 1 173 3 is_stmt 1 view .LVU73
 173:Src/main.c    ****   hadc.Init.Overrun = ADC_OVR_DATA_PRESERVED;
 284              		.loc 1 173 35 is_stmt 0 view .LVU74
 285 0058 2663     		str	r6, [r4, #48]
 174:Src/main.c    ****   HAL_ADC_Init(&hadc);
 286              		.loc 1 174 3 is_stmt 1 view .LVU75
 174:Src/main.c    ****   HAL_ADC_Init(&hadc);
 287              		.loc 1 174 21 is_stmt 0 view .LVU76
 288 005a 6663     		str	r6, [r4, #52]
 175:Src/main.c    **** 
 289              		.loc 1 175 3 is_stmt 1 view .LVU77
 290 005c 2000     		movs	r0, r4
 291 005e FFF7FEFF 		bl	HAL_ADC_Init
 292              	.LVL6:
 177:Src/main.c    ****   sConfig.Rank = ADC_RANK_CHANNEL_NUMBER;
 293              		.loc 1 177 3 view .LVU78
 177:Src/main.c    ****   sConfig.Rank = ADC_RANK_CHANNEL_NUMBER;
 294              		.loc 1 177 19 is_stmt 0 view .LVU79
 295 0062 0395     		str	r5, [sp, #12]
 178:Src/main.c    ****   sConfig.SamplingTime = ADC_SAMPLETIME_13CYCLES_5;
 296              		.loc 1 178 3 is_stmt 1 view .LVU80
 178:Src/main.c    ****   sConfig.SamplingTime = ADC_SAMPLETIME_13CYCLES_5;
 297              		.loc 1 178 16 is_stmt 0 view .LVU81
 298 0064 8023     		movs	r3, #128
 299 0066 5B01     		lsls	r3, r3, #5
 300 0068 0493     		str	r3, [sp, #16]
 179:Src/main.c    ****   HAL_ADC_ConfigChannel(&hadc, &sConfig);
 301              		.loc 1 179 3 is_stmt 1 view .LVU82
 179:Src/main.c    ****   HAL_ADC_ConfigChannel(&hadc, &sConfig);
 302              		.loc 1 179 24 is_stmt 0 view .LVU83
 303 006a 0235     		adds	r5, r5, #2
 304 006c 0595     		str	r5, [sp, #20]
 180:Src/main.c    **** 
 305              		.loc 1 180 3 is_stmt 1 view .LVU84
 306 006e 03A9     		add	r1, sp, #12
 307 0070 2000     		movs	r0, r4
 308 0072 FFF7FEFF 		bl	HAL_ADC_ConfigChannel
 309              	.LVL7:
 182:Src/main.c    ****   HAL_ADC_ConfigChannel(&hadc, &sConfig);
 310              		.loc 1 182 3 view .LVU85
 182:Src/main.c    ****   HAL_ADC_ConfigChannel(&hadc, &sConfig);
 311              		.loc 1 182 19 is_stmt 0 view .LVU86
 312 0076 0396     		str	r6, [sp, #12]
 183:Src/main.c    **** 
 313              		.loc 1 183 3 is_stmt 1 view .LVU87
 314 0078 03A9     		add	r1, sp, #12
 315 007a 2000     		movs	r0, r4
 316 007c FFF7FEFF 		bl	HAL_ADC_ConfigChannel
 317              	.LVL8:
 185:Src/main.c    ****   HAL_ADC_ConfigChannel(&hadc, &sConfig);
 318              		.loc 1 185 3 view .LVU88
 185:Src/main.c    ****   HAL_ADC_ConfigChannel(&hadc, &sConfig);
 319              		.loc 1 185 19 is_stmt 0 view .LVU89
 320 0080 0395     		str	r5, [sp, #12]
 186:Src/main.c    **** 
ARM GAS  /tmp/cc3Ha4nM.s 			page 14


 321              		.loc 1 186 3 is_stmt 1 view .LVU90
 322 0082 03A9     		add	r1, sp, #12
 323 0084 2000     		movs	r0, r4
 324 0086 FFF7FEFF 		bl	HAL_ADC_ConfigChannel
 325              	.LVL9:
 188:Src/main.c    ****   HAL_ADC_ConfigChannel(&hadc, &sConfig);
 326              		.loc 1 188 3 view .LVU91
 188:Src/main.c    ****   HAL_ADC_ConfigChannel(&hadc, &sConfig);
 327              		.loc 1 188 19 is_stmt 0 view .LVU92
 328 008a 0523     		movs	r3, #5
 329 008c 0393     		str	r3, [sp, #12]
 189:Src/main.c    **** 
 330              		.loc 1 189 3 is_stmt 1 view .LVU93
 331 008e 03A9     		add	r1, sp, #12
 332 0090 2000     		movs	r0, r4
 333 0092 FFF7FEFF 		bl	HAL_ADC_ConfigChannel
 334              	.LVL10:
 191:Src/main.c    **** }
 335              		.loc 1 191 3 view .LVU94
 336 0096 2000     		movs	r0, r4
 337 0098 FFF7FEFF 		bl	HAL_ADC_MspInit
 338              	.LVL11:
 192:Src/main.c    **** 
 339              		.loc 1 192 1 is_stmt 0 view .LVU95
 340 009c 06B0     		add	sp, sp, #24
 341              		@ sp needed
 342 009e 70BD     		pop	{r4, r5, r6, pc}
 343              	.L9:
 344              		.align	2
 345              	.L8:
 346 00a0 00100240 		.word	1073876992
 347 00a4 00000000 		.word	hadc
 348 00a8 00240140 		.word	1073816576
 349              		.cfi_endproc
 350              	.LFE40:
 352              		.section	.text.MX_I2C1_Init,"ax",%progbits
 353              		.align	1
 354              		.syntax unified
 355              		.code	16
 356              		.thumb_func
 357              		.fpu softvfp
 359              	MX_I2C1_Init:
 360              	.LFB41:
 195:Src/main.c    **** 
 361              		.loc 1 195 1 is_stmt 1 view -0
 362              		.cfi_startproc
 363              		@ args = 0, pretend = 0, frame = 0
 364              		@ frame_needed = 0, uses_anonymous_args = 0
 365 0000 10B5     		push	{r4, lr}
 366              	.LCFI6:
 367              		.cfi_def_cfa_offset 8
 368              		.cfi_offset 4, -8
 369              		.cfi_offset 14, -4
 197:Src/main.c    ****   hi2c1.Init.Timing = 0x2000090E;
 370              		.loc 1 197 3 view .LVU97
 197:Src/main.c    ****   hi2c1.Init.Timing = 0x2000090E;
 371              		.loc 1 197 18 is_stmt 0 view .LVU98
ARM GAS  /tmp/cc3Ha4nM.s 			page 15


 372 0002 0D4C     		ldr	r4, .L11
 373 0004 0D4B     		ldr	r3, .L11+4
 374 0006 2360     		str	r3, [r4]
 198:Src/main.c    ****   hi2c1.Init.OwnAddress1 = 0;
 375              		.loc 1 198 3 is_stmt 1 view .LVU99
 198:Src/main.c    ****   hi2c1.Init.OwnAddress1 = 0;
 376              		.loc 1 198 21 is_stmt 0 view .LVU100
 377 0008 0D4B     		ldr	r3, .L11+8
 378 000a 6360     		str	r3, [r4, #4]
 199:Src/main.c    ****   hi2c1.Init.AddressingMode = I2C_ADDRESSINGMODE_7BIT;
 379              		.loc 1 199 3 is_stmt 1 view .LVU101
 199:Src/main.c    ****   hi2c1.Init.AddressingMode = I2C_ADDRESSINGMODE_7BIT;
 380              		.loc 1 199 26 is_stmt 0 view .LVU102
 381 000c 0023     		movs	r3, #0
 382 000e A360     		str	r3, [r4, #8]
 200:Src/main.c    ****   hi2c1.Init.DualAddressMode = I2C_DUALADDRESS_DISABLE;
 383              		.loc 1 200 3 is_stmt 1 view .LVU103
 200:Src/main.c    ****   hi2c1.Init.DualAddressMode = I2C_DUALADDRESS_DISABLE;
 384              		.loc 1 200 29 is_stmt 0 view .LVU104
 385 0010 0122     		movs	r2, #1
 386 0012 E260     		str	r2, [r4, #12]
 201:Src/main.c    ****   hi2c1.Init.OwnAddress2 = 0;
 387              		.loc 1 201 3 is_stmt 1 view .LVU105
 201:Src/main.c    ****   hi2c1.Init.OwnAddress2 = 0;
 388              		.loc 1 201 30 is_stmt 0 view .LVU106
 389 0014 2361     		str	r3, [r4, #16]
 202:Src/main.c    ****   hi2c1.Init.OwnAddress2Masks = I2C_OA2_NOMASK;
 390              		.loc 1 202 3 is_stmt 1 view .LVU107
 202:Src/main.c    ****   hi2c1.Init.OwnAddress2Masks = I2C_OA2_NOMASK;
 391              		.loc 1 202 26 is_stmt 0 view .LVU108
 392 0016 6361     		str	r3, [r4, #20]
 203:Src/main.c    ****   hi2c1.Init.GeneralCallMode = I2C_GENERALCALL_DISABLE;
 393              		.loc 1 203 3 is_stmt 1 view .LVU109
 203:Src/main.c    ****   hi2c1.Init.GeneralCallMode = I2C_GENERALCALL_DISABLE;
 394              		.loc 1 203 31 is_stmt 0 view .LVU110
 395 0018 A361     		str	r3, [r4, #24]
 204:Src/main.c    ****   hi2c1.Init.NoStretchMode = I2C_NOSTRETCH_DISABLE;
 396              		.loc 1 204 3 is_stmt 1 view .LVU111
 204:Src/main.c    ****   hi2c1.Init.NoStretchMode = I2C_NOSTRETCH_DISABLE;
 397              		.loc 1 204 30 is_stmt 0 view .LVU112
 398 001a E361     		str	r3, [r4, #28]
 205:Src/main.c    ****   HAL_I2C_Init(&hi2c1);
 399              		.loc 1 205 3 is_stmt 1 view .LVU113
 205:Src/main.c    ****   HAL_I2C_Init(&hi2c1);
 400              		.loc 1 205 28 is_stmt 0 view .LVU114
 401 001c 2362     		str	r3, [r4, #32]
 206:Src/main.c    **** 
 402              		.loc 1 206 3 is_stmt 1 view .LVU115
 403 001e 2000     		movs	r0, r4
 404 0020 FFF7FEFF 		bl	HAL_I2C_Init
 405              	.LVL12:
 208:Src/main.c    **** 
 406              		.loc 1 208 3 view .LVU116
 407 0024 0021     		movs	r1, #0
 408 0026 2000     		movs	r0, r4
 409 0028 FFF7FEFF 		bl	HAL_I2CEx_ConfigAnalogFilter
 410              	.LVL13:
ARM GAS  /tmp/cc3Ha4nM.s 			page 16


 210:Src/main.c    **** }
 411              		.loc 1 210 3 view .LVU117
 412 002c 0021     		movs	r1, #0
 413 002e 2000     		movs	r0, r4
 414 0030 FFF7FEFF 		bl	HAL_I2CEx_ConfigDigitalFilter
 415              	.LVL14:
 211:Src/main.c    **** 
 416              		.loc 1 211 1 is_stmt 0 view .LVU118
 417              		@ sp needed
 418 0034 10BD     		pop	{r4, pc}
 419              	.L12:
 420 0036 C046     		.align	2
 421              	.L11:
 422 0038 00000000 		.word	hi2c1
 423 003c 00540040 		.word	1073763328
 424 0040 0E090020 		.word	536873230
 425              		.cfi_endproc
 426              	.LFE41:
 428              		.section	.text.MX_I2C2_Init,"ax",%progbits
 429              		.align	1
 430              		.syntax unified
 431              		.code	16
 432              		.thumb_func
 433              		.fpu softvfp
 435              	MX_I2C2_Init:
 436              	.LFB42:
 214:Src/main.c    **** 
 437              		.loc 1 214 1 is_stmt 1 view -0
 438              		.cfi_startproc
 439              		@ args = 0, pretend = 0, frame = 0
 440              		@ frame_needed = 0, uses_anonymous_args = 0
 441 0000 10B5     		push	{r4, lr}
 442              	.LCFI7:
 443              		.cfi_def_cfa_offset 8
 444              		.cfi_offset 4, -8
 445              		.cfi_offset 14, -4
 216:Src/main.c    ****   hi2c2.Init.Timing = 0x20303E5D;
 446              		.loc 1 216 3 view .LVU120
 216:Src/main.c    ****   hi2c2.Init.Timing = 0x20303E5D;
 447              		.loc 1 216 18 is_stmt 0 view .LVU121
 448 0002 0D4C     		ldr	r4, .L14
 449 0004 0D4B     		ldr	r3, .L14+4
 450 0006 2360     		str	r3, [r4]
 217:Src/main.c    ****   hi2c2.Init.OwnAddress1 = 0;
 451              		.loc 1 217 3 is_stmt 1 view .LVU122
 217:Src/main.c    ****   hi2c2.Init.OwnAddress1 = 0;
 452              		.loc 1 217 21 is_stmt 0 view .LVU123
 453 0008 0D4B     		ldr	r3, .L14+8
 454 000a 6360     		str	r3, [r4, #4]
 218:Src/main.c    ****   hi2c2.Init.AddressingMode = I2C_ADDRESSINGMODE_7BIT;
 455              		.loc 1 218 3 is_stmt 1 view .LVU124
 218:Src/main.c    ****   hi2c2.Init.AddressingMode = I2C_ADDRESSINGMODE_7BIT;
 456              		.loc 1 218 26 is_stmt 0 view .LVU125
 457 000c 0023     		movs	r3, #0
 458 000e A360     		str	r3, [r4, #8]
 219:Src/main.c    ****   hi2c2.Init.DualAddressMode = I2C_DUALADDRESS_DISABLE;
 459              		.loc 1 219 3 is_stmt 1 view .LVU126
ARM GAS  /tmp/cc3Ha4nM.s 			page 17


 219:Src/main.c    ****   hi2c2.Init.DualAddressMode = I2C_DUALADDRESS_DISABLE;
 460              		.loc 1 219 29 is_stmt 0 view .LVU127
 461 0010 0122     		movs	r2, #1
 462 0012 E260     		str	r2, [r4, #12]
 220:Src/main.c    ****   hi2c2.Init.OwnAddress2 = 0;
 463              		.loc 1 220 3 is_stmt 1 view .LVU128
 220:Src/main.c    ****   hi2c2.Init.OwnAddress2 = 0;
 464              		.loc 1 220 30 is_stmt 0 view .LVU129
 465 0014 2361     		str	r3, [r4, #16]
 221:Src/main.c    ****   hi2c2.Init.OwnAddress2Masks = I2C_OA2_NOMASK;
 466              		.loc 1 221 3 is_stmt 1 view .LVU130
 221:Src/main.c    ****   hi2c2.Init.OwnAddress2Masks = I2C_OA2_NOMASK;
 467              		.loc 1 221 26 is_stmt 0 view .LVU131
 468 0016 6361     		str	r3, [r4, #20]
 222:Src/main.c    ****   hi2c2.Init.GeneralCallMode = I2C_GENERALCALL_DISABLE;
 469              		.loc 1 222 3 is_stmt 1 view .LVU132
 222:Src/main.c    ****   hi2c2.Init.GeneralCallMode = I2C_GENERALCALL_DISABLE;
 470              		.loc 1 222 31 is_stmt 0 view .LVU133
 471 0018 A361     		str	r3, [r4, #24]
 223:Src/main.c    ****   hi2c2.Init.NoStretchMode = I2C_NOSTRETCH_DISABLE;
 472              		.loc 1 223 3 is_stmt 1 view .LVU134
 223:Src/main.c    ****   hi2c2.Init.NoStretchMode = I2C_NOSTRETCH_DISABLE;
 473              		.loc 1 223 30 is_stmt 0 view .LVU135
 474 001a E361     		str	r3, [r4, #28]
 224:Src/main.c    ****   HAL_I2C_Init(&hi2c2);
 475              		.loc 1 224 3 is_stmt 1 view .LVU136
 224:Src/main.c    ****   HAL_I2C_Init(&hi2c2);
 476              		.loc 1 224 28 is_stmt 0 view .LVU137
 477 001c 2362     		str	r3, [r4, #32]
 225:Src/main.c    **** 
 478              		.loc 1 225 3 is_stmt 1 view .LVU138
 479 001e 2000     		movs	r0, r4
 480 0020 FFF7FEFF 		bl	HAL_I2C_Init
 481              	.LVL15:
 227:Src/main.c    **** 
 482              		.loc 1 227 3 view .LVU139
 483 0024 0021     		movs	r1, #0
 484 0026 2000     		movs	r0, r4
 485 0028 FFF7FEFF 		bl	HAL_I2CEx_ConfigAnalogFilter
 486              	.LVL16:
 229:Src/main.c    **** }
 487              		.loc 1 229 3 view .LVU140
 488 002c 0021     		movs	r1, #0
 489 002e 2000     		movs	r0, r4
 490 0030 FFF7FEFF 		bl	HAL_I2CEx_ConfigDigitalFilter
 491              	.LVL17:
 230:Src/main.c    **** 
 492              		.loc 1 230 1 is_stmt 0 view .LVU141
 493              		@ sp needed
 494 0034 10BD     		pop	{r4, pc}
 495              	.L15:
 496 0036 C046     		.align	2
 497              	.L14:
 498 0038 00000000 		.word	hi2c2
 499 003c 00580040 		.word	1073764352
 500 0040 5D3E3020 		.word	540032605
 501              		.cfi_endproc
ARM GAS  /tmp/cc3Ha4nM.s 			page 18


 502              	.LFE42:
 504              		.section	.text.MX_TIM1_Init,"ax",%progbits
 505              		.align	1
 506              		.syntax unified
 507              		.code	16
 508              		.thumb_func
 509              		.fpu softvfp
 511              	MX_TIM1_Init:
 512              	.LFB43:
 233:Src/main.c    **** 
 513              		.loc 1 233 1 is_stmt 1 view -0
 514              		.cfi_startproc
 515              		@ args = 0, pretend = 0, frame = 88
 516              		@ frame_needed = 0, uses_anonymous_args = 0
 517 0000 70B5     		push	{r4, r5, r6, lr}
 518              	.LCFI8:
 519              		.cfi_def_cfa_offset 16
 520              		.cfi_offset 4, -16
 521              		.cfi_offset 5, -12
 522              		.cfi_offset 6, -8
 523              		.cfi_offset 14, -4
 524 0002 96B0     		sub	sp, sp, #88
 525              	.LCFI9:
 526              		.cfi_def_cfa_offset 104
 235:Src/main.c    **** 
 527              		.loc 1 235 3 view .LVU143
 528              	.LBB7:
 235:Src/main.c    **** 
 529              		.loc 1 235 3 view .LVU144
 235:Src/main.c    **** 
 530              		.loc 1 235 3 view .LVU145
 531 0004 354B     		ldr	r3, .L17
 532 0006 9A69     		ldr	r2, [r3, #24]
 533 0008 8025     		movs	r5, #128
 534 000a 2D01     		lsls	r5, r5, #4
 535 000c 2A43     		orrs	r2, r5
 536 000e 9A61     		str	r2, [r3, #24]
 235:Src/main.c    **** 
 537              		.loc 1 235 3 view .LVU146
 538 0010 9B69     		ldr	r3, [r3, #24]
 539 0012 2B40     		ands	r3, r5
 540 0014 0193     		str	r3, [sp, #4]
 235:Src/main.c    **** 
 541              		.loc 1 235 3 view .LVU147
 542 0016 019B     		ldr	r3, [sp, #4]
 543              	.LBE7:
 237:Src/main.c    ****   TIM_MasterConfigTypeDef sMasterConfig = {0};
 544              		.loc 1 237 3 view .LVU148
 237:Src/main.c    ****   TIM_MasterConfigTypeDef sMasterConfig = {0};
 545              		.loc 1 237 26 is_stmt 0 view .LVU149
 546 0018 1022     		movs	r2, #16
 547 001a 0021     		movs	r1, #0
 548 001c 12A8     		add	r0, sp, #72
 549 001e FFF7FEFF 		bl	memset
 550              	.LVL18:
 238:Src/main.c    ****   TIM_OC_InitTypeDef sConfigOC = {0};
 551              		.loc 1 238 3 is_stmt 1 view .LVU150
ARM GAS  /tmp/cc3Ha4nM.s 			page 19


 238:Src/main.c    ****   TIM_OC_InitTypeDef sConfigOC = {0};
 552              		.loc 1 238 27 is_stmt 0 view .LVU151
 553 0022 0822     		movs	r2, #8
 554 0024 0021     		movs	r1, #0
 555 0026 10A8     		add	r0, sp, #64
 556 0028 FFF7FEFF 		bl	memset
 557              	.LVL19:
 239:Src/main.c    ****   TIM_BreakDeadTimeConfigTypeDef sBreakDeadTimeConfig = {0};
 558              		.loc 1 239 3 is_stmt 1 view .LVU152
 239:Src/main.c    ****   TIM_BreakDeadTimeConfigTypeDef sBreakDeadTimeConfig = {0};
 559              		.loc 1 239 22 is_stmt 0 view .LVU153
 560 002c 1C22     		movs	r2, #28
 561 002e 0021     		movs	r1, #0
 562 0030 09A8     		add	r0, sp, #36
 563 0032 FFF7FEFF 		bl	memset
 564              	.LVL20:
 240:Src/main.c    **** 
 565              		.loc 1 240 3 is_stmt 1 view .LVU154
 240:Src/main.c    **** 
 566              		.loc 1 240 34 is_stmt 0 view .LVU155
 567 0036 1C22     		movs	r2, #28
 568 0038 0021     		movs	r1, #0
 569 003a 02A8     		add	r0, sp, #8
 570 003c FFF7FEFF 		bl	memset
 571              	.LVL21:
 242:Src/main.c    ****   htim1.Init.Prescaler = 2048;
 572              		.loc 1 242 3 is_stmt 1 view .LVU156
 242:Src/main.c    ****   htim1.Init.Prescaler = 2048;
 573              		.loc 1 242 18 is_stmt 0 view .LVU157
 574 0040 274C     		ldr	r4, .L17+4
 575 0042 284B     		ldr	r3, .L17+8
 576 0044 2360     		str	r3, [r4]
 243:Src/main.c    ****   htim1.Init.CounterMode = TIM_COUNTERMODE_UP;
 577              		.loc 1 243 3 is_stmt 1 view .LVU158
 243:Src/main.c    ****   htim1.Init.CounterMode = TIM_COUNTERMODE_UP;
 578              		.loc 1 243 24 is_stmt 0 view .LVU159
 579 0046 6560     		str	r5, [r4, #4]
 244:Src/main.c    ****   htim1.Init.Period = 4096;
 580              		.loc 1 244 3 is_stmt 1 view .LVU160
 244:Src/main.c    ****   htim1.Init.Period = 4096;
 581              		.loc 1 244 26 is_stmt 0 view .LVU161
 582 0048 0025     		movs	r5, #0
 583 004a A560     		str	r5, [r4, #8]
 245:Src/main.c    ****   htim1.Init.ClockDivision = TIM_CLOCKDIVISION_DIV4;
 584              		.loc 1 245 3 is_stmt 1 view .LVU162
 245:Src/main.c    ****   htim1.Init.ClockDivision = TIM_CLOCKDIVISION_DIV4;
 585              		.loc 1 245 21 is_stmt 0 view .LVU163
 586 004c 8026     		movs	r6, #128
 587 004e 7601     		lsls	r6, r6, #5
 588 0050 E660     		str	r6, [r4, #12]
 246:Src/main.c    ****   htim1.Init.RepetitionCounter = 0;
 589              		.loc 1 246 3 is_stmt 1 view .LVU164
 246:Src/main.c    ****   htim1.Init.RepetitionCounter = 0;
 590              		.loc 1 246 28 is_stmt 0 view .LVU165
 591 0052 8023     		movs	r3, #128
 592 0054 9B00     		lsls	r3, r3, #2
 593 0056 2361     		str	r3, [r4, #16]
ARM GAS  /tmp/cc3Ha4nM.s 			page 20


 247:Src/main.c    ****   htim1.Init.AutoReloadPreload = TIM_AUTORELOAD_PRELOAD_ENABLE;
 594              		.loc 1 247 3 is_stmt 1 view .LVU166
 247:Src/main.c    ****   htim1.Init.AutoReloadPreload = TIM_AUTORELOAD_PRELOAD_ENABLE;
 595              		.loc 1 247 32 is_stmt 0 view .LVU167
 596 0058 6561     		str	r5, [r4, #20]
 248:Src/main.c    ****   HAL_TIM_Base_Init(&htim1);
 597              		.loc 1 248 3 is_stmt 1 view .LVU168
 248:Src/main.c    ****   HAL_TIM_Base_Init(&htim1);
 598              		.loc 1 248 32 is_stmt 0 view .LVU169
 599 005a 813B     		subs	r3, r3, #129
 600 005c FF3B     		subs	r3, r3, #255
 601 005e A361     		str	r3, [r4, #24]
 249:Src/main.c    **** 
 602              		.loc 1 249 3 is_stmt 1 view .LVU170
 603 0060 2000     		movs	r0, r4
 604 0062 FFF7FEFF 		bl	HAL_TIM_Base_Init
 605              	.LVL22:
 251:Src/main.c    ****   HAL_TIM_ConfigClockSource(&htim1, &sClockSourceConfig);
 606              		.loc 1 251 3 view .LVU171
 251:Src/main.c    ****   HAL_TIM_ConfigClockSource(&htim1, &sClockSourceConfig);
 607              		.loc 1 251 34 is_stmt 0 view .LVU172
 608 0066 1296     		str	r6, [sp, #72]
 252:Src/main.c    **** 
 609              		.loc 1 252 3 is_stmt 1 view .LVU173
 610 0068 12A9     		add	r1, sp, #72
 611 006a 2000     		movs	r0, r4
 612 006c FFF7FEFF 		bl	HAL_TIM_ConfigClockSource
 613              	.LVL23:
 254:Src/main.c    ****   HAL_TIM_OC_Init(&htim1);
 614              		.loc 1 254 3 view .LVU174
 615 0070 2000     		movs	r0, r4
 616 0072 FFF7FEFF 		bl	HAL_TIM_PWM_Init
 617              	.LVL24:
 255:Src/main.c    **** 
 618              		.loc 1 255 3 view .LVU175
 619 0076 2000     		movs	r0, r4
 620 0078 FFF7FEFF 		bl	HAL_TIM_OC_Init
 621              	.LVL25:
 257:Src/main.c    ****   sMasterConfig.MasterSlaveMode = TIM_MASTERSLAVEMODE_DISABLE;
 622              		.loc 1 257 3 view .LVU176
 257:Src/main.c    ****   sMasterConfig.MasterSlaveMode = TIM_MASTERSLAVEMODE_DISABLE;
 623              		.loc 1 257 37 is_stmt 0 view .LVU177
 624 007c 1095     		str	r5, [sp, #64]
 258:Src/main.c    ****   HAL_TIMEx_MasterConfigSynchronization(&htim1, &sMasterConfig);
 625              		.loc 1 258 3 is_stmt 1 view .LVU178
 258:Src/main.c    ****   HAL_TIMEx_MasterConfigSynchronization(&htim1, &sMasterConfig);
 626              		.loc 1 258 33 is_stmt 0 view .LVU179
 627 007e 1195     		str	r5, [sp, #68]
 259:Src/main.c    **** 
 628              		.loc 1 259 3 is_stmt 1 view .LVU180
 629 0080 10A9     		add	r1, sp, #64
 630 0082 2000     		movs	r0, r4
 631 0084 FFF7FEFF 		bl	HAL_TIMEx_MasterConfigSynchronization
 632              	.LVL26:
 261:Src/main.c    ****   sConfigOC.Pulse = 50;
 633              		.loc 1 261 3 view .LVU181
 261:Src/main.c    ****   sConfigOC.Pulse = 50;
ARM GAS  /tmp/cc3Ha4nM.s 			page 21


 634              		.loc 1 261 20 is_stmt 0 view .LVU182
 635 0088 6023     		movs	r3, #96
 636 008a 0993     		str	r3, [sp, #36]
 262:Src/main.c    ****   sConfigOC.OCPolarity = TIM_OCPOLARITY_HIGH;
 637              		.loc 1 262 3 is_stmt 1 view .LVU183
 262:Src/main.c    ****   sConfigOC.OCPolarity = TIM_OCPOLARITY_HIGH;
 638              		.loc 1 262 19 is_stmt 0 view .LVU184
 639 008c 2E3B     		subs	r3, r3, #46
 640 008e 0A93     		str	r3, [sp, #40]
 263:Src/main.c    ****   sConfigOC.OCNPolarity = TIM_OCNPOLARITY_HIGH;
 641              		.loc 1 263 3 is_stmt 1 view .LVU185
 263:Src/main.c    ****   sConfigOC.OCNPolarity = TIM_OCNPOLARITY_HIGH;
 642              		.loc 1 263 24 is_stmt 0 view .LVU186
 643 0090 0B95     		str	r5, [sp, #44]
 264:Src/main.c    ****   sConfigOC.OCFastMode = TIM_OCFAST_DISABLE;
 644              		.loc 1 264 3 is_stmt 1 view .LVU187
 264:Src/main.c    ****   sConfigOC.OCFastMode = TIM_OCFAST_DISABLE;
 645              		.loc 1 264 25 is_stmt 0 view .LVU188
 646 0092 0C95     		str	r5, [sp, #48]
 265:Src/main.c    ****   sConfigOC.OCIdleState = TIM_OCIDLESTATE_RESET;
 647              		.loc 1 265 3 is_stmt 1 view .LVU189
 265:Src/main.c    ****   sConfigOC.OCIdleState = TIM_OCIDLESTATE_RESET;
 648              		.loc 1 265 24 is_stmt 0 view .LVU190
 649 0094 0D95     		str	r5, [sp, #52]
 266:Src/main.c    ****   sConfigOC.OCNIdleState = TIM_OCNIDLESTATE_RESET;
 650              		.loc 1 266 3 is_stmt 1 view .LVU191
 266:Src/main.c    ****   sConfigOC.OCNIdleState = TIM_OCNIDLESTATE_RESET;
 651              		.loc 1 266 25 is_stmt 0 view .LVU192
 652 0096 0E95     		str	r5, [sp, #56]
 267:Src/main.c    ****   HAL_TIM_PWM_ConfigChannel(&htim1, &sConfigOC, TIM_CHANNEL_1);
 653              		.loc 1 267 3 is_stmt 1 view .LVU193
 267:Src/main.c    ****   HAL_TIM_PWM_ConfigChannel(&htim1, &sConfigOC, TIM_CHANNEL_1);
 654              		.loc 1 267 26 is_stmt 0 view .LVU194
 655 0098 0F95     		str	r5, [sp, #60]
 268:Src/main.c    **** 
 656              		.loc 1 268 3 is_stmt 1 view .LVU195
 657 009a 0022     		movs	r2, #0
 658 009c 09A9     		add	r1, sp, #36
 659 009e 2000     		movs	r0, r4
 660 00a0 FFF7FEFF 		bl	HAL_TIM_PWM_ConfigChannel
 661              	.LVL27:
 270:Src/main.c    ****   sConfigOC.Pulse = 4090;
 662              		.loc 1 270 3 view .LVU196
 270:Src/main.c    ****   sConfigOC.Pulse = 4090;
 663              		.loc 1 270 20 is_stmt 0 view .LVU197
 664 00a4 7023     		movs	r3, #112
 665 00a6 0993     		str	r3, [sp, #36]
 271:Src/main.c    ****   HAL_TIM_OC_ConfigChannel(&htim1, &sConfigOC, TIM_CHANNEL_4);
 666              		.loc 1 271 3 is_stmt 1 view .LVU198
 271:Src/main.c    ****   HAL_TIM_OC_ConfigChannel(&htim1, &sConfigOC, TIM_CHANNEL_4);
 667              		.loc 1 271 19 is_stmt 0 view .LVU199
 668 00a8 0F4B     		ldr	r3, .L17+12
 669 00aa 0A93     		str	r3, [sp, #40]
 272:Src/main.c    **** 
 670              		.loc 1 272 3 is_stmt 1 view .LVU200
 671 00ac 0C22     		movs	r2, #12
 672 00ae 09A9     		add	r1, sp, #36
ARM GAS  /tmp/cc3Ha4nM.s 			page 22


 673 00b0 2000     		movs	r0, r4
 674 00b2 FFF7FEFF 		bl	HAL_TIM_OC_ConfigChannel
 675              	.LVL28:
 274:Src/main.c    ****   sBreakDeadTimeConfig.OffStateIDLEMode = TIM_OSSI_DISABLE;
 676              		.loc 1 274 3 view .LVU201
 274:Src/main.c    ****   sBreakDeadTimeConfig.OffStateIDLEMode = TIM_OSSI_DISABLE;
 677              		.loc 1 274 40 is_stmt 0 view .LVU202
 678 00b6 0295     		str	r5, [sp, #8]
 275:Src/main.c    ****   sBreakDeadTimeConfig.LockLevel = TIM_LOCKLEVEL_OFF;
 679              		.loc 1 275 3 is_stmt 1 view .LVU203
 275:Src/main.c    ****   sBreakDeadTimeConfig.LockLevel = TIM_LOCKLEVEL_OFF;
 680              		.loc 1 275 41 is_stmt 0 view .LVU204
 681 00b8 0395     		str	r5, [sp, #12]
 276:Src/main.c    ****   sBreakDeadTimeConfig.DeadTime = 0;
 682              		.loc 1 276 3 is_stmt 1 view .LVU205
 276:Src/main.c    ****   sBreakDeadTimeConfig.DeadTime = 0;
 683              		.loc 1 276 34 is_stmt 0 view .LVU206
 684 00ba 0495     		str	r5, [sp, #16]
 277:Src/main.c    ****   sBreakDeadTimeConfig.BreakState = TIM_BREAK_DISABLE;
 685              		.loc 1 277 3 is_stmt 1 view .LVU207
 277:Src/main.c    ****   sBreakDeadTimeConfig.BreakState = TIM_BREAK_DISABLE;
 686              		.loc 1 277 33 is_stmt 0 view .LVU208
 687 00bc 0595     		str	r5, [sp, #20]
 278:Src/main.c    ****   sBreakDeadTimeConfig.BreakPolarity = TIM_BREAKPOLARITY_HIGH;
 688              		.loc 1 278 3 is_stmt 1 view .LVU209
 278:Src/main.c    ****   sBreakDeadTimeConfig.BreakPolarity = TIM_BREAKPOLARITY_HIGH;
 689              		.loc 1 278 35 is_stmt 0 view .LVU210
 690 00be 0695     		str	r5, [sp, #24]
 279:Src/main.c    ****   sBreakDeadTimeConfig.AutomaticOutput = TIM_AUTOMATICOUTPUT_DISABLE;
 691              		.loc 1 279 3 is_stmt 1 view .LVU211
 279:Src/main.c    ****   sBreakDeadTimeConfig.AutomaticOutput = TIM_AUTOMATICOUTPUT_DISABLE;
 692              		.loc 1 279 38 is_stmt 0 view .LVU212
 693 00c0 8023     		movs	r3, #128
 694 00c2 9B01     		lsls	r3, r3, #6
 695 00c4 0793     		str	r3, [sp, #28]
 280:Src/main.c    ****   HAL_TIMEx_ConfigBreakDeadTime(&htim1, &sBreakDeadTimeConfig);
 696              		.loc 1 280 3 is_stmt 1 view .LVU213
 280:Src/main.c    ****   HAL_TIMEx_ConfigBreakDeadTime(&htim1, &sBreakDeadTimeConfig);
 697              		.loc 1 280 40 is_stmt 0 view .LVU214
 698 00c6 0895     		str	r5, [sp, #32]
 281:Src/main.c    **** 
 699              		.loc 1 281 3 is_stmt 1 view .LVU215
 700 00c8 02A9     		add	r1, sp, #8
 701 00ca 2000     		movs	r0, r4
 702 00cc FFF7FEFF 		bl	HAL_TIMEx_ConfigBreakDeadTime
 703              	.LVL29:
 283:Src/main.c    **** }
 704              		.loc 1 283 3 view .LVU216
 705 00d0 2000     		movs	r0, r4
 706 00d2 FFF7FEFF 		bl	HAL_TIM_MspPostInit
 707              	.LVL30:
 284:Src/main.c    **** /*
 708              		.loc 1 284 1 is_stmt 0 view .LVU217
 709 00d6 16B0     		add	sp, sp, #88
 710              		@ sp needed
 711 00d8 70BD     		pop	{r4, r5, r6, pc}
 712              	.L18:
ARM GAS  /tmp/cc3Ha4nM.s 			page 23


 713 00da C046     		.align	2
 714              	.L17:
 715 00dc 00100240 		.word	1073876992
 716 00e0 00000000 		.word	htim1
 717 00e4 002C0140 		.word	1073818624
 718 00e8 FA0F0000 		.word	4090
 719              		.cfi_endproc
 720              	.LFE43:
 722              		.section	.text.MX_USB_PCD_Init,"ax",%progbits
 723              		.align	1
 724              		.syntax unified
 725              		.code	16
 726              		.thumb_func
 727              		.fpu softvfp
 729              	MX_USB_PCD_Init:
 730              	.LFB44:
 318:Src/main.c    **** 
 731              		.loc 1 318 1 is_stmt 1 view -0
 732              		.cfi_startproc
 733              		@ args = 0, pretend = 0, frame = 0
 734              		@ frame_needed = 0, uses_anonymous_args = 0
 735 0000 10B5     		push	{r4, lr}
 736              	.LCFI10:
 737              		.cfi_def_cfa_offset 8
 738              		.cfi_offset 4, -8
 739              		.cfi_offset 14, -4
 320:Src/main.c    ****   hpcd_USB_FS.Init.dev_endpoints = 8;
 740              		.loc 1 320 3 view .LVU219
 320:Src/main.c    ****   hpcd_USB_FS.Init.dev_endpoints = 8;
 741              		.loc 1 320 24 is_stmt 0 view .LVU220
 742 0002 0748     		ldr	r0, .L20
 743 0004 074B     		ldr	r3, .L20+4
 744 0006 0360     		str	r3, [r0]
 321:Src/main.c    ****   hpcd_USB_FS.Init.speed = PCD_SPEED_FULL;
 745              		.loc 1 321 3 is_stmt 1 view .LVU221
 321:Src/main.c    ****   hpcd_USB_FS.Init.speed = PCD_SPEED_FULL;
 746              		.loc 1 321 34 is_stmt 0 view .LVU222
 747 0008 0823     		movs	r3, #8
 748 000a 4360     		str	r3, [r0, #4]
 322:Src/main.c    ****   hpcd_USB_FS.Init.phy_itface = PCD_PHY_EMBEDDED;
 749              		.loc 1 322 3 is_stmt 1 view .LVU223
 322:Src/main.c    ****   hpcd_USB_FS.Init.phy_itface = PCD_PHY_EMBEDDED;
 750              		.loc 1 322 26 is_stmt 0 view .LVU224
 751 000c 063B     		subs	r3, r3, #6
 752 000e 8360     		str	r3, [r0, #8]
 323:Src/main.c    ****   hpcd_USB_FS.Init.low_power_enable = DISABLE;
 753              		.loc 1 323 3 is_stmt 1 view .LVU225
 323:Src/main.c    ****   hpcd_USB_FS.Init.low_power_enable = DISABLE;
 754              		.loc 1 323 31 is_stmt 0 view .LVU226
 755 0010 0361     		str	r3, [r0, #16]
 324:Src/main.c    ****   hpcd_USB_FS.Init.lpm_enable = DISABLE;
 756              		.loc 1 324 3 is_stmt 1 view .LVU227
 324:Src/main.c    ****   hpcd_USB_FS.Init.lpm_enable = DISABLE;
 757              		.loc 1 324 37 is_stmt 0 view .LVU228
 758 0012 0023     		movs	r3, #0
 759 0014 8361     		str	r3, [r0, #24]
 325:Src/main.c    ****   hpcd_USB_FS.Init.battery_charging_enable = DISABLE;
ARM GAS  /tmp/cc3Ha4nM.s 			page 24


 760              		.loc 1 325 3 is_stmt 1 view .LVU229
 325:Src/main.c    ****   hpcd_USB_FS.Init.battery_charging_enable = DISABLE;
 761              		.loc 1 325 31 is_stmt 0 view .LVU230
 762 0016 C361     		str	r3, [r0, #28]
 326:Src/main.c    ****   HAL_PCD_Init(&hpcd_USB_FS);
 763              		.loc 1 326 3 is_stmt 1 view .LVU231
 326:Src/main.c    ****   HAL_PCD_Init(&hpcd_USB_FS);
 764              		.loc 1 326 44 is_stmt 0 view .LVU232
 765 0018 0362     		str	r3, [r0, #32]
 327:Src/main.c    **** }
 766              		.loc 1 327 3 is_stmt 1 view .LVU233
 767 001a FFF7FEFF 		bl	HAL_PCD_Init
 768              	.LVL31:
 328:Src/main.c    **** 
 769              		.loc 1 328 1 is_stmt 0 view .LVU234
 770              		@ sp needed
 771 001e 10BD     		pop	{r4, pc}
 772              	.L21:
 773              		.align	2
 774              	.L20:
 775 0020 00000000 		.word	hpcd_USB_FS
 776 0024 005C0040 		.word	1073765376
 777              		.cfi_endproc
 778              	.LFE44:
 780              		.section	.text.reg,"ax",%progbits
 781              		.align	1
 782              		.global	reg
 783              		.syntax unified
 784              		.code	16
 785              		.thumb_func
 786              		.fpu softvfp
 788              	reg:
 789              	.LFB38:
  93:Src/main.c    ****   index++;
 790              		.loc 1 93 16 is_stmt 1 view -0
 791              		.cfi_startproc
 792              		@ args = 0, pretend = 0, frame = 0
 793              		@ frame_needed = 0, uses_anonymous_args = 0
 794              		@ link register save eliminated.
  94:Src/main.c    **** }
 795              		.loc 1 94 3 view .LVU236
  94:Src/main.c    **** }
 796              		.loc 1 94 8 is_stmt 0 view .LVU237
 797 0000 024A     		ldr	r2, .L23
 798 0002 1378     		ldrb	r3, [r2]
 799 0004 0133     		adds	r3, r3, #1
 800 0006 1370     		strb	r3, [r2]
  95:Src/main.c    **** 
 801              		.loc 1 95 1 view .LVU238
 802              		@ sp needed
 803 0008 7047     		bx	lr
 804              	.L24:
 805 000a C046     		.align	2
 806              	.L23:
 807 000c 00000000 		.word	index
 808              		.cfi_endproc
 809              	.LFE38:
ARM GAS  /tmp/cc3Ha4nM.s 			page 25


 811              		.section	.text.SystemClock_Config,"ax",%progbits
 812              		.align	1
 813              		.global	SystemClock_Config
 814              		.syntax unified
 815              		.code	16
 816              		.thumb_func
 817              		.fpu softvfp
 819              	SystemClock_Config:
 820              	.LFB39:
 121:Src/main.c    ****   RCC_OscInitTypeDef RCC_OscInitStruct = {0};
 821              		.loc 1 121 1 is_stmt 1 view -0
 822              		.cfi_startproc
 823              		@ args = 0, pretend = 0, frame = 96
 824              		@ frame_needed = 0, uses_anonymous_args = 0
 825 0000 10B5     		push	{r4, lr}
 826              	.LCFI11:
 827              		.cfi_def_cfa_offset 8
 828              		.cfi_offset 4, -8
 829              		.cfi_offset 14, -4
 830 0002 98B0     		sub	sp, sp, #96
 831              	.LCFI12:
 832              		.cfi_def_cfa_offset 104
 122:Src/main.c    ****   RCC_ClkInitTypeDef RCC_ClkInitStruct = {0};
 833              		.loc 1 122 3 view .LVU240
 122:Src/main.c    ****   RCC_ClkInitTypeDef RCC_ClkInitStruct = {0};
 834              		.loc 1 122 22 is_stmt 0 view .LVU241
 835 0004 2C22     		movs	r2, #44
 836 0006 0021     		movs	r1, #0
 837 0008 0CA8     		add	r0, sp, #48
 838 000a FFF7FEFF 		bl	memset
 839              	.LVL32:
 123:Src/main.c    ****   RCC_PeriphCLKInitTypeDef PeriphClkInit = {0};
 840              		.loc 1 123 3 is_stmt 1 view .LVU242
 123:Src/main.c    ****   RCC_PeriphCLKInitTypeDef PeriphClkInit = {0};
 841              		.loc 1 123 22 is_stmt 0 view .LVU243
 842 000e 1024     		movs	r4, #16
 843 0010 1022     		movs	r2, #16
 844 0012 0021     		movs	r1, #0
 845 0014 07A8     		add	r0, sp, #28
 846 0016 FFF7FEFF 		bl	memset
 847              	.LVL33:
 124:Src/main.c    **** 
 848              		.loc 1 124 3 is_stmt 1 view .LVU244
 124:Src/main.c    **** 
 849              		.loc 1 124 28 is_stmt 0 view .LVU245
 850 001a 1C22     		movs	r2, #28
 851 001c 0021     		movs	r1, #0
 852 001e 6846     		mov	r0, sp
 853 0020 FFF7FEFF 		bl	memset
 854              	.LVL34:
 126:Src/main.c    ****                               |RCC_OSCILLATORTYPE_HSI48;
 855              		.loc 1 126 3 is_stmt 1 view .LVU246
 126:Src/main.c    ****                               |RCC_OSCILLATORTYPE_HSI48;
 856              		.loc 1 126 36 is_stmt 0 view .LVU247
 857 0024 3223     		movs	r3, #50
 858 0026 0B93     		str	r3, [sp, #44]
 128:Src/main.c    ****   RCC_OscInitStruct.HSI48State = RCC_HSI48_ON;
ARM GAS  /tmp/cc3Ha4nM.s 			page 26


 859              		.loc 1 128 3 is_stmt 1 view .LVU248
 128:Src/main.c    ****   RCC_OscInitStruct.HSI48State = RCC_HSI48_ON;
 860              		.loc 1 128 30 is_stmt 0 view .LVU249
 861 0028 313B     		subs	r3, r3, #49
 862 002a 0E93     		str	r3, [sp, #56]
 129:Src/main.c    ****   RCC_OscInitStruct.HSI14State = RCC_HSI14_ON;
 863              		.loc 1 129 3 is_stmt 1 view .LVU250
 129:Src/main.c    ****   RCC_OscInitStruct.HSI14State = RCC_HSI14_ON;
 864              		.loc 1 129 32 is_stmt 0 view .LVU251
 865 002c 1393     		str	r3, [sp, #76]
 130:Src/main.c    ****   RCC_OscInitStruct.HSICalibrationValue = RCC_HSICALIBRATION_DEFAULT;
 866              		.loc 1 130 3 is_stmt 1 view .LVU252
 130:Src/main.c    ****   RCC_OscInitStruct.HSICalibrationValue = RCC_HSICALIBRATION_DEFAULT;
 867              		.loc 1 130 32 is_stmt 0 view .LVU253
 868 002e 1093     		str	r3, [sp, #64]
 131:Src/main.c    ****   RCC_OscInitStruct.HSI14CalibrationValue = 16;
 869              		.loc 1 131 3 is_stmt 1 view .LVU254
 131:Src/main.c    ****   RCC_OscInitStruct.HSI14CalibrationValue = 16;
 870              		.loc 1 131 41 is_stmt 0 view .LVU255
 871 0030 0F94     		str	r4, [sp, #60]
 132:Src/main.c    ****   RCC_OscInitStruct.PLL.PLLState = RCC_PLL_ON;
 872              		.loc 1 132 3 is_stmt 1 view .LVU256
 132:Src/main.c    ****   RCC_OscInitStruct.PLL.PLLState = RCC_PLL_ON;
 873              		.loc 1 132 43 is_stmt 0 view .LVU257
 874 0032 1194     		str	r4, [sp, #68]
 133:Src/main.c    ****   RCC_OscInitStruct.PLL.PLLSource = RCC_PLLSOURCE_HSI48;
 875              		.loc 1 133 3 is_stmt 1 view .LVU258
 133:Src/main.c    ****   RCC_OscInitStruct.PLL.PLLSource = RCC_PLLSOURCE_HSI48;
 876              		.loc 1 133 34 is_stmt 0 view .LVU259
 877 0034 0E3C     		subs	r4, r4, #14
 878 0036 1494     		str	r4, [sp, #80]
 134:Src/main.c    ****   RCC_OscInitStruct.PLL.PLLMUL = RCC_PLL_MUL2;
 879              		.loc 1 134 3 is_stmt 1 view .LVU260
 134:Src/main.c    ****   RCC_OscInitStruct.PLL.PLLMUL = RCC_PLL_MUL2;
 880              		.loc 1 134 35 is_stmt 0 view .LVU261
 881 0038 C022     		movs	r2, #192
 882 003a 5202     		lsls	r2, r2, #9
 883 003c 1592     		str	r2, [sp, #84]
 135:Src/main.c    ****   RCC_OscInitStruct.PLL.PREDIV = RCC_PREDIV_DIV2;
 884              		.loc 1 135 3 is_stmt 1 view .LVU262
 136:Src/main.c    ****   HAL_RCC_OscConfig(&RCC_OscInitStruct);
 885              		.loc 1 136 3 view .LVU263
 136:Src/main.c    ****   HAL_RCC_OscConfig(&RCC_OscInitStruct);
 886              		.loc 1 136 32 is_stmt 0 view .LVU264
 887 003e 1793     		str	r3, [sp, #92]
 137:Src/main.c    **** 
 888              		.loc 1 137 3 is_stmt 1 view .LVU265
 889 0040 0BA8     		add	r0, sp, #44
 890 0042 FFF7FEFF 		bl	HAL_RCC_OscConfig
 891              	.LVL35:
 139:Src/main.c    ****                               |RCC_CLOCKTYPE_PCLK1;
 892              		.loc 1 139 3 view .LVU266
 139:Src/main.c    ****                               |RCC_CLOCKTYPE_PCLK1;
 893              		.loc 1 139 31 is_stmt 0 view .LVU267
 894 0046 0723     		movs	r3, #7
 895 0048 0793     		str	r3, [sp, #28]
 141:Src/main.c    ****   RCC_ClkInitStruct.AHBCLKDivider = RCC_SYSCLK_DIV1;
ARM GAS  /tmp/cc3Ha4nM.s 			page 27


 896              		.loc 1 141 3 is_stmt 1 view .LVU268
 141:Src/main.c    ****   RCC_ClkInitStruct.AHBCLKDivider = RCC_SYSCLK_DIV1;
 897              		.loc 1 141 34 is_stmt 0 view .LVU269
 898 004a 0894     		str	r4, [sp, #32]
 142:Src/main.c    ****   RCC_ClkInitStruct.APB1CLKDivider = RCC_HCLK_DIV1;
 899              		.loc 1 142 3 is_stmt 1 view .LVU270
 142:Src/main.c    ****   RCC_ClkInitStruct.APB1CLKDivider = RCC_HCLK_DIV1;
 900              		.loc 1 142 35 is_stmt 0 view .LVU271
 901 004c 0024     		movs	r4, #0
 902 004e 0994     		str	r4, [sp, #36]
 143:Src/main.c    **** 
 903              		.loc 1 143 3 is_stmt 1 view .LVU272
 143:Src/main.c    **** 
 904              		.loc 1 143 36 is_stmt 0 view .LVU273
 905 0050 0A94     		str	r4, [sp, #40]
 145:Src/main.c    **** 
 906              		.loc 1 145 3 is_stmt 1 view .LVU274
 907 0052 0121     		movs	r1, #1
 908 0054 07A8     		add	r0, sp, #28
 909 0056 FFF7FEFF 		bl	HAL_RCC_ClockConfig
 910              	.LVL36:
 147:Src/main.c    ****   PeriphClkInit.I2c1ClockSelection = RCC_I2C1CLKSOURCE_HSI;
 911              		.loc 1 147 3 view .LVU275
 147:Src/main.c    ****   PeriphClkInit.I2c1ClockSelection = RCC_I2C1CLKSOURCE_HSI;
 912              		.loc 1 147 38 is_stmt 0 view .LVU276
 913 005a 044B     		ldr	r3, .L26
 914 005c 0093     		str	r3, [sp]
 148:Src/main.c    ****   PeriphClkInit.UsbClockSelection = RCC_USBCLKSOURCE_HSI48;
 915              		.loc 1 148 3 is_stmt 1 view .LVU277
 148:Src/main.c    ****   PeriphClkInit.UsbClockSelection = RCC_USBCLKSOURCE_HSI48;
 916              		.loc 1 148 36 is_stmt 0 view .LVU278
 917 005e 0494     		str	r4, [sp, #16]
 149:Src/main.c    **** 
 918              		.loc 1 149 3 is_stmt 1 view .LVU279
 149:Src/main.c    **** 
 919              		.loc 1 149 35 is_stmt 0 view .LVU280
 920 0060 0694     		str	r4, [sp, #24]
 151:Src/main.c    **** }
 921              		.loc 1 151 3 is_stmt 1 view .LVU281
 922 0062 6846     		mov	r0, sp
 923 0064 FFF7FEFF 		bl	HAL_RCCEx_PeriphCLKConfig
 924              	.LVL37:
 152:Src/main.c    **** 
 925              		.loc 1 152 1 is_stmt 0 view .LVU282
 926 0068 18B0     		add	sp, sp, #96
 927              		@ sp needed
 928 006a 10BD     		pop	{r4, pc}
 929              	.L27:
 930              		.align	2
 931              	.L26:
 932 006c 20000200 		.word	131104
 933              		.cfi_endproc
 934              	.LFE39:
 936              		.global	__aeabi_ui2f
 937              		.global	__aeabi_f2d
 938              		.global	__aeabi_ddiv
 939              		.global	__aeabi_dmul
ARM GAS  /tmp/cc3Ha4nM.s 			page 28


 940              		.global	__aeabi_dsub
 941              		.global	__aeabi_d2f
 942              		.global	__aeabi_i2f
 943              		.global	__aeabi_fsub
 944              		.global	__aeabi_fmul
 945              		.global	__aeabi_fdiv
 946              		.global	__aeabi_fadd
 947              		.global	__aeabi_i2d
 948              		.section	.text.main,"ax",%progbits
 949              		.align	1
 950              		.global	main
 951              		.syntax unified
 952              		.code	16
 953              		.thumb_func
 954              		.fpu softvfp
 956              	main:
 957              	.LFB37:
  60:Src/main.c    **** 
 958              		.loc 1 60 1 is_stmt 1 view -0
 959              		.cfi_startproc
 960              		@ Volatile: function does not return.
 961              		@ args = 0, pretend = 0, frame = 0
 962              		@ frame_needed = 0, uses_anonymous_args = 0
 963 0000 F0B5     		push	{r4, r5, r6, r7, lr}
 964              	.LCFI13:
 965              		.cfi_def_cfa_offset 20
 966              		.cfi_offset 4, -20
 967              		.cfi_offset 5, -16
 968              		.cfi_offset 6, -12
 969              		.cfi_offset 7, -8
 970              		.cfi_offset 14, -4
 971 0002 C646     		mov	lr, r8
 972 0004 00B5     		push	{lr}
 973              	.LCFI14:
 974              		.cfi_def_cfa_offset 24
 975              		.cfi_offset 8, -24
  62:Src/main.c    **** 
 976              		.loc 1 62 3 view .LVU284
 977 0006 FFF7FEFF 		bl	HAL_Init
 978              	.LVL38:
  64:Src/main.c    **** 
 979              		.loc 1 64 3 view .LVU285
 980 000a FFF7FEFF 		bl	SystemClock_Config
 981              	.LVL39:
  66:Src/main.c    ****   MX_DMA_Init();
 982              		.loc 1 66 3 view .LVU286
 983 000e FFF7FEFF 		bl	MX_GPIO_Init
 984              	.LVL40:
  67:Src/main.c    ****   MX_ADC_Init();
 985              		.loc 1 67 3 view .LVU287
 986 0012 FFF7FEFF 		bl	MX_DMA_Init
 987              	.LVL41:
  68:Src/main.c    ****   MX_I2C1_Init();
 988              		.loc 1 68 3 view .LVU288
 989 0016 FFF7FEFF 		bl	MX_ADC_Init
 990              	.LVL42:
  69:Src/main.c    ****   MX_I2C2_Init();
ARM GAS  /tmp/cc3Ha4nM.s 			page 29


 991              		.loc 1 69 3 view .LVU289
 992 001a FFF7FEFF 		bl	MX_I2C1_Init
 993              	.LVL43:
  70:Src/main.c    ****   MX_TIM1_Init();
 994              		.loc 1 70 3 view .LVU290
 995 001e FFF7FEFF 		bl	MX_I2C2_Init
 996              	.LVL44:
  71:Src/main.c    ****   MX_USB_PCD_Init();
 997              		.loc 1 71 3 view .LVU291
 998 0022 FFF7FEFF 		bl	MX_TIM1_Init
 999              	.LVL45:
  72:Src/main.c    **** 
 1000              		.loc 1 72 3 view .LVU292
 1001 0026 FFF7FEFF 		bl	MX_USB_PCD_Init
 1002              	.LVL46:
  76:Src/main.c    ****   HAL_TIM_OC_Start(&htim1, TIM_CHANNEL_4);
 1003              		.loc 1 76 3 view .LVU293
 1004 002a 364C     		ldr	r4, .L30
 1005 002c 0021     		movs	r1, #0
 1006 002e 2000     		movs	r0, r4
 1007 0030 FFF7FEFF 		bl	HAL_TIM_PWM_Start
 1008              	.LVL47:
  77:Src/main.c    **** 
 1009              		.loc 1 77 3 view .LVU294
 1010 0034 0C21     		movs	r1, #12
 1011 0036 2000     		movs	r0, r4
 1012 0038 FFF7FEFF 		bl	HAL_TIM_OC_Start
 1013              	.LVL48:
  79:Src/main.c    **** 
 1014              		.loc 1 79 3 view .LVU295
 1015 003c 0422     		movs	r2, #4
 1016 003e 3249     		ldr	r1, .L30+4
 1017 0040 3248     		ldr	r0, .L30+8
 1018 0042 FFF7FEFF 		bl	HAL_ADC_Start_DMA
 1019              	.LVL49:
 1020              	.L29:
  81:Src/main.c    ****   {
 1021              		.loc 1 81 3 discriminator 1 view .LVU296
  83:Src/main.c    ****     s.button[0] = HAL_GPIO_ReadPin(GPIOA,B1_Pin);
 1022              		.loc 1 83 5 discriminator 1 view .LVU297
 1023 0046 5A20     		movs	r0, #90
 1024 0048 FFF7FEFF 		bl	HAL_Delay
 1025              	.LVL50:
  84:Src/main.c    ****     s.button[1] = HAL_GPIO_ReadPin(GPIOA,B2_Pin);
 1026              		.loc 1 84 5 discriminator 1 view .LVU298
  84:Src/main.c    ****     s.button[1] = HAL_GPIO_ReadPin(GPIOA,B2_Pin);
 1027              		.loc 1 84 19 is_stmt 0 discriminator 1 view .LVU299
 1028 004c 9025     		movs	r5, #144
 1029 004e ED05     		lsls	r5, r5, #23
 1030 0050 0821     		movs	r1, #8
 1031 0052 2800     		movs	r0, r5
 1032 0054 FFF7FEFF 		bl	HAL_GPIO_ReadPin
 1033              	.LVL51:
  84:Src/main.c    ****     s.button[1] = HAL_GPIO_ReadPin(GPIOA,B2_Pin);
 1034              		.loc 1 84 17 discriminator 1 view .LVU300
 1035 0058 2D4C     		ldr	r4, .L30+12
 1036 005a 2074     		strb	r0, [r4, #16]
ARM GAS  /tmp/cc3Ha4nM.s 			page 30


  85:Src/main.c    ****     s.tref = ((((float)ADC_raw[3]/4095.0)*3.3)-0.5)/0.01;
 1037              		.loc 1 85 5 is_stmt 1 discriminator 1 view .LVU301
  85:Src/main.c    ****     s.tref = ((((float)ADC_raw[3]/4095.0)*3.3)-0.5)/0.01;
 1038              		.loc 1 85 19 is_stmt 0 discriminator 1 view .LVU302
 1039 005c 1021     		movs	r1, #16
 1040 005e 2800     		movs	r0, r5
 1041 0060 FFF7FEFF 		bl	HAL_GPIO_ReadPin
 1042              	.LVL52:
  85:Src/main.c    ****     s.tref = ((((float)ADC_raw[3]/4095.0)*3.3)-0.5)/0.01;
 1043              		.loc 1 85 17 discriminator 1 view .LVU303
 1044 0064 6074     		strb	r0, [r4, #17]
  86:Src/main.c    ****     s.ttip = ((ADC_raw[1]-tipcal.offset)*tipcal.coefficient)/1000+s.tref;
 1045              		.loc 1 86 5 is_stmt 1 discriminator 1 view .LVU304
  86:Src/main.c    ****     s.ttip = ((ADC_raw[1]-tipcal.offset)*tipcal.coefficient)/1000+s.tref;
 1046              		.loc 1 86 31 is_stmt 0 discriminator 1 view .LVU305
 1047 0066 284D     		ldr	r5, .L30+4
 1048 0068 E888     		ldrh	r0, [r5, #6]
  86:Src/main.c    ****     s.ttip = ((ADC_raw[1]-tipcal.offset)*tipcal.coefficient)/1000+s.tref;
 1049              		.loc 1 86 17 discriminator 1 view .LVU306
 1050 006a FFF7FEFF 		bl	__aeabi_ui2f
 1051              	.LVL53:
 1052 006e FFF7FEFF 		bl	__aeabi_f2d
 1053              	.LVL54:
  86:Src/main.c    ****     s.ttip = ((ADC_raw[1]-tipcal.offset)*tipcal.coefficient)/1000+s.tref;
 1054              		.loc 1 86 34 discriminator 1 view .LVU307
 1055 0072 0022     		movs	r2, #0
 1056 0074 274B     		ldr	r3, .L30+16
 1057 0076 FFF7FEFF 		bl	__aeabi_ddiv
 1058              	.LVL55:
  86:Src/main.c    ****     s.ttip = ((ADC_raw[1]-tipcal.offset)*tipcal.coefficient)/1000+s.tref;
 1059              		.loc 1 86 42 discriminator 1 view .LVU308
 1060 007a 274A     		ldr	r2, .L30+20
 1061 007c 274B     		ldr	r3, .L30+24
 1062 007e FFF7FEFF 		bl	__aeabi_dmul
 1063              	.LVL56:
  86:Src/main.c    ****     s.ttip = ((ADC_raw[1]-tipcal.offset)*tipcal.coefficient)/1000+s.tref;
 1064              		.loc 1 86 47 discriminator 1 view .LVU309
 1065 0082 0022     		movs	r2, #0
 1066 0084 264B     		ldr	r3, .L30+28
 1067 0086 FFF7FEFF 		bl	__aeabi_dsub
 1068              	.LVL57:
  86:Src/main.c    ****     s.ttip = ((ADC_raw[1]-tipcal.offset)*tipcal.coefficient)/1000+s.tref;
 1069              		.loc 1 86 52 discriminator 1 view .LVU310
 1070 008a 264A     		ldr	r2, .L30+32
 1071 008c 264B     		ldr	r3, .L30+36
 1072 008e FFF7FEFF 		bl	__aeabi_ddiv
 1073              	.LVL58:
 1074 0092 FFF7FEFF 		bl	__aeabi_d2f
 1075              	.LVL59:
 1076 0096 061C     		adds	r6, r0, #0
  86:Src/main.c    ****     s.ttip = ((ADC_raw[1]-tipcal.offset)*tipcal.coefficient)/1000+s.tref;
 1077              		.loc 1 86 12 discriminator 1 view .LVU311
 1078 0098 E060     		str	r0, [r4, #12]
  87:Src/main.c    ****     s.uin = ((ADC_raw[2]/4095.0)*3.3)*6.6;
 1079              		.loc 1 87 5 is_stmt 1 discriminator 1 view .LVU312
  87:Src/main.c    ****     s.uin = ((ADC_raw[2]/4095.0)*3.3)*6.6;
 1080              		.loc 1 87 23 is_stmt 0 discriminator 1 view .LVU313
ARM GAS  /tmp/cc3Ha4nM.s 			page 31


 1081 009a 6888     		ldrh	r0, [r5, #2]
  87:Src/main.c    ****     s.uin = ((ADC_raw[2]/4095.0)*3.3)*6.6;
 1082              		.loc 1 87 33 discriminator 1 view .LVU314
 1083 009c 234F     		ldr	r7, .L30+40
 1084 009e 3B68     		ldr	r3, [r7]
 1085 00a0 9846     		mov	r8, r3
  87:Src/main.c    ****     s.uin = ((ADC_raw[2]/4095.0)*3.3)*6.6;
 1086              		.loc 1 87 26 discriminator 1 view .LVU315
 1087 00a2 FFF7FEFF 		bl	__aeabi_i2f
 1088              	.LVL60:
 1089 00a6 4146     		mov	r1, r8
 1090 00a8 FFF7FEFF 		bl	__aeabi_fsub
 1091              	.LVL61:
  87:Src/main.c    ****     s.uin = ((ADC_raw[2]/4095.0)*3.3)*6.6;
 1092              		.loc 1 87 48 discriminator 1 view .LVU316
 1093 00ac 7968     		ldr	r1, [r7, #4]
  87:Src/main.c    ****     s.uin = ((ADC_raw[2]/4095.0)*3.3)*6.6;
 1094              		.loc 1 87 41 discriminator 1 view .LVU317
 1095 00ae FFF7FEFF 		bl	__aeabi_fmul
 1096              	.LVL62:
  87:Src/main.c    ****     s.uin = ((ADC_raw[2]/4095.0)*3.3)*6.6;
 1097              		.loc 1 87 61 discriminator 1 view .LVU318
 1098 00b2 1F49     		ldr	r1, .L30+44
 1099 00b4 FFF7FEFF 		bl	__aeabi_fdiv
 1100              	.LVL63:
 1101 00b8 011C     		adds	r1, r0, #0
  87:Src/main.c    ****     s.uin = ((ADC_raw[2]/4095.0)*3.3)*6.6;
 1102              		.loc 1 87 66 discriminator 1 view .LVU319
 1103 00ba 301C     		adds	r0, r6, #0
 1104 00bc FFF7FEFF 		bl	__aeabi_fadd
 1105              	.LVL64:
  87:Src/main.c    ****     s.uin = ((ADC_raw[2]/4095.0)*3.3)*6.6;
 1106              		.loc 1 87 12 discriminator 1 view .LVU320
 1107 00c0 2060     		str	r0, [r4]
  88:Src/main.c    ****     s.iin = ((ADC_raw[0]/4095.0)*3.3);
 1108              		.loc 1 88 5 is_stmt 1 discriminator 1 view .LVU321
  88:Src/main.c    ****     s.iin = ((ADC_raw[0]/4095.0)*3.3);
 1109              		.loc 1 88 22 is_stmt 0 discriminator 1 view .LVU322
 1110 00c2 A888     		ldrh	r0, [r5, #4]
  88:Src/main.c    ****     s.iin = ((ADC_raw[0]/4095.0)*3.3);
 1111              		.loc 1 88 25 discriminator 1 view .LVU323
 1112 00c4 FFF7FEFF 		bl	__aeabi_i2d
 1113              	.LVL65:
 1114 00c8 0022     		movs	r2, #0
 1115 00ca 124B     		ldr	r3, .L30+16
 1116 00cc FFF7FEFF 		bl	__aeabi_ddiv
 1117              	.LVL66:
  88:Src/main.c    ****     s.iin = ((ADC_raw[0]/4095.0)*3.3);
 1118              		.loc 1 88 33 discriminator 1 view .LVU324
 1119 00d0 114A     		ldr	r2, .L30+20
 1120 00d2 124B     		ldr	r3, .L30+24
 1121 00d4 FFF7FEFF 		bl	__aeabi_dmul
 1122              	.LVL67:
  88:Src/main.c    ****     s.iin = ((ADC_raw[0]/4095.0)*3.3);
 1123              		.loc 1 88 38 discriminator 1 view .LVU325
 1124 00d8 0F4A     		ldr	r2, .L30+20
 1125 00da 164B     		ldr	r3, .L30+48
ARM GAS  /tmp/cc3Ha4nM.s 			page 32


 1126 00dc FFF7FEFF 		bl	__aeabi_dmul
 1127              	.LVL68:
 1128 00e0 FFF7FEFF 		bl	__aeabi_d2f
 1129              	.LVL69:
  88:Src/main.c    ****     s.iin = ((ADC_raw[0]/4095.0)*3.3);
 1130              		.loc 1 88 11 discriminator 1 view .LVU326
 1131 00e4 6060     		str	r0, [r4, #4]
  89:Src/main.c    ****   }
 1132              		.loc 1 89 5 is_stmt 1 discriminator 1 view .LVU327
  89:Src/main.c    ****   }
 1133              		.loc 1 89 22 is_stmt 0 discriminator 1 view .LVU328
 1134 00e6 2888     		ldrh	r0, [r5]
  89:Src/main.c    ****   }
 1135              		.loc 1 89 25 discriminator 1 view .LVU329
 1136 00e8 FFF7FEFF 		bl	__aeabi_i2d
 1137              	.LVL70:
 1138 00ec 0022     		movs	r2, #0
 1139 00ee 094B     		ldr	r3, .L30+16
 1140 00f0 FFF7FEFF 		bl	__aeabi_ddiv
 1141              	.LVL71:
  89:Src/main.c    ****   }
 1142              		.loc 1 89 33 discriminator 1 view .LVU330
 1143 00f4 084A     		ldr	r2, .L30+20
 1144 00f6 094B     		ldr	r3, .L30+24
 1145 00f8 FFF7FEFF 		bl	__aeabi_dmul
 1146              	.LVL72:
 1147 00fc FFF7FEFF 		bl	__aeabi_d2f
 1148              	.LVL73:
  89:Src/main.c    ****   }
 1149              		.loc 1 89 11 discriminator 1 view .LVU331
 1150 0100 A060     		str	r0, [r4, #8]
 1151 0102 A0E7     		b	.L29
 1152              	.L31:
 1153              		.align	2
 1154              	.L30:
 1155 0104 00000000 		.word	htim1
 1156 0108 00000000 		.word	.LANCHOR0
 1157 010c 00000000 		.word	hadc
 1158 0110 00000000 		.word	s
 1159 0114 00FEAF40 		.word	1085275648
 1160 0118 66666666 		.word	1717986918
 1161 011c 66660A40 		.word	1074423398
 1162 0120 0000E03F 		.word	1071644672
 1163 0124 7B14AE47 		.word	1202590843
 1164 0128 E17A843F 		.word	1065646817
 1165 012c 00000000 		.word	.LANCHOR1
 1166 0130 00007A44 		.word	1148846080
 1167 0134 66661A40 		.word	1075471974
 1168              		.cfi_endproc
 1169              	.LFE37:
 1171              		.section	.text.Error_Handler,"ax",%progbits
 1172              		.align	1
 1173              		.global	Error_Handler
 1174              		.syntax unified
 1175              		.code	16
 1176              		.thumb_func
 1177              		.fpu softvfp
ARM GAS  /tmp/cc3Ha4nM.s 			page 33


 1179              	Error_Handler:
 1180              	.LFB47:
 363:Src/main.c    **** 
 364:Src/main.c    **** void Error_Handler(void)
 365:Src/main.c    **** {
 1181              		.loc 1 365 1 is_stmt 1 view -0
 1182              		.cfi_startproc
 1183              		@ args = 0, pretend = 0, frame = 0
 1184              		@ frame_needed = 0, uses_anonymous_args = 0
 1185              		@ link register save eliminated.
 366:Src/main.c    **** 
 367:Src/main.c    **** }
 1186              		.loc 1 367 1 view .LVU333
 1187              		@ sp needed
 1188 0000 7047     		bx	lr
 1189              		.cfi_endproc
 1190              	.LFE47:
 1192              		.comm	index,1,1
 1193              		.global	tipcal
 1194              		.comm	s,20,4
 1195              		.comm	hpcd_USB_FS,544,4
 1196              		.comm	htim1,64,4
 1197              		.comm	hi2c2,76,4
 1198              		.comm	hi2c1,76,4
 1199              		.comm	hdma_adc,68,4
 1200              		.comm	hadc,76,4
 1201              		.section	.bss.ADC_raw,"aw",%nobits
 1202              		.align	2
 1203              		.set	.LANCHOR0,. + 0
 1206              	ADC_raw:
 1207 0000 00000000 		.space	8
 1207      00000000 
 1208              		.section	.data.tipcal,"aw"
 1209              		.align	2
 1210              		.set	.LANCHOR1,. + 0
 1213              	tipcal:
 1214 0000 00005CC2 		.word	3260809216
 1215 0004 00000543 		.word	1124401152
 1216              		.text
 1217              	.Letext0:
 1218              		.file 2 "/usr/arm-none-eabi/include/machine/_default_types.h"
 1219              		.file 3 "/usr/arm-none-eabi/include/sys/_stdint.h"
 1220              		.file 4 "Drivers/CMSIS/Device/ST/STM32F0xx/Include/system_stm32f0xx.h"
 1221              		.file 5 "Drivers/CMSIS/Device/ST/STM32F0xx/Include/stm32f072xb.h"
 1222              		.file 6 "Drivers/CMSIS/Device/ST/STM32F0xx/Include/stm32f0xx.h"
 1223              		.file 7 "/usr/arm-none-eabi/include/sys/lock.h"
 1224              		.file 8 "/usr/arm-none-eabi/include/sys/_types.h"
 1225              		.file 9 "/usr/lib/gcc/arm-none-eabi/9.1.0/include/stddef.h"
 1226              		.file 10 "/usr/arm-none-eabi/include/sys/reent.h"
 1227              		.file 11 "Drivers/STM32F0xx_HAL_Driver/Inc/stm32f0xx_hal_def.h"
 1228              		.file 12 "Drivers/STM32F0xx_HAL_Driver/Inc/stm32f0xx_hal_rcc.h"
 1229              		.file 13 "Drivers/STM32F0xx_HAL_Driver/Inc/stm32f0xx_hal_rcc_ex.h"
 1230              		.file 14 "Drivers/STM32F0xx_HAL_Driver/Inc/stm32f0xx_hal_gpio.h"
 1231              		.file 15 "Drivers/STM32F0xx_HAL_Driver/Inc/stm32f0xx_hal_dma.h"
 1232              		.file 16 "Drivers/STM32F0xx_HAL_Driver/Inc/stm32f0xx_hal_adc.h"
 1233              		.file 17 "Drivers/STM32F0xx_HAL_Driver/Inc/stm32f0xx_hal_i2c.h"
 1234              		.file 18 "Drivers/STM32F0xx_HAL_Driver/Inc/stm32f0xx_hal_pcd.h"
ARM GAS  /tmp/cc3Ha4nM.s 			page 34


 1235              		.file 19 "Drivers/STM32F0xx_HAL_Driver/Inc/stm32f0xx_hal_tim.h"
 1236              		.file 20 "Drivers/STM32F0xx_HAL_Driver/Inc/stm32f0xx_hal_tim_ex.h"
 1237              		.file 21 "Drivers/STM32F0xx_HAL_Driver/Inc/stm32f0xx_hal_cortex.h"
 1238              		.file 22 "Inc/main.h"
 1239              		.file 23 "Drivers/STM32F0xx_HAL_Driver/Inc/stm32f0xx_hal_i2c_ex.h"
 1240              		.file 24 "Drivers/STM32F0xx_HAL_Driver/Inc/stm32f0xx_hal.h"
 1241              		.file 25 "<built-in>"
ARM GAS  /tmp/cc3Ha4nM.s 			page 35


DEFINED SYMBOLS
                            *ABS*:0000000000000000 main.c
     /tmp/cc3Ha4nM.s:16     .text.MX_GPIO_Init:0000000000000000 $t
     /tmp/cc3Ha4nM.s:23     .text.MX_GPIO_Init:0000000000000000 MX_GPIO_Init
     /tmp/cc3Ha4nM.s:116    .text.MX_GPIO_Init:0000000000000060 $d
     /tmp/cc3Ha4nM.s:122    .text.MX_DMA_Init:0000000000000000 $t
     /tmp/cc3Ha4nM.s:128    .text.MX_DMA_Init:0000000000000000 MX_DMA_Init
     /tmp/cc3Ha4nM.s:174    .text.MX_DMA_Init:000000000000002c $d
     /tmp/cc3Ha4nM.s:179    .text.MX_ADC_Init:0000000000000000 $t
     /tmp/cc3Ha4nM.s:185    .text.MX_ADC_Init:0000000000000000 MX_ADC_Init
     /tmp/cc3Ha4nM.s:346    .text.MX_ADC_Init:00000000000000a0 $d
                            *COM*:000000000000004c hadc
     /tmp/cc3Ha4nM.s:353    .text.MX_I2C1_Init:0000000000000000 $t
     /tmp/cc3Ha4nM.s:359    .text.MX_I2C1_Init:0000000000000000 MX_I2C1_Init
     /tmp/cc3Ha4nM.s:422    .text.MX_I2C1_Init:0000000000000038 $d
                            *COM*:000000000000004c hi2c1
     /tmp/cc3Ha4nM.s:429    .text.MX_I2C2_Init:0000000000000000 $t
     /tmp/cc3Ha4nM.s:435    .text.MX_I2C2_Init:0000000000000000 MX_I2C2_Init
     /tmp/cc3Ha4nM.s:498    .text.MX_I2C2_Init:0000000000000038 $d
                            *COM*:000000000000004c hi2c2
     /tmp/cc3Ha4nM.s:505    .text.MX_TIM1_Init:0000000000000000 $t
     /tmp/cc3Ha4nM.s:511    .text.MX_TIM1_Init:0000000000000000 MX_TIM1_Init
     /tmp/cc3Ha4nM.s:715    .text.MX_TIM1_Init:00000000000000dc $d
                            *COM*:0000000000000040 htim1
     /tmp/cc3Ha4nM.s:723    .text.MX_USB_PCD_Init:0000000000000000 $t
     /tmp/cc3Ha4nM.s:729    .text.MX_USB_PCD_Init:0000000000000000 MX_USB_PCD_Init
     /tmp/cc3Ha4nM.s:775    .text.MX_USB_PCD_Init:0000000000000020 $d
                            *COM*:0000000000000220 hpcd_USB_FS
     /tmp/cc3Ha4nM.s:781    .text.reg:0000000000000000 $t
     /tmp/cc3Ha4nM.s:788    .text.reg:0000000000000000 reg
     /tmp/cc3Ha4nM.s:807    .text.reg:000000000000000c $d
                            *COM*:0000000000000001 index
     /tmp/cc3Ha4nM.s:812    .text.SystemClock_Config:0000000000000000 $t
     /tmp/cc3Ha4nM.s:819    .text.SystemClock_Config:0000000000000000 SystemClock_Config
     /tmp/cc3Ha4nM.s:932    .text.SystemClock_Config:000000000000006c $d
     /tmp/cc3Ha4nM.s:949    .text.main:0000000000000000 $t
     /tmp/cc3Ha4nM.s:956    .text.main:0000000000000000 main
     /tmp/cc3Ha4nM.s:1155   .text.main:0000000000000104 $d
                            *COM*:0000000000000014 s
     /tmp/cc3Ha4nM.s:1172   .text.Error_Handler:0000000000000000 $t
     /tmp/cc3Ha4nM.s:1179   .text.Error_Handler:0000000000000000 Error_Handler
     /tmp/cc3Ha4nM.s:1213   .data.tipcal:0000000000000000 tipcal
                            *COM*:0000000000000044 hdma_adc
     /tmp/cc3Ha4nM.s:1202   .bss.ADC_raw:0000000000000000 $d
     /tmp/cc3Ha4nM.s:1206   .bss.ADC_raw:0000000000000000 ADC_raw
     /tmp/cc3Ha4nM.s:1209   .data.tipcal:0000000000000000 $d

UNDEFINED SYMBOLS
memset
HAL_GPIO_Init
HAL_NVIC_SetPriority
HAL_NVIC_EnableIRQ
HAL_ADC_Init
HAL_ADC_ConfigChannel
HAL_ADC_MspInit
HAL_I2C_Init
HAL_I2CEx_ConfigAnalogFilter
ARM GAS  /tmp/cc3Ha4nM.s 			page 36


HAL_I2CEx_ConfigDigitalFilter
HAL_TIM_Base_Init
HAL_TIM_ConfigClockSource
HAL_TIM_PWM_Init
HAL_TIM_OC_Init
HAL_TIMEx_MasterConfigSynchronization
HAL_TIM_PWM_ConfigChannel
HAL_TIM_OC_ConfigChannel
HAL_TIMEx_ConfigBreakDeadTime
HAL_TIM_MspPostInit
HAL_PCD_Init
HAL_RCC_OscConfig
HAL_RCC_ClockConfig
HAL_RCCEx_PeriphCLKConfig
__aeabi_ui2f
__aeabi_f2d
__aeabi_ddiv
__aeabi_dmul
__aeabi_dsub
__aeabi_d2f
__aeabi_i2f
__aeabi_fsub
__aeabi_fmul
__aeabi_fdiv
__aeabi_fadd
__aeabi_i2d
HAL_Init
HAL_TIM_PWM_Start
HAL_TIM_OC_Start
HAL_ADC_Start_DMA
HAL_Delay
HAL_GPIO_ReadPin
