ARM GAS  /tmp/ccD6GDME.s 			page 1


   1              		.cpu cortex-m0
   2              		.eabi_attribute 20, 1
   3              		.eabi_attribute 21, 1
   4              		.eabi_attribute 23, 3
   5              		.eabi_attribute 24, 1
   6              		.eabi_attribute 25, 1
   7              		.eabi_attribute 26, 1
   8              		.eabi_attribute 30, 1
   9              		.eabi_attribute 34, 0
  10              		.eabi_attribute 18, 4
  11              		.file	"stm32f0xx_hal_rcc.c"
  12              		.text
  13              	.Ltext0:
  14              		.cfi_sections	.debug_frame
  15              		.section	.text.HAL_RCC_DeInit,"ax",%progbits
  16              		.align	1
  17              		.global	HAL_RCC_DeInit
  18              		.arch armv6s-m
  19              		.syntax unified
  20              		.code	16
  21              		.thumb_func
  22              		.fpu softvfp
  24              	HAL_RCC_DeInit:
  25              	.LFB37:
  26              		.file 1 "Drivers/STM32F0xx_HAL_Driver/Src/stm32f0xx_hal_rcc.c"
   1:Drivers/STM32F0xx_HAL_Driver/Src/stm32f0xx_hal_rcc.c **** /**
   2:Drivers/STM32F0xx_HAL_Driver/Src/stm32f0xx_hal_rcc.c ****   ******************************************************************************
   3:Drivers/STM32F0xx_HAL_Driver/Src/stm32f0xx_hal_rcc.c ****   * @file    stm32f0xx_hal_rcc.c
   4:Drivers/STM32F0xx_HAL_Driver/Src/stm32f0xx_hal_rcc.c ****   * @author  MCD Application Team
   5:Drivers/STM32F0xx_HAL_Driver/Src/stm32f0xx_hal_rcc.c ****   * @brief   RCC HAL module driver.
   6:Drivers/STM32F0xx_HAL_Driver/Src/stm32f0xx_hal_rcc.c ****   *          This file provides firmware functions to manage the following 
   7:Drivers/STM32F0xx_HAL_Driver/Src/stm32f0xx_hal_rcc.c ****   *          functionalities of the Reset and Clock Control (RCC) peripheral:
   8:Drivers/STM32F0xx_HAL_Driver/Src/stm32f0xx_hal_rcc.c ****   *           + Initialization and de-initialization functions
   9:Drivers/STM32F0xx_HAL_Driver/Src/stm32f0xx_hal_rcc.c ****   *           + Peripheral Control functions
  10:Drivers/STM32F0xx_HAL_Driver/Src/stm32f0xx_hal_rcc.c ****   *       
  11:Drivers/STM32F0xx_HAL_Driver/Src/stm32f0xx_hal_rcc.c ****   @verbatim                
  12:Drivers/STM32F0xx_HAL_Driver/Src/stm32f0xx_hal_rcc.c ****   ==============================================================================
  13:Drivers/STM32F0xx_HAL_Driver/Src/stm32f0xx_hal_rcc.c ****                       ##### RCC specific features #####
  14:Drivers/STM32F0xx_HAL_Driver/Src/stm32f0xx_hal_rcc.c ****   ==============================================================================
  15:Drivers/STM32F0xx_HAL_Driver/Src/stm32f0xx_hal_rcc.c ****     [..]  
  16:Drivers/STM32F0xx_HAL_Driver/Src/stm32f0xx_hal_rcc.c ****       After reset the device is running from Internal High Speed oscillator
  17:Drivers/STM32F0xx_HAL_Driver/Src/stm32f0xx_hal_rcc.c ****       (HSI 8MHz) with Flash 0 wait state, Flash prefetch buffer is enabled, 
  18:Drivers/STM32F0xx_HAL_Driver/Src/stm32f0xx_hal_rcc.c ****       and all peripherals are off except internal SRAM, Flash and JTAG.
  19:Drivers/STM32F0xx_HAL_Driver/Src/stm32f0xx_hal_rcc.c ****       (+) There is no prescaler on High speed (AHB) and Low speed (APB) buses;
  20:Drivers/STM32F0xx_HAL_Driver/Src/stm32f0xx_hal_rcc.c ****           all peripherals mapped on these buses are running at HSI speed.
  21:Drivers/STM32F0xx_HAL_Driver/Src/stm32f0xx_hal_rcc.c ****       (+) The clock for all peripherals is switched off, except the SRAM and FLASH.
  22:Drivers/STM32F0xx_HAL_Driver/Src/stm32f0xx_hal_rcc.c ****       (+) All GPIOs are in input floating state, except the JTAG pins which
  23:Drivers/STM32F0xx_HAL_Driver/Src/stm32f0xx_hal_rcc.c ****           are assigned to be used for debug purpose.
  24:Drivers/STM32F0xx_HAL_Driver/Src/stm32f0xx_hal_rcc.c ****     [..] Once the device started from reset, the user application has to:
  25:Drivers/STM32F0xx_HAL_Driver/Src/stm32f0xx_hal_rcc.c ****       (+) Configure the clock source to be used to drive the System clock
  26:Drivers/STM32F0xx_HAL_Driver/Src/stm32f0xx_hal_rcc.c ****           (if the application needs higher frequency/performance)
  27:Drivers/STM32F0xx_HAL_Driver/Src/stm32f0xx_hal_rcc.c ****       (+) Configure the System clock frequency and Flash settings  
  28:Drivers/STM32F0xx_HAL_Driver/Src/stm32f0xx_hal_rcc.c ****       (+) Configure the AHB and APB buses prescalers
  29:Drivers/STM32F0xx_HAL_Driver/Src/stm32f0xx_hal_rcc.c ****       (+) Enable the clock for the peripheral(s) to be used
  30:Drivers/STM32F0xx_HAL_Driver/Src/stm32f0xx_hal_rcc.c ****       (+) Configure the clock source(s) for peripherals whose clocks are not
  31:Drivers/STM32F0xx_HAL_Driver/Src/stm32f0xx_hal_rcc.c ****           derived from the System clock (RTC, ADC, I2C, USART, TIM, USB FS, etc..)
  32:Drivers/STM32F0xx_HAL_Driver/Src/stm32f0xx_hal_rcc.c **** 
ARM GAS  /tmp/ccD6GDME.s 			page 2


  33:Drivers/STM32F0xx_HAL_Driver/Src/stm32f0xx_hal_rcc.c ****                       ##### RCC Limitations #####
  34:Drivers/STM32F0xx_HAL_Driver/Src/stm32f0xx_hal_rcc.c ****   ==============================================================================
  35:Drivers/STM32F0xx_HAL_Driver/Src/stm32f0xx_hal_rcc.c ****     [..]  
  36:Drivers/STM32F0xx_HAL_Driver/Src/stm32f0xx_hal_rcc.c ****       A delay between an RCC peripheral clock enable and the effective peripheral 
  37:Drivers/STM32F0xx_HAL_Driver/Src/stm32f0xx_hal_rcc.c ****       enabling should be taken into account in order to manage the peripheral read/write 
  38:Drivers/STM32F0xx_HAL_Driver/Src/stm32f0xx_hal_rcc.c ****       from/to registers.
  39:Drivers/STM32F0xx_HAL_Driver/Src/stm32f0xx_hal_rcc.c ****       (+) This delay depends on the peripheral mapping.
  40:Drivers/STM32F0xx_HAL_Driver/Src/stm32f0xx_hal_rcc.c ****         (++) AHB & APB peripherals, 1 dummy read is necessary
  41:Drivers/STM32F0xx_HAL_Driver/Src/stm32f0xx_hal_rcc.c **** 
  42:Drivers/STM32F0xx_HAL_Driver/Src/stm32f0xx_hal_rcc.c ****     [..]  
  43:Drivers/STM32F0xx_HAL_Driver/Src/stm32f0xx_hal_rcc.c ****       Workarounds:
  44:Drivers/STM32F0xx_HAL_Driver/Src/stm32f0xx_hal_rcc.c ****       (#) For AHB & APB peripherals, a dummy read to the peripheral register has been
  45:Drivers/STM32F0xx_HAL_Driver/Src/stm32f0xx_hal_rcc.c ****           inserted in each __HAL_RCC_PPP_CLK_ENABLE() macro.
  46:Drivers/STM32F0xx_HAL_Driver/Src/stm32f0xx_hal_rcc.c **** 
  47:Drivers/STM32F0xx_HAL_Driver/Src/stm32f0xx_hal_rcc.c ****   @endverbatim
  48:Drivers/STM32F0xx_HAL_Driver/Src/stm32f0xx_hal_rcc.c ****   ******************************************************************************
  49:Drivers/STM32F0xx_HAL_Driver/Src/stm32f0xx_hal_rcc.c ****   * @attention
  50:Drivers/STM32F0xx_HAL_Driver/Src/stm32f0xx_hal_rcc.c ****   *
  51:Drivers/STM32F0xx_HAL_Driver/Src/stm32f0xx_hal_rcc.c ****   * <h2><center>&copy; COPYRIGHT(c) 2016 STMicroelectronics</center></h2>
  52:Drivers/STM32F0xx_HAL_Driver/Src/stm32f0xx_hal_rcc.c ****   *
  53:Drivers/STM32F0xx_HAL_Driver/Src/stm32f0xx_hal_rcc.c ****   * Redistribution and use in source and binary forms, with or without modification,
  54:Drivers/STM32F0xx_HAL_Driver/Src/stm32f0xx_hal_rcc.c ****   * are permitted provided that the following conditions are met:
  55:Drivers/STM32F0xx_HAL_Driver/Src/stm32f0xx_hal_rcc.c ****   *   1. Redistributions of source code must retain the above copyright notice,
  56:Drivers/STM32F0xx_HAL_Driver/Src/stm32f0xx_hal_rcc.c ****   *      this list of conditions and the following disclaimer.
  57:Drivers/STM32F0xx_HAL_Driver/Src/stm32f0xx_hal_rcc.c ****   *   2. Redistributions in binary form must reproduce the above copyright notice,
  58:Drivers/STM32F0xx_HAL_Driver/Src/stm32f0xx_hal_rcc.c ****   *      this list of conditions and the following disclaimer in the documentation
  59:Drivers/STM32F0xx_HAL_Driver/Src/stm32f0xx_hal_rcc.c ****   *      and/or other materials provided with the distribution.
  60:Drivers/STM32F0xx_HAL_Driver/Src/stm32f0xx_hal_rcc.c ****   *   3. Neither the name of STMicroelectronics nor the names of its contributors
  61:Drivers/STM32F0xx_HAL_Driver/Src/stm32f0xx_hal_rcc.c ****   *      may be used to endorse or promote products derived from this software
  62:Drivers/STM32F0xx_HAL_Driver/Src/stm32f0xx_hal_rcc.c ****   *      without specific prior written permission.
  63:Drivers/STM32F0xx_HAL_Driver/Src/stm32f0xx_hal_rcc.c ****   *
  64:Drivers/STM32F0xx_HAL_Driver/Src/stm32f0xx_hal_rcc.c ****   * THIS SOFTWARE IS PROVIDED BY THE COPYRIGHT HOLDERS AND CONTRIBUTORS "AS IS"
  65:Drivers/STM32F0xx_HAL_Driver/Src/stm32f0xx_hal_rcc.c ****   * AND ANY EXPRESS OR IMPLIED WARRANTIES, INCLUDING, BUT NOT LIMITED TO, THE
  66:Drivers/STM32F0xx_HAL_Driver/Src/stm32f0xx_hal_rcc.c ****   * IMPLIED WARRANTIES OF MERCHANTABILITY AND FITNESS FOR A PARTICULAR PURPOSE ARE
  67:Drivers/STM32F0xx_HAL_Driver/Src/stm32f0xx_hal_rcc.c ****   * DISCLAIMED. IN NO EVENT SHALL THE COPYRIGHT HOLDER OR CONTRIBUTORS BE LIABLE
  68:Drivers/STM32F0xx_HAL_Driver/Src/stm32f0xx_hal_rcc.c ****   * FOR ANY DIRECT, INDIRECT, INCIDENTAL, SPECIAL, EXEMPLARY, OR CONSEQUENTIAL
  69:Drivers/STM32F0xx_HAL_Driver/Src/stm32f0xx_hal_rcc.c ****   * DAMAGES (INCLUDING, BUT NOT LIMITED TO, PROCUREMENT OF SUBSTITUTE GOODS OR
  70:Drivers/STM32F0xx_HAL_Driver/Src/stm32f0xx_hal_rcc.c ****   * SERVICES; LOSS OF USE, DATA, OR PROFITS; OR BUSINESS INTERRUPTION) HOWEVER
  71:Drivers/STM32F0xx_HAL_Driver/Src/stm32f0xx_hal_rcc.c ****   * CAUSED AND ON ANY THEORY OF LIABILITY, WHETHER IN CONTRACT, STRICT LIABILITY,
  72:Drivers/STM32F0xx_HAL_Driver/Src/stm32f0xx_hal_rcc.c ****   * OR TORT (INCLUDING NEGLIGENCE OR OTHERWISE) ARISING IN ANY WAY OUT OF THE USE
  73:Drivers/STM32F0xx_HAL_Driver/Src/stm32f0xx_hal_rcc.c ****   * OF THIS SOFTWARE, EVEN IF ADVISED OF THE POSSIBILITY OF SUCH DAMAGE.
  74:Drivers/STM32F0xx_HAL_Driver/Src/stm32f0xx_hal_rcc.c ****   *
  75:Drivers/STM32F0xx_HAL_Driver/Src/stm32f0xx_hal_rcc.c ****   ******************************************************************************  
  76:Drivers/STM32F0xx_HAL_Driver/Src/stm32f0xx_hal_rcc.c **** */
  77:Drivers/STM32F0xx_HAL_Driver/Src/stm32f0xx_hal_rcc.c **** 
  78:Drivers/STM32F0xx_HAL_Driver/Src/stm32f0xx_hal_rcc.c **** /* Includes ------------------------------------------------------------------*/
  79:Drivers/STM32F0xx_HAL_Driver/Src/stm32f0xx_hal_rcc.c **** #include "stm32f0xx_hal.h"
  80:Drivers/STM32F0xx_HAL_Driver/Src/stm32f0xx_hal_rcc.c **** 
  81:Drivers/STM32F0xx_HAL_Driver/Src/stm32f0xx_hal_rcc.c **** /** @addtogroup STM32F0xx_HAL_Driver
  82:Drivers/STM32F0xx_HAL_Driver/Src/stm32f0xx_hal_rcc.c ****   * @{
  83:Drivers/STM32F0xx_HAL_Driver/Src/stm32f0xx_hal_rcc.c ****   */
  84:Drivers/STM32F0xx_HAL_Driver/Src/stm32f0xx_hal_rcc.c **** 
  85:Drivers/STM32F0xx_HAL_Driver/Src/stm32f0xx_hal_rcc.c **** /** @defgroup RCC RCC
  86:Drivers/STM32F0xx_HAL_Driver/Src/stm32f0xx_hal_rcc.c **** * @brief RCC HAL module driver
  87:Drivers/STM32F0xx_HAL_Driver/Src/stm32f0xx_hal_rcc.c ****   * @{
  88:Drivers/STM32F0xx_HAL_Driver/Src/stm32f0xx_hal_rcc.c ****   */
  89:Drivers/STM32F0xx_HAL_Driver/Src/stm32f0xx_hal_rcc.c **** 
ARM GAS  /tmp/ccD6GDME.s 			page 3


  90:Drivers/STM32F0xx_HAL_Driver/Src/stm32f0xx_hal_rcc.c **** #ifdef HAL_RCC_MODULE_ENABLED
  91:Drivers/STM32F0xx_HAL_Driver/Src/stm32f0xx_hal_rcc.c **** 
  92:Drivers/STM32F0xx_HAL_Driver/Src/stm32f0xx_hal_rcc.c **** /* Private typedef -----------------------------------------------------------*/
  93:Drivers/STM32F0xx_HAL_Driver/Src/stm32f0xx_hal_rcc.c **** /* Private define ------------------------------------------------------------*/
  94:Drivers/STM32F0xx_HAL_Driver/Src/stm32f0xx_hal_rcc.c **** /** @defgroup RCC_Private_Constants RCC Private Constants
  95:Drivers/STM32F0xx_HAL_Driver/Src/stm32f0xx_hal_rcc.c ****  * @{
  96:Drivers/STM32F0xx_HAL_Driver/Src/stm32f0xx_hal_rcc.c ****  */
  97:Drivers/STM32F0xx_HAL_Driver/Src/stm32f0xx_hal_rcc.c **** /**
  98:Drivers/STM32F0xx_HAL_Driver/Src/stm32f0xx_hal_rcc.c ****   * @}
  99:Drivers/STM32F0xx_HAL_Driver/Src/stm32f0xx_hal_rcc.c ****   */
 100:Drivers/STM32F0xx_HAL_Driver/Src/stm32f0xx_hal_rcc.c **** /* Private macro -------------------------------------------------------------*/
 101:Drivers/STM32F0xx_HAL_Driver/Src/stm32f0xx_hal_rcc.c **** /** @defgroup RCC_Private_Macros RCC Private Macros
 102:Drivers/STM32F0xx_HAL_Driver/Src/stm32f0xx_hal_rcc.c ****   * @{
 103:Drivers/STM32F0xx_HAL_Driver/Src/stm32f0xx_hal_rcc.c ****   */
 104:Drivers/STM32F0xx_HAL_Driver/Src/stm32f0xx_hal_rcc.c **** 
 105:Drivers/STM32F0xx_HAL_Driver/Src/stm32f0xx_hal_rcc.c **** #define MCO1_CLK_ENABLE()     __HAL_RCC_GPIOA_CLK_ENABLE()
 106:Drivers/STM32F0xx_HAL_Driver/Src/stm32f0xx_hal_rcc.c **** #define MCO1_GPIO_PORT        GPIOA
 107:Drivers/STM32F0xx_HAL_Driver/Src/stm32f0xx_hal_rcc.c **** #define MCO1_PIN              GPIO_PIN_8
 108:Drivers/STM32F0xx_HAL_Driver/Src/stm32f0xx_hal_rcc.c **** 
 109:Drivers/STM32F0xx_HAL_Driver/Src/stm32f0xx_hal_rcc.c **** /**
 110:Drivers/STM32F0xx_HAL_Driver/Src/stm32f0xx_hal_rcc.c ****   * @}
 111:Drivers/STM32F0xx_HAL_Driver/Src/stm32f0xx_hal_rcc.c ****   */
 112:Drivers/STM32F0xx_HAL_Driver/Src/stm32f0xx_hal_rcc.c **** 
 113:Drivers/STM32F0xx_HAL_Driver/Src/stm32f0xx_hal_rcc.c **** /* Private variables ---------------------------------------------------------*/
 114:Drivers/STM32F0xx_HAL_Driver/Src/stm32f0xx_hal_rcc.c **** /** @defgroup RCC_Private_Variables RCC Private Variables
 115:Drivers/STM32F0xx_HAL_Driver/Src/stm32f0xx_hal_rcc.c ****   * @{
 116:Drivers/STM32F0xx_HAL_Driver/Src/stm32f0xx_hal_rcc.c ****   */
 117:Drivers/STM32F0xx_HAL_Driver/Src/stm32f0xx_hal_rcc.c **** /**
 118:Drivers/STM32F0xx_HAL_Driver/Src/stm32f0xx_hal_rcc.c ****   * @}
 119:Drivers/STM32F0xx_HAL_Driver/Src/stm32f0xx_hal_rcc.c ****   */
 120:Drivers/STM32F0xx_HAL_Driver/Src/stm32f0xx_hal_rcc.c **** 
 121:Drivers/STM32F0xx_HAL_Driver/Src/stm32f0xx_hal_rcc.c **** /* Private function prototypes -----------------------------------------------*/
 122:Drivers/STM32F0xx_HAL_Driver/Src/stm32f0xx_hal_rcc.c **** /* Exported functions ---------------------------------------------------------*/
 123:Drivers/STM32F0xx_HAL_Driver/Src/stm32f0xx_hal_rcc.c **** 
 124:Drivers/STM32F0xx_HAL_Driver/Src/stm32f0xx_hal_rcc.c **** /** @defgroup RCC_Exported_Functions RCC Exported Functions
 125:Drivers/STM32F0xx_HAL_Driver/Src/stm32f0xx_hal_rcc.c ****   * @{
 126:Drivers/STM32F0xx_HAL_Driver/Src/stm32f0xx_hal_rcc.c ****   */
 127:Drivers/STM32F0xx_HAL_Driver/Src/stm32f0xx_hal_rcc.c **** 
 128:Drivers/STM32F0xx_HAL_Driver/Src/stm32f0xx_hal_rcc.c **** /** @defgroup RCC_Exported_Functions_Group1 Initialization and de-initialization functions 
 129:Drivers/STM32F0xx_HAL_Driver/Src/stm32f0xx_hal_rcc.c ****   *  @brief    Initialization and Configuration functions 
 130:Drivers/STM32F0xx_HAL_Driver/Src/stm32f0xx_hal_rcc.c ****   *
 131:Drivers/STM32F0xx_HAL_Driver/Src/stm32f0xx_hal_rcc.c ****   @verbatim    
 132:Drivers/STM32F0xx_HAL_Driver/Src/stm32f0xx_hal_rcc.c ****   ===============================================================================
 133:Drivers/STM32F0xx_HAL_Driver/Src/stm32f0xx_hal_rcc.c ****            ##### Initialization and de-initialization functions #####
 134:Drivers/STM32F0xx_HAL_Driver/Src/stm32f0xx_hal_rcc.c ****   ===============================================================================
 135:Drivers/STM32F0xx_HAL_Driver/Src/stm32f0xx_hal_rcc.c ****     [..]
 136:Drivers/STM32F0xx_HAL_Driver/Src/stm32f0xx_hal_rcc.c ****       This section provides functions allowing to configure the internal/external oscillators
 137:Drivers/STM32F0xx_HAL_Driver/Src/stm32f0xx_hal_rcc.c ****       (HSE, HSI, HSI14, HSI48, LSE, LSI, PLL, CSS and MCO) and the System buses clocks (SYSCLK, 
 138:Drivers/STM32F0xx_HAL_Driver/Src/stm32f0xx_hal_rcc.c ****       AHB and APB1).
 139:Drivers/STM32F0xx_HAL_Driver/Src/stm32f0xx_hal_rcc.c **** 
 140:Drivers/STM32F0xx_HAL_Driver/Src/stm32f0xx_hal_rcc.c ****     [..] Internal/external clock and PLL configuration
 141:Drivers/STM32F0xx_HAL_Driver/Src/stm32f0xx_hal_rcc.c ****       (#) HSI (high-speed internal), 8 MHz factory-trimmed RC used directly or through
 142:Drivers/STM32F0xx_HAL_Driver/Src/stm32f0xx_hal_rcc.c ****           the PLL as System clock source.
 143:Drivers/STM32F0xx_HAL_Driver/Src/stm32f0xx_hal_rcc.c ****           The HSI clock can be used also to clock the USART and I2C peripherals.
 144:Drivers/STM32F0xx_HAL_Driver/Src/stm32f0xx_hal_rcc.c **** 
 145:Drivers/STM32F0xx_HAL_Driver/Src/stm32f0xx_hal_rcc.c ****       (#) HSI14 (high-speed internal), 14 MHz factory-trimmed RC used directly to clock 
 146:Drivers/STM32F0xx_HAL_Driver/Src/stm32f0xx_hal_rcc.c ****           the ADC peripheral.
ARM GAS  /tmp/ccD6GDME.s 			page 4


 147:Drivers/STM32F0xx_HAL_Driver/Src/stm32f0xx_hal_rcc.c **** 
 148:Drivers/STM32F0xx_HAL_Driver/Src/stm32f0xx_hal_rcc.c ****       (#) LSI (low-speed internal), ~40 KHz low consumption RC used as IWDG and/or RTC
 149:Drivers/STM32F0xx_HAL_Driver/Src/stm32f0xx_hal_rcc.c ****           clock source.
 150:Drivers/STM32F0xx_HAL_Driver/Src/stm32f0xx_hal_rcc.c **** 
 151:Drivers/STM32F0xx_HAL_Driver/Src/stm32f0xx_hal_rcc.c ****       (#) HSE (high-speed external), 4 to 32 MHz crystal oscillator used directly or
 152:Drivers/STM32F0xx_HAL_Driver/Src/stm32f0xx_hal_rcc.c ****           through the PLL as System clock source. Can be used also as RTC clock source.
 153:Drivers/STM32F0xx_HAL_Driver/Src/stm32f0xx_hal_rcc.c **** 
 154:Drivers/STM32F0xx_HAL_Driver/Src/stm32f0xx_hal_rcc.c ****       (#) LSE (low-speed external), 32 KHz oscillator used as RTC clock source.   
 155:Drivers/STM32F0xx_HAL_Driver/Src/stm32f0xx_hal_rcc.c **** 
 156:Drivers/STM32F0xx_HAL_Driver/Src/stm32f0xx_hal_rcc.c ****       (#) PLL (clocked by HSI, HSI48 or HSE), featuring different output clocks:
 157:Drivers/STM32F0xx_HAL_Driver/Src/stm32f0xx_hal_rcc.c ****        (++) The first output is used to generate the high speed system clock (up to 48 MHz)
 158:Drivers/STM32F0xx_HAL_Driver/Src/stm32f0xx_hal_rcc.c ****        (++) The second output is used to generate the clock for the USB FS (48 MHz)
 159:Drivers/STM32F0xx_HAL_Driver/Src/stm32f0xx_hal_rcc.c ****        (++) The third output may be used to generate the clock for the TIM, I2C and USART 
 160:Drivers/STM32F0xx_HAL_Driver/Src/stm32f0xx_hal_rcc.c ****             peripherals (up to 48 MHz)
 161:Drivers/STM32F0xx_HAL_Driver/Src/stm32f0xx_hal_rcc.c **** 
 162:Drivers/STM32F0xx_HAL_Driver/Src/stm32f0xx_hal_rcc.c ****       (#) CSS (Clock security system), once enable using the macro __HAL_RCC_CSS_ENABLE()
 163:Drivers/STM32F0xx_HAL_Driver/Src/stm32f0xx_hal_rcc.c ****           and if a HSE clock failure occurs(HSE used directly or through PLL as System 
 164:Drivers/STM32F0xx_HAL_Driver/Src/stm32f0xx_hal_rcc.c ****           clock source), the System clocks automatically switched to HSI and an interrupt
 165:Drivers/STM32F0xx_HAL_Driver/Src/stm32f0xx_hal_rcc.c ****           is generated if enabled. The interrupt is linked to the Cortex-M0 NMI 
 166:Drivers/STM32F0xx_HAL_Driver/Src/stm32f0xx_hal_rcc.c ****           (Non-Maskable Interrupt) exception vector.   
 167:Drivers/STM32F0xx_HAL_Driver/Src/stm32f0xx_hal_rcc.c **** 
 168:Drivers/STM32F0xx_HAL_Driver/Src/stm32f0xx_hal_rcc.c ****       (#) MCO (microcontroller clock output), used to output SYSCLK, HSI, HSE, LSI, LSE or PLL
 169:Drivers/STM32F0xx_HAL_Driver/Src/stm32f0xx_hal_rcc.c ****           clock (divided by 2) output on pin (such as PA8 pin).
 170:Drivers/STM32F0xx_HAL_Driver/Src/stm32f0xx_hal_rcc.c **** 
 171:Drivers/STM32F0xx_HAL_Driver/Src/stm32f0xx_hal_rcc.c ****     [..] System, AHB and APB buses clocks configuration
 172:Drivers/STM32F0xx_HAL_Driver/Src/stm32f0xx_hal_rcc.c ****       (#) Several clock sources can be used to drive the System clock (SYSCLK): HSI,
 173:Drivers/STM32F0xx_HAL_Driver/Src/stm32f0xx_hal_rcc.c ****           HSE and PLL.
 174:Drivers/STM32F0xx_HAL_Driver/Src/stm32f0xx_hal_rcc.c ****           The AHB clock (HCLK) is derived from System clock through configurable
 175:Drivers/STM32F0xx_HAL_Driver/Src/stm32f0xx_hal_rcc.c ****           prescaler and used to clock the CPU, memory and peripherals mapped
 176:Drivers/STM32F0xx_HAL_Driver/Src/stm32f0xx_hal_rcc.c ****           on AHB bus (DMA, GPIO...). APB1 (PCLK1) clock is derived
 177:Drivers/STM32F0xx_HAL_Driver/Src/stm32f0xx_hal_rcc.c ****           from AHB clock through configurable prescalers and used to clock
 178:Drivers/STM32F0xx_HAL_Driver/Src/stm32f0xx_hal_rcc.c ****           the peripherals mapped on these buses. You can use
 179:Drivers/STM32F0xx_HAL_Driver/Src/stm32f0xx_hal_rcc.c ****           "@ref HAL_RCC_GetSysClockFreq()" function to retrieve the frequencies of these clocks.
 180:Drivers/STM32F0xx_HAL_Driver/Src/stm32f0xx_hal_rcc.c **** 
 181:Drivers/STM32F0xx_HAL_Driver/Src/stm32f0xx_hal_rcc.c ****       (#) All the peripheral clocks are derived from the System clock (SYSCLK) except:
 182:Drivers/STM32F0xx_HAL_Driver/Src/stm32f0xx_hal_rcc.c ****         (++) The FLASH program/erase clock  which is always HSI 8MHz clock.
 183:Drivers/STM32F0xx_HAL_Driver/Src/stm32f0xx_hal_rcc.c ****         (++) The USB 48 MHz clock which is derived from the PLL VCO clock.
 184:Drivers/STM32F0xx_HAL_Driver/Src/stm32f0xx_hal_rcc.c ****         (++) The USART clock which can be derived as well from HSI 8MHz, LSI or LSE.
 185:Drivers/STM32F0xx_HAL_Driver/Src/stm32f0xx_hal_rcc.c ****         (++) The I2C clock which can be derived as well from HSI 8MHz clock.
 186:Drivers/STM32F0xx_HAL_Driver/Src/stm32f0xx_hal_rcc.c ****         (++) The ADC clock which is derived from PLL output.
 187:Drivers/STM32F0xx_HAL_Driver/Src/stm32f0xx_hal_rcc.c ****         (++) The RTC clock which is derived from the LSE, LSI or 1 MHz HSE_RTC
 188:Drivers/STM32F0xx_HAL_Driver/Src/stm32f0xx_hal_rcc.c ****              (HSE divided by a programmable prescaler). The System clock (SYSCLK)
 189:Drivers/STM32F0xx_HAL_Driver/Src/stm32f0xx_hal_rcc.c ****              frequency must be higher or equal to the RTC clock frequency.
 190:Drivers/STM32F0xx_HAL_Driver/Src/stm32f0xx_hal_rcc.c ****         (++) IWDG clock which is always the LSI clock.
 191:Drivers/STM32F0xx_HAL_Driver/Src/stm32f0xx_hal_rcc.c **** 
 192:Drivers/STM32F0xx_HAL_Driver/Src/stm32f0xx_hal_rcc.c ****       (#) For the STM32F0xx devices, the maximum frequency of the SYSCLK, HCLK and PCLK1 is 48 MHz,
 193:Drivers/STM32F0xx_HAL_Driver/Src/stm32f0xx_hal_rcc.c ****           Depending on the SYSCLK frequency, the flash latency should be adapted accordingly.
 194:Drivers/STM32F0xx_HAL_Driver/Src/stm32f0xx_hal_rcc.c **** 
 195:Drivers/STM32F0xx_HAL_Driver/Src/stm32f0xx_hal_rcc.c ****       (#) After reset, the System clock source is the HSI (8 MHz) with 0 WS and
 196:Drivers/STM32F0xx_HAL_Driver/Src/stm32f0xx_hal_rcc.c ****           prefetch is disabled.
 197:Drivers/STM32F0xx_HAL_Driver/Src/stm32f0xx_hal_rcc.c ****   @endverbatim
 198:Drivers/STM32F0xx_HAL_Driver/Src/stm32f0xx_hal_rcc.c ****   * @{
 199:Drivers/STM32F0xx_HAL_Driver/Src/stm32f0xx_hal_rcc.c ****   */
 200:Drivers/STM32F0xx_HAL_Driver/Src/stm32f0xx_hal_rcc.c ****   
 201:Drivers/STM32F0xx_HAL_Driver/Src/stm32f0xx_hal_rcc.c **** /*
 202:Drivers/STM32F0xx_HAL_Driver/Src/stm32f0xx_hal_rcc.c ****   Additional consideration on the SYSCLK based on Latency settings:
 203:Drivers/STM32F0xx_HAL_Driver/Src/stm32f0xx_hal_rcc.c ****           +-----------------------------------------------+
ARM GAS  /tmp/ccD6GDME.s 			page 5


 204:Drivers/STM32F0xx_HAL_Driver/Src/stm32f0xx_hal_rcc.c ****           | Latency       | SYSCLK clock frequency (MHz)  |
 205:Drivers/STM32F0xx_HAL_Driver/Src/stm32f0xx_hal_rcc.c ****           |---------------|-------------------------------|
 206:Drivers/STM32F0xx_HAL_Driver/Src/stm32f0xx_hal_rcc.c ****           |0WS(1CPU cycle)|       0 < SYSCLK <= 24        |
 207:Drivers/STM32F0xx_HAL_Driver/Src/stm32f0xx_hal_rcc.c ****           |---------------|-------------------------------|
 208:Drivers/STM32F0xx_HAL_Driver/Src/stm32f0xx_hal_rcc.c ****           |1WS(2CPU cycle)|      24 < SYSCLK <= 48        |
 209:Drivers/STM32F0xx_HAL_Driver/Src/stm32f0xx_hal_rcc.c ****           +-----------------------------------------------+
 210:Drivers/STM32F0xx_HAL_Driver/Src/stm32f0xx_hal_rcc.c ****   */
 211:Drivers/STM32F0xx_HAL_Driver/Src/stm32f0xx_hal_rcc.c **** 
 212:Drivers/STM32F0xx_HAL_Driver/Src/stm32f0xx_hal_rcc.c **** /**
 213:Drivers/STM32F0xx_HAL_Driver/Src/stm32f0xx_hal_rcc.c ****   * @brief  Resets the RCC clock configuration to the default reset state.
 214:Drivers/STM32F0xx_HAL_Driver/Src/stm32f0xx_hal_rcc.c ****   * @note   The default reset state of the clock configuration is given below:
 215:Drivers/STM32F0xx_HAL_Driver/Src/stm32f0xx_hal_rcc.c ****   *            - HSI ON and used as system clock source
 216:Drivers/STM32F0xx_HAL_Driver/Src/stm32f0xx_hal_rcc.c ****   *            - HSE and PLL OFF
 217:Drivers/STM32F0xx_HAL_Driver/Src/stm32f0xx_hal_rcc.c ****   *            - AHB, APB1 prescaler set to 1.
 218:Drivers/STM32F0xx_HAL_Driver/Src/stm32f0xx_hal_rcc.c ****   *            - CSS and MCO1 OFF
 219:Drivers/STM32F0xx_HAL_Driver/Src/stm32f0xx_hal_rcc.c ****   *            - All interrupts disabled
 220:Drivers/STM32F0xx_HAL_Driver/Src/stm32f0xx_hal_rcc.c ****   * @note   This function does not modify the configuration of the
 221:Drivers/STM32F0xx_HAL_Driver/Src/stm32f0xx_hal_rcc.c ****   *            - Peripheral clocks
 222:Drivers/STM32F0xx_HAL_Driver/Src/stm32f0xx_hal_rcc.c ****   *            - LSI, LSE and RTC clocks
 223:Drivers/STM32F0xx_HAL_Driver/Src/stm32f0xx_hal_rcc.c ****   * @retval None
 224:Drivers/STM32F0xx_HAL_Driver/Src/stm32f0xx_hal_rcc.c ****   */
 225:Drivers/STM32F0xx_HAL_Driver/Src/stm32f0xx_hal_rcc.c **** void HAL_RCC_DeInit(void)
 226:Drivers/STM32F0xx_HAL_Driver/Src/stm32f0xx_hal_rcc.c **** {
  27              		.loc 1 226 1 view -0
  28              		.cfi_startproc
  29              		@ args = 0, pretend = 0, frame = 0
  30              		@ frame_needed = 0, uses_anonymous_args = 0
  31              		@ link register save eliminated.
 227:Drivers/STM32F0xx_HAL_Driver/Src/stm32f0xx_hal_rcc.c ****   /* Set HSION bit, HSITRIM[4:0] bits to the reset value*/
 228:Drivers/STM32F0xx_HAL_Driver/Src/stm32f0xx_hal_rcc.c ****   SET_BIT(RCC->CR, RCC_CR_HSION | RCC_CR_HSITRIM_4); 
  32              		.loc 1 228 3 view .LVU1
  33 0000 0C4B     		ldr	r3, .L2
  34 0002 1A68     		ldr	r2, [r3]
  35 0004 8121     		movs	r1, #129
  36 0006 0A43     		orrs	r2, r1
  37 0008 1A60     		str	r2, [r3]
 229:Drivers/STM32F0xx_HAL_Driver/Src/stm32f0xx_hal_rcc.c **** 
 230:Drivers/STM32F0xx_HAL_Driver/Src/stm32f0xx_hal_rcc.c ****   /* Reset SW[1:0], HPRE[3:0], PPRE[2:0] and MCOSEL[2:0] bits */
 231:Drivers/STM32F0xx_HAL_Driver/Src/stm32f0xx_hal_rcc.c ****   CLEAR_BIT(RCC->CFGR, RCC_CFGR_SW | RCC_CFGR_HPRE | RCC_CFGR_PPRE | RCC_CFGR_MCO);
  38              		.loc 1 231 3 view .LVU2
  39 000a 5A68     		ldr	r2, [r3, #4]
  40 000c 0A49     		ldr	r1, .L2+4
  41 000e 0A40     		ands	r2, r1
  42 0010 5A60     		str	r2, [r3, #4]
 232:Drivers/STM32F0xx_HAL_Driver/Src/stm32f0xx_hal_rcc.c **** 
 233:Drivers/STM32F0xx_HAL_Driver/Src/stm32f0xx_hal_rcc.c ****   /* Reset HSEON, CSSON, PLLON bits */
 234:Drivers/STM32F0xx_HAL_Driver/Src/stm32f0xx_hal_rcc.c ****   CLEAR_BIT(RCC->CR, RCC_CR_PLLON | RCC_CR_CSSON | RCC_CR_HSEON);
  43              		.loc 1 234 3 view .LVU3
  44 0012 1A68     		ldr	r2, [r3]
  45 0014 0949     		ldr	r1, .L2+8
  46 0016 0A40     		ands	r2, r1
  47 0018 1A60     		str	r2, [r3]
 235:Drivers/STM32F0xx_HAL_Driver/Src/stm32f0xx_hal_rcc.c ****   
 236:Drivers/STM32F0xx_HAL_Driver/Src/stm32f0xx_hal_rcc.c ****   /* Reset HSEBYP bit */
 237:Drivers/STM32F0xx_HAL_Driver/Src/stm32f0xx_hal_rcc.c ****   CLEAR_BIT(RCC->CR, RCC_CR_HSEBYP);
  48              		.loc 1 237 3 view .LVU4
  49 001a 1A68     		ldr	r2, [r3]
ARM GAS  /tmp/ccD6GDME.s 			page 6


  50 001c 0849     		ldr	r1, .L2+12
  51 001e 0A40     		ands	r2, r1
  52 0020 1A60     		str	r2, [r3]
 238:Drivers/STM32F0xx_HAL_Driver/Src/stm32f0xx_hal_rcc.c **** 
 239:Drivers/STM32F0xx_HAL_Driver/Src/stm32f0xx_hal_rcc.c ****   /* Reset CFGR register */
 240:Drivers/STM32F0xx_HAL_Driver/Src/stm32f0xx_hal_rcc.c ****   CLEAR_REG(RCC->CFGR);
  53              		.loc 1 240 3 view .LVU5
  54 0022 0022     		movs	r2, #0
  55 0024 5A60     		str	r2, [r3, #4]
 241:Drivers/STM32F0xx_HAL_Driver/Src/stm32f0xx_hal_rcc.c ****   
 242:Drivers/STM32F0xx_HAL_Driver/Src/stm32f0xx_hal_rcc.c ****   /* Reset CFGR2 register */
 243:Drivers/STM32F0xx_HAL_Driver/Src/stm32f0xx_hal_rcc.c ****   CLEAR_REG(RCC->CFGR2);
  56              		.loc 1 243 3 view .LVU6
  57 0026 DA62     		str	r2, [r3, #44]
 244:Drivers/STM32F0xx_HAL_Driver/Src/stm32f0xx_hal_rcc.c ****   
 245:Drivers/STM32F0xx_HAL_Driver/Src/stm32f0xx_hal_rcc.c ****   /* Reset CFGR3 register */
 246:Drivers/STM32F0xx_HAL_Driver/Src/stm32f0xx_hal_rcc.c ****   CLEAR_REG(RCC->CFGR3);
  58              		.loc 1 246 3 view .LVU7
  59 0028 1A63     		str	r2, [r3, #48]
 247:Drivers/STM32F0xx_HAL_Driver/Src/stm32f0xx_hal_rcc.c ****   
 248:Drivers/STM32F0xx_HAL_Driver/Src/stm32f0xx_hal_rcc.c ****   /* Disable all interrupts */
 249:Drivers/STM32F0xx_HAL_Driver/Src/stm32f0xx_hal_rcc.c ****   CLEAR_REG(RCC->CIR);
  60              		.loc 1 249 3 view .LVU8
  61 002a 9A60     		str	r2, [r3, #8]
 250:Drivers/STM32F0xx_HAL_Driver/Src/stm32f0xx_hal_rcc.c **** 
 251:Drivers/STM32F0xx_HAL_Driver/Src/stm32f0xx_hal_rcc.c ****   /* Update the SystemCoreClock global variable */
 252:Drivers/STM32F0xx_HAL_Driver/Src/stm32f0xx_hal_rcc.c ****   SystemCoreClock = HSI_VALUE;
  62              		.loc 1 252 3 view .LVU9
  63              		.loc 1 252 19 is_stmt 0 view .LVU10
  64 002c 054B     		ldr	r3, .L2+16
  65 002e 064A     		ldr	r2, .L2+20
  66 0030 1A60     		str	r2, [r3]
 253:Drivers/STM32F0xx_HAL_Driver/Src/stm32f0xx_hal_rcc.c **** }
  67              		.loc 1 253 1 view .LVU11
  68              		@ sp needed
  69 0032 7047     		bx	lr
  70              	.L3:
  71              		.align	2
  72              	.L2:
  73 0034 00100240 		.word	1073876992
  74 0038 0CF8FFF0 		.word	-251660276
  75 003c FFFFF6FE 		.word	-17367041
  76 0040 FFFFFBFF 		.word	-262145
  77 0044 00000000 		.word	SystemCoreClock
  78 0048 00127A00 		.word	8000000
  79              		.cfi_endproc
  80              	.LFE37:
  82              		.section	.text.HAL_RCC_OscConfig,"ax",%progbits
  83              		.align	1
  84              		.global	HAL_RCC_OscConfig
  85              		.syntax unified
  86              		.code	16
  87              		.thumb_func
  88              		.fpu softvfp
  90              	HAL_RCC_OscConfig:
  91              	.LVL0:
  92              	.LFB38:
ARM GAS  /tmp/ccD6GDME.s 			page 7


 254:Drivers/STM32F0xx_HAL_Driver/Src/stm32f0xx_hal_rcc.c **** 
 255:Drivers/STM32F0xx_HAL_Driver/Src/stm32f0xx_hal_rcc.c **** /**
 256:Drivers/STM32F0xx_HAL_Driver/Src/stm32f0xx_hal_rcc.c ****   * @brief  Initializes the RCC Oscillators according to the specified parameters in the
 257:Drivers/STM32F0xx_HAL_Driver/Src/stm32f0xx_hal_rcc.c ****   *         RCC_OscInitTypeDef.
 258:Drivers/STM32F0xx_HAL_Driver/Src/stm32f0xx_hal_rcc.c ****   * @param  RCC_OscInitStruct pointer to an RCC_OscInitTypeDef structure that
 259:Drivers/STM32F0xx_HAL_Driver/Src/stm32f0xx_hal_rcc.c ****   *         contains the configuration information for the RCC Oscillators.
 260:Drivers/STM32F0xx_HAL_Driver/Src/stm32f0xx_hal_rcc.c ****   * @note   The PLL is not disabled when used as system clock.
 261:Drivers/STM32F0xx_HAL_Driver/Src/stm32f0xx_hal_rcc.c ****   * @note   Transitions LSE Bypass to LSE On and LSE On to LSE Bypass are not
 262:Drivers/STM32F0xx_HAL_Driver/Src/stm32f0xx_hal_rcc.c ****   *         supported by this macro. User should request a transition to LSE Off
 263:Drivers/STM32F0xx_HAL_Driver/Src/stm32f0xx_hal_rcc.c ****   *         first and then LSE On or LSE Bypass.
 264:Drivers/STM32F0xx_HAL_Driver/Src/stm32f0xx_hal_rcc.c ****   * @note   Transition HSE Bypass to HSE On and HSE On to HSE Bypass are not
 265:Drivers/STM32F0xx_HAL_Driver/Src/stm32f0xx_hal_rcc.c ****   *         supported by this macro. User should request a transition to HSE Off
 266:Drivers/STM32F0xx_HAL_Driver/Src/stm32f0xx_hal_rcc.c ****   *         first and then HSE On or HSE Bypass.
 267:Drivers/STM32F0xx_HAL_Driver/Src/stm32f0xx_hal_rcc.c ****   * @retval HAL status
 268:Drivers/STM32F0xx_HAL_Driver/Src/stm32f0xx_hal_rcc.c ****   */
 269:Drivers/STM32F0xx_HAL_Driver/Src/stm32f0xx_hal_rcc.c **** HAL_StatusTypeDef HAL_RCC_OscConfig(RCC_OscInitTypeDef  *RCC_OscInitStruct)
 270:Drivers/STM32F0xx_HAL_Driver/Src/stm32f0xx_hal_rcc.c **** {
  93              		.loc 1 270 1 is_stmt 1 view -0
  94              		.cfi_startproc
  95              		@ args = 0, pretend = 0, frame = 8
  96              		@ frame_needed = 0, uses_anonymous_args = 0
  97              		.loc 1 270 1 is_stmt 0 view .LVU13
  98 0000 70B5     		push	{r4, r5, r6, lr}
  99              	.LCFI0:
 100              		.cfi_def_cfa_offset 16
 101              		.cfi_offset 4, -16
 102              		.cfi_offset 5, -12
 103              		.cfi_offset 6, -8
 104              		.cfi_offset 14, -4
 105 0002 82B0     		sub	sp, sp, #8
 106              	.LCFI1:
 107              		.cfi_def_cfa_offset 24
 108 0004 0400     		movs	r4, r0
 271:Drivers/STM32F0xx_HAL_Driver/Src/stm32f0xx_hal_rcc.c ****    uint32_t tickstart = 0U;
 109              		.loc 1 271 4 is_stmt 1 view .LVU14
 110              	.LVL1:
 272:Drivers/STM32F0xx_HAL_Driver/Src/stm32f0xx_hal_rcc.c ****   
 273:Drivers/STM32F0xx_HAL_Driver/Src/stm32f0xx_hal_rcc.c ****   /* Check the parameters */
 274:Drivers/STM32F0xx_HAL_Driver/Src/stm32f0xx_hal_rcc.c ****   assert_param(RCC_OscInitStruct != NULL);
 111              		.loc 1 274 3 view .LVU15
 275:Drivers/STM32F0xx_HAL_Driver/Src/stm32f0xx_hal_rcc.c ****   assert_param(IS_RCC_OSCILLATORTYPE(RCC_OscInitStruct->OscillatorType));
 112              		.loc 1 275 3 view .LVU16
 276:Drivers/STM32F0xx_HAL_Driver/Src/stm32f0xx_hal_rcc.c **** 
 277:Drivers/STM32F0xx_HAL_Driver/Src/stm32f0xx_hal_rcc.c ****   /*------------------------------- HSE Configuration ------------------------*/ 
 278:Drivers/STM32F0xx_HAL_Driver/Src/stm32f0xx_hal_rcc.c ****   if(((RCC_OscInitStruct->OscillatorType) & RCC_OSCILLATORTYPE_HSE) == RCC_OSCILLATORTYPE_HSE)
 113              		.loc 1 278 3 view .LVU17
 114              		.loc 1 278 5 is_stmt 0 view .LVU18
 115 0006 0368     		ldr	r3, [r0]
 116 0008 DB07     		lsls	r3, r3, #31
 117 000a 2BD5     		bpl	.L5
 279:Drivers/STM32F0xx_HAL_Driver/Src/stm32f0xx_hal_rcc.c ****   {
 280:Drivers/STM32F0xx_HAL_Driver/Src/stm32f0xx_hal_rcc.c ****     /* Check the parameters */
 281:Drivers/STM32F0xx_HAL_Driver/Src/stm32f0xx_hal_rcc.c ****     assert_param(IS_RCC_HSE(RCC_OscInitStruct->HSEState));
 118              		.loc 1 281 5 is_stmt 1 view .LVU19
 282:Drivers/STM32F0xx_HAL_Driver/Src/stm32f0xx_hal_rcc.c **** 
 283:Drivers/STM32F0xx_HAL_Driver/Src/stm32f0xx_hal_rcc.c ****     /* When the HSE is used as system clock or clock source for PLL in these cases it is not allowe
 284:Drivers/STM32F0xx_HAL_Driver/Src/stm32f0xx_hal_rcc.c ****     if((__HAL_RCC_GET_SYSCLK_SOURCE() == RCC_SYSCLKSOURCE_STATUS_HSE) 
ARM GAS  /tmp/ccD6GDME.s 			page 8


 119              		.loc 1 284 5 view .LVU20
 120              		.loc 1 284 9 is_stmt 0 view .LVU21
 121 000c B34B     		ldr	r3, .L109
 122 000e 5A68     		ldr	r2, [r3, #4]
 123 0010 0C23     		movs	r3, #12
 124 0012 1340     		ands	r3, r2
 125              		.loc 1 284 7 view .LVU22
 126 0014 042B     		cmp	r3, #4
 127 0016 1DD0     		beq	.L6
 285:Drivers/STM32F0xx_HAL_Driver/Src/stm32f0xx_hal_rcc.c ****        || ((__HAL_RCC_GET_SYSCLK_SOURCE() == RCC_SYSCLKSOURCE_STATUS_PLLCLK) && (__HAL_RCC_GET_PLL_
 128              		.loc 1 285 13 view .LVU23
 129 0018 B04B     		ldr	r3, .L109
 130 001a 5A68     		ldr	r2, [r3, #4]
 131 001c 0C23     		movs	r3, #12
 132 001e 1340     		ands	r3, r2
 133              		.loc 1 285 8 view .LVU24
 134 0020 082B     		cmp	r3, #8
 135 0022 0ED0     		beq	.L92
 136              	.L7:
 286:Drivers/STM32F0xx_HAL_Driver/Src/stm32f0xx_hal_rcc.c ****     {
 287:Drivers/STM32F0xx_HAL_Driver/Src/stm32f0xx_hal_rcc.c ****       if((__HAL_RCC_GET_FLAG(RCC_FLAG_HSERDY) != RESET) && (RCC_OscInitStruct->HSEState == RCC_HSE_
 288:Drivers/STM32F0xx_HAL_Driver/Src/stm32f0xx_hal_rcc.c ****       {
 289:Drivers/STM32F0xx_HAL_Driver/Src/stm32f0xx_hal_rcc.c ****         return HAL_ERROR;
 290:Drivers/STM32F0xx_HAL_Driver/Src/stm32f0xx_hal_rcc.c ****       }
 291:Drivers/STM32F0xx_HAL_Driver/Src/stm32f0xx_hal_rcc.c ****     }
 292:Drivers/STM32F0xx_HAL_Driver/Src/stm32f0xx_hal_rcc.c ****     else
 293:Drivers/STM32F0xx_HAL_Driver/Src/stm32f0xx_hal_rcc.c ****     {
 294:Drivers/STM32F0xx_HAL_Driver/Src/stm32f0xx_hal_rcc.c ****       /* Set the new HSE configuration ---------------------------------------*/
 295:Drivers/STM32F0xx_HAL_Driver/Src/stm32f0xx_hal_rcc.c ****       __HAL_RCC_HSE_CONFIG(RCC_OscInitStruct->HSEState);
 137              		.loc 1 295 7 is_stmt 1 view .LVU25
 138              		.loc 1 295 7 view .LVU26
 139 0024 6368     		ldr	r3, [r4, #4]
 140 0026 012B     		cmp	r3, #1
 141 0028 41D0     		beq	.L93
 142              		.loc 1 295 7 discriminator 2 view .LVU27
 143 002a 002B     		cmp	r3, #0
 144 002c 56D1     		bne	.L11
 145              		.loc 1 295 7 discriminator 3 view .LVU28
 146 002e AB4B     		ldr	r3, .L109
 147 0030 1A68     		ldr	r2, [r3]
 148 0032 AB49     		ldr	r1, .L109+4
 149 0034 0A40     		ands	r2, r1
 150 0036 1A60     		str	r2, [r3]
 151              		.loc 1 295 7 discriminator 3 view .LVU29
 152 0038 1A68     		ldr	r2, [r3]
 153 003a AA49     		ldr	r1, .L109+8
 154 003c 0A40     		ands	r2, r1
 155 003e 1A60     		str	r2, [r3]
 156 0040 3BE0     		b	.L10
 157              	.L92:
 285:Drivers/STM32F0xx_HAL_Driver/Src/stm32f0xx_hal_rcc.c ****        || ((__HAL_RCC_GET_SYSCLK_SOURCE() == RCC_SYSCLKSOURCE_STATUS_PLLCLK) && (__HAL_RCC_GET_PLL_
 158              		.loc 1 285 82 is_stmt 0 discriminator 1 view .LVU30
 159 0042 A64B     		ldr	r3, .L109
 160 0044 5B68     		ldr	r3, [r3, #4]
 161 0046 C022     		movs	r2, #192
 162 0048 5202     		lsls	r2, r2, #9
 163 004a 1340     		ands	r3, r2
ARM GAS  /tmp/ccD6GDME.s 			page 9


 285:Drivers/STM32F0xx_HAL_Driver/Src/stm32f0xx_hal_rcc.c ****        || ((__HAL_RCC_GET_SYSCLK_SOURCE() == RCC_SYSCLKSOURCE_STATUS_PLLCLK) && (__HAL_RCC_GET_PLL_
 164              		.loc 1 285 78 discriminator 1 view .LVU31
 165 004c 8022     		movs	r2, #128
 166 004e 5202     		lsls	r2, r2, #9
 167 0050 9342     		cmp	r3, r2
 168 0052 E7D1     		bne	.L7
 169              	.L6:
 287:Drivers/STM32F0xx_HAL_Driver/Src/stm32f0xx_hal_rcc.c ****       {
 170              		.loc 1 287 7 is_stmt 1 view .LVU32
 287:Drivers/STM32F0xx_HAL_Driver/Src/stm32f0xx_hal_rcc.c ****       {
 171              		.loc 1 287 11 is_stmt 0 view .LVU33
 172 0054 A14B     		ldr	r3, .L109
 173 0056 1B68     		ldr	r3, [r3]
 287:Drivers/STM32F0xx_HAL_Driver/Src/stm32f0xx_hal_rcc.c ****       {
 174              		.loc 1 287 9 view .LVU34
 175 0058 9B03     		lsls	r3, r3, #14
 176 005a 03D5     		bpl	.L5
 287:Drivers/STM32F0xx_HAL_Driver/Src/stm32f0xx_hal_rcc.c ****       {
 177              		.loc 1 287 57 discriminator 1 view .LVU35
 178 005c 6368     		ldr	r3, [r4, #4]
 179 005e 002B     		cmp	r3, #0
 180 0060 00D1     		bne	.LCB141
 181 0062 36E2     		b	.L94	@long jump
 182              	.LCB141:
 183              	.LVL2:
 184              	.L5:
 296:Drivers/STM32F0xx_HAL_Driver/Src/stm32f0xx_hal_rcc.c ****       
 297:Drivers/STM32F0xx_HAL_Driver/Src/stm32f0xx_hal_rcc.c **** 
 298:Drivers/STM32F0xx_HAL_Driver/Src/stm32f0xx_hal_rcc.c ****        /* Check the HSE State */
 299:Drivers/STM32F0xx_HAL_Driver/Src/stm32f0xx_hal_rcc.c ****       if(RCC_OscInitStruct->HSEState != RCC_HSE_OFF)
 300:Drivers/STM32F0xx_HAL_Driver/Src/stm32f0xx_hal_rcc.c ****       {
 301:Drivers/STM32F0xx_HAL_Driver/Src/stm32f0xx_hal_rcc.c ****         /* Get Start Tick */
 302:Drivers/STM32F0xx_HAL_Driver/Src/stm32f0xx_hal_rcc.c ****         tickstart = HAL_GetTick();
 303:Drivers/STM32F0xx_HAL_Driver/Src/stm32f0xx_hal_rcc.c ****         
 304:Drivers/STM32F0xx_HAL_Driver/Src/stm32f0xx_hal_rcc.c ****         /* Wait till HSE is ready */
 305:Drivers/STM32F0xx_HAL_Driver/Src/stm32f0xx_hal_rcc.c ****         while(__HAL_RCC_GET_FLAG(RCC_FLAG_HSERDY) == RESET)
 306:Drivers/STM32F0xx_HAL_Driver/Src/stm32f0xx_hal_rcc.c ****         {
 307:Drivers/STM32F0xx_HAL_Driver/Src/stm32f0xx_hal_rcc.c ****           if((HAL_GetTick() - tickstart ) > HSE_TIMEOUT_VALUE)
 308:Drivers/STM32F0xx_HAL_Driver/Src/stm32f0xx_hal_rcc.c ****           {
 309:Drivers/STM32F0xx_HAL_Driver/Src/stm32f0xx_hal_rcc.c ****             return HAL_TIMEOUT;
 310:Drivers/STM32F0xx_HAL_Driver/Src/stm32f0xx_hal_rcc.c ****           }
 311:Drivers/STM32F0xx_HAL_Driver/Src/stm32f0xx_hal_rcc.c ****         }
 312:Drivers/STM32F0xx_HAL_Driver/Src/stm32f0xx_hal_rcc.c ****       }
 313:Drivers/STM32F0xx_HAL_Driver/Src/stm32f0xx_hal_rcc.c ****       else
 314:Drivers/STM32F0xx_HAL_Driver/Src/stm32f0xx_hal_rcc.c ****       {
 315:Drivers/STM32F0xx_HAL_Driver/Src/stm32f0xx_hal_rcc.c ****         /* Get Start Tick */
 316:Drivers/STM32F0xx_HAL_Driver/Src/stm32f0xx_hal_rcc.c ****         tickstart = HAL_GetTick();
 317:Drivers/STM32F0xx_HAL_Driver/Src/stm32f0xx_hal_rcc.c ****         
 318:Drivers/STM32F0xx_HAL_Driver/Src/stm32f0xx_hal_rcc.c ****         /* Wait till HSE is disabled */
 319:Drivers/STM32F0xx_HAL_Driver/Src/stm32f0xx_hal_rcc.c ****         while(__HAL_RCC_GET_FLAG(RCC_FLAG_HSERDY) != RESET)
 320:Drivers/STM32F0xx_HAL_Driver/Src/stm32f0xx_hal_rcc.c ****         {
 321:Drivers/STM32F0xx_HAL_Driver/Src/stm32f0xx_hal_rcc.c ****            if((HAL_GetTick() - tickstart ) > HSE_TIMEOUT_VALUE)
 322:Drivers/STM32F0xx_HAL_Driver/Src/stm32f0xx_hal_rcc.c ****           {
 323:Drivers/STM32F0xx_HAL_Driver/Src/stm32f0xx_hal_rcc.c ****             return HAL_TIMEOUT;
 324:Drivers/STM32F0xx_HAL_Driver/Src/stm32f0xx_hal_rcc.c ****           }
 325:Drivers/STM32F0xx_HAL_Driver/Src/stm32f0xx_hal_rcc.c ****         }
 326:Drivers/STM32F0xx_HAL_Driver/Src/stm32f0xx_hal_rcc.c ****       }
ARM GAS  /tmp/ccD6GDME.s 			page 10


 327:Drivers/STM32F0xx_HAL_Driver/Src/stm32f0xx_hal_rcc.c ****     }
 328:Drivers/STM32F0xx_HAL_Driver/Src/stm32f0xx_hal_rcc.c ****   }
 329:Drivers/STM32F0xx_HAL_Driver/Src/stm32f0xx_hal_rcc.c ****   /*----------------------------- HSI Configuration --------------------------*/ 
 330:Drivers/STM32F0xx_HAL_Driver/Src/stm32f0xx_hal_rcc.c ****   if(((RCC_OscInitStruct->OscillatorType) & RCC_OSCILLATORTYPE_HSI) == RCC_OSCILLATORTYPE_HSI)
 185              		.loc 1 330 3 is_stmt 1 view .LVU36
 186              		.loc 1 330 5 is_stmt 0 view .LVU37
 187 0064 2368     		ldr	r3, [r4]
 188 0066 9B07     		lsls	r3, r3, #30
 189 0068 77D5     		bpl	.L18
 331:Drivers/STM32F0xx_HAL_Driver/Src/stm32f0xx_hal_rcc.c ****   {
 332:Drivers/STM32F0xx_HAL_Driver/Src/stm32f0xx_hal_rcc.c ****     /* Check the parameters */
 333:Drivers/STM32F0xx_HAL_Driver/Src/stm32f0xx_hal_rcc.c ****     assert_param(IS_RCC_HSI(RCC_OscInitStruct->HSIState));
 190              		.loc 1 333 5 is_stmt 1 view .LVU38
 334:Drivers/STM32F0xx_HAL_Driver/Src/stm32f0xx_hal_rcc.c ****     assert_param(IS_RCC_CALIBRATION_VALUE(RCC_OscInitStruct->HSICalibrationValue));
 191              		.loc 1 334 5 view .LVU39
 335:Drivers/STM32F0xx_HAL_Driver/Src/stm32f0xx_hal_rcc.c ****     
 336:Drivers/STM32F0xx_HAL_Driver/Src/stm32f0xx_hal_rcc.c ****     /* Check if HSI is used as system clock or as PLL source when PLL is selected as system clock *
 337:Drivers/STM32F0xx_HAL_Driver/Src/stm32f0xx_hal_rcc.c ****     if((__HAL_RCC_GET_SYSCLK_SOURCE() == RCC_SYSCLKSOURCE_STATUS_HSI) 
 192              		.loc 1 337 5 view .LVU40
 193              		.loc 1 337 9 is_stmt 0 view .LVU41
 194 006a 9C4B     		ldr	r3, .L109
 195 006c 5B68     		ldr	r3, [r3, #4]
 196 006e 0C22     		movs	r2, #12
 197              		.loc 1 337 7 view .LVU42
 198 0070 1A42     		tst	r2, r3
 199 0072 62D0     		beq	.L19
 338:Drivers/STM32F0xx_HAL_Driver/Src/stm32f0xx_hal_rcc.c ****        || ((__HAL_RCC_GET_SYSCLK_SOURCE() == RCC_SYSCLKSOURCE_STATUS_PLLCLK) && (__HAL_RCC_GET_PLL_
 200              		.loc 1 338 13 view .LVU43
 201 0074 994B     		ldr	r3, .L109
 202 0076 5A68     		ldr	r2, [r3, #4]
 203 0078 0C23     		movs	r3, #12
 204 007a 1340     		ands	r3, r2
 205              		.loc 1 338 8 view .LVU44
 206 007c 082B     		cmp	r3, #8
 207 007e 53D0     		beq	.L95
 208              	.L20:
 339:Drivers/STM32F0xx_HAL_Driver/Src/stm32f0xx_hal_rcc.c ****     {
 340:Drivers/STM32F0xx_HAL_Driver/Src/stm32f0xx_hal_rcc.c ****       /* When HSI is used as system clock it will not disabled */
 341:Drivers/STM32F0xx_HAL_Driver/Src/stm32f0xx_hal_rcc.c ****       if((__HAL_RCC_GET_FLAG(RCC_FLAG_HSIRDY) != RESET) && (RCC_OscInitStruct->HSIState != RCC_HSI_
 342:Drivers/STM32F0xx_HAL_Driver/Src/stm32f0xx_hal_rcc.c ****       {
 343:Drivers/STM32F0xx_HAL_Driver/Src/stm32f0xx_hal_rcc.c ****         return HAL_ERROR;
 344:Drivers/STM32F0xx_HAL_Driver/Src/stm32f0xx_hal_rcc.c ****       }
 345:Drivers/STM32F0xx_HAL_Driver/Src/stm32f0xx_hal_rcc.c ****       /* Otherwise, just the calibration is allowed */
 346:Drivers/STM32F0xx_HAL_Driver/Src/stm32f0xx_hal_rcc.c ****       else
 347:Drivers/STM32F0xx_HAL_Driver/Src/stm32f0xx_hal_rcc.c ****       {
 348:Drivers/STM32F0xx_HAL_Driver/Src/stm32f0xx_hal_rcc.c ****         /* Adjusts the Internal High Speed oscillator (HSI) calibration value.*/
 349:Drivers/STM32F0xx_HAL_Driver/Src/stm32f0xx_hal_rcc.c ****         __HAL_RCC_HSI_CALIBRATIONVALUE_ADJUST(RCC_OscInitStruct->HSICalibrationValue);
 350:Drivers/STM32F0xx_HAL_Driver/Src/stm32f0xx_hal_rcc.c ****       }
 351:Drivers/STM32F0xx_HAL_Driver/Src/stm32f0xx_hal_rcc.c ****     }
 352:Drivers/STM32F0xx_HAL_Driver/Src/stm32f0xx_hal_rcc.c ****     else
 353:Drivers/STM32F0xx_HAL_Driver/Src/stm32f0xx_hal_rcc.c ****     {
 354:Drivers/STM32F0xx_HAL_Driver/Src/stm32f0xx_hal_rcc.c ****       /* Check the HSI State */
 355:Drivers/STM32F0xx_HAL_Driver/Src/stm32f0xx_hal_rcc.c ****       if(RCC_OscInitStruct->HSIState != RCC_HSI_OFF)
 209              		.loc 1 355 7 is_stmt 1 view .LVU45
 210              		.loc 1 355 9 is_stmt 0 view .LVU46
 211 0080 E368     		ldr	r3, [r4, #12]
 212 0082 002B     		cmp	r3, #0
ARM GAS  /tmp/ccD6GDME.s 			page 11


 213 0084 00D1     		bne	.LCB172
 214 0086 8AE0     		b	.L22	@long jump
 215              	.LCB172:
 356:Drivers/STM32F0xx_HAL_Driver/Src/stm32f0xx_hal_rcc.c ****       {
 357:Drivers/STM32F0xx_HAL_Driver/Src/stm32f0xx_hal_rcc.c ****        /* Enable the Internal High Speed oscillator (HSI). */
 358:Drivers/STM32F0xx_HAL_Driver/Src/stm32f0xx_hal_rcc.c ****         __HAL_RCC_HSI_ENABLE();
 216              		.loc 1 358 9 is_stmt 1 view .LVU47
 217 0088 944A     		ldr	r2, .L109
 218 008a 1368     		ldr	r3, [r2]
 219 008c 0121     		movs	r1, #1
 220 008e 0B43     		orrs	r3, r1
 221 0090 1360     		str	r3, [r2]
 359:Drivers/STM32F0xx_HAL_Driver/Src/stm32f0xx_hal_rcc.c ****         
 360:Drivers/STM32F0xx_HAL_Driver/Src/stm32f0xx_hal_rcc.c ****         /* Get Start Tick */
 361:Drivers/STM32F0xx_HAL_Driver/Src/stm32f0xx_hal_rcc.c ****         tickstart = HAL_GetTick();
 222              		.loc 1 361 9 view .LVU48
 223              		.loc 1 361 21 is_stmt 0 view .LVU49
 224 0092 FFF7FEFF 		bl	HAL_GetTick
 225              	.LVL3:
 226 0096 0500     		movs	r5, r0
 227              	.LVL4:
 362:Drivers/STM32F0xx_HAL_Driver/Src/stm32f0xx_hal_rcc.c ****         
 363:Drivers/STM32F0xx_HAL_Driver/Src/stm32f0xx_hal_rcc.c ****         /* Wait till HSI is ready */
 364:Drivers/STM32F0xx_HAL_Driver/Src/stm32f0xx_hal_rcc.c ****         while(__HAL_RCC_GET_FLAG(RCC_FLAG_HSIRDY) == RESET)
 228              		.loc 1 364 9 is_stmt 1 view .LVU50
 229              	.L23:
 230              		.loc 1 364 15 is_stmt 0 view .LVU51
 231 0098 904B     		ldr	r3, .L109
 232 009a 1B68     		ldr	r3, [r3]
 233              		.loc 1 364 14 view .LVU52
 234 009c 9B07     		lsls	r3, r3, #30
 235 009e 75D4     		bmi	.L96
 365:Drivers/STM32F0xx_HAL_Driver/Src/stm32f0xx_hal_rcc.c ****         {
 366:Drivers/STM32F0xx_HAL_Driver/Src/stm32f0xx_hal_rcc.c ****           if((HAL_GetTick() - tickstart ) > HSI_TIMEOUT_VALUE)
 236              		.loc 1 366 11 is_stmt 1 view .LVU53
 237              		.loc 1 366 15 is_stmt 0 view .LVU54
 238 00a0 FFF7FEFF 		bl	HAL_GetTick
 239              	.LVL5:
 240              		.loc 1 366 29 view .LVU55
 241 00a4 401B     		subs	r0, r0, r5
 242              		.loc 1 366 13 view .LVU56
 243 00a6 0228     		cmp	r0, #2
 244 00a8 F6D9     		bls	.L23
 367:Drivers/STM32F0xx_HAL_Driver/Src/stm32f0xx_hal_rcc.c ****           {
 368:Drivers/STM32F0xx_HAL_Driver/Src/stm32f0xx_hal_rcc.c ****             return HAL_TIMEOUT;
 245              		.loc 1 368 20 view .LVU57
 246 00aa 0320     		movs	r0, #3
 247 00ac 18E2     		b	.L8
 248              	.LVL6:
 249              	.L93:
 295:Drivers/STM32F0xx_HAL_Driver/Src/stm32f0xx_hal_rcc.c ****       
 250              		.loc 1 295 7 is_stmt 1 discriminator 1 view .LVU58
 251 00ae 8B4A     		ldr	r2, .L109
 252 00b0 1168     		ldr	r1, [r2]
 253 00b2 8023     		movs	r3, #128
 254 00b4 5B02     		lsls	r3, r3, #9
 255 00b6 0B43     		orrs	r3, r1
ARM GAS  /tmp/ccD6GDME.s 			page 12


 256 00b8 1360     		str	r3, [r2]
 257              	.L10:
 299:Drivers/STM32F0xx_HAL_Driver/Src/stm32f0xx_hal_rcc.c ****       {
 258              		.loc 1 299 7 view .LVU59
 299:Drivers/STM32F0xx_HAL_Driver/Src/stm32f0xx_hal_rcc.c ****       {
 259              		.loc 1 299 9 is_stmt 0 view .LVU60
 260 00ba 6368     		ldr	r3, [r4, #4]
 261 00bc 002B     		cmp	r3, #0
 262 00be 25D0     		beq	.L13
 302:Drivers/STM32F0xx_HAL_Driver/Src/stm32f0xx_hal_rcc.c ****         
 263              		.loc 1 302 9 is_stmt 1 view .LVU61
 302:Drivers/STM32F0xx_HAL_Driver/Src/stm32f0xx_hal_rcc.c ****         
 264              		.loc 1 302 21 is_stmt 0 view .LVU62
 265 00c0 FFF7FEFF 		bl	HAL_GetTick
 266              	.LVL7:
 302:Drivers/STM32F0xx_HAL_Driver/Src/stm32f0xx_hal_rcc.c ****         
 267              		.loc 1 302 21 view .LVU63
 268 00c4 0500     		movs	r5, r0
 269              	.LVL8:
 305:Drivers/STM32F0xx_HAL_Driver/Src/stm32f0xx_hal_rcc.c ****         {
 270              		.loc 1 305 9 is_stmt 1 view .LVU64
 271              	.L14:
 305:Drivers/STM32F0xx_HAL_Driver/Src/stm32f0xx_hal_rcc.c ****         {
 272              		.loc 1 305 15 is_stmt 0 view .LVU65
 273 00c6 854B     		ldr	r3, .L109
 274 00c8 1B68     		ldr	r3, [r3]
 305:Drivers/STM32F0xx_HAL_Driver/Src/stm32f0xx_hal_rcc.c ****         {
 275              		.loc 1 305 14 view .LVU66
 276 00ca 9B03     		lsls	r3, r3, #14
 277 00cc CAD4     		bmi	.L5
 307:Drivers/STM32F0xx_HAL_Driver/Src/stm32f0xx_hal_rcc.c ****           {
 278              		.loc 1 307 11 is_stmt 1 view .LVU67
 307:Drivers/STM32F0xx_HAL_Driver/Src/stm32f0xx_hal_rcc.c ****           {
 279              		.loc 1 307 15 is_stmt 0 view .LVU68
 280 00ce FFF7FEFF 		bl	HAL_GetTick
 281              	.LVL9:
 307:Drivers/STM32F0xx_HAL_Driver/Src/stm32f0xx_hal_rcc.c ****           {
 282              		.loc 1 307 29 view .LVU69
 283 00d2 401B     		subs	r0, r0, r5
 307:Drivers/STM32F0xx_HAL_Driver/Src/stm32f0xx_hal_rcc.c ****           {
 284              		.loc 1 307 13 view .LVU70
 285 00d4 6428     		cmp	r0, #100
 286 00d6 F6D9     		bls	.L14
 309:Drivers/STM32F0xx_HAL_Driver/Src/stm32f0xx_hal_rcc.c ****           }
 287              		.loc 1 309 20 view .LVU71
 288 00d8 0320     		movs	r0, #3
 289 00da 01E2     		b	.L8
 290              	.LVL10:
 291              	.L11:
 295:Drivers/STM32F0xx_HAL_Driver/Src/stm32f0xx_hal_rcc.c ****       
 292              		.loc 1 295 7 is_stmt 1 discriminator 4 view .LVU72
 293 00dc 052B     		cmp	r3, #5
 294 00de 09D0     		beq	.L97
 295:Drivers/STM32F0xx_HAL_Driver/Src/stm32f0xx_hal_rcc.c ****       
 295              		.loc 1 295 7 discriminator 6 view .LVU73
 296 00e0 7E4B     		ldr	r3, .L109
 297 00e2 1A68     		ldr	r2, [r3]
ARM GAS  /tmp/ccD6GDME.s 			page 13


 298 00e4 7E49     		ldr	r1, .L109+4
 299 00e6 0A40     		ands	r2, r1
 300 00e8 1A60     		str	r2, [r3]
 295:Drivers/STM32F0xx_HAL_Driver/Src/stm32f0xx_hal_rcc.c ****       
 301              		.loc 1 295 7 discriminator 6 view .LVU74
 302 00ea 1A68     		ldr	r2, [r3]
 303 00ec 7D49     		ldr	r1, .L109+8
 304 00ee 0A40     		ands	r2, r1
 305 00f0 1A60     		str	r2, [r3]
 306 00f2 E2E7     		b	.L10
 307              	.L97:
 295:Drivers/STM32F0xx_HAL_Driver/Src/stm32f0xx_hal_rcc.c ****       
 308              		.loc 1 295 7 discriminator 5 view .LVU75
 309 00f4 794B     		ldr	r3, .L109
 310 00f6 1968     		ldr	r1, [r3]
 311 00f8 8022     		movs	r2, #128
 312 00fa D202     		lsls	r2, r2, #11
 313 00fc 0A43     		orrs	r2, r1
 314 00fe 1A60     		str	r2, [r3]
 295:Drivers/STM32F0xx_HAL_Driver/Src/stm32f0xx_hal_rcc.c ****       
 315              		.loc 1 295 7 discriminator 5 view .LVU76
 316 0100 1968     		ldr	r1, [r3]
 317 0102 8022     		movs	r2, #128
 318 0104 5202     		lsls	r2, r2, #9
 319 0106 0A43     		orrs	r2, r1
 320 0108 1A60     		str	r2, [r3]
 321 010a D6E7     		b	.L10
 322              	.L13:
 316:Drivers/STM32F0xx_HAL_Driver/Src/stm32f0xx_hal_rcc.c ****         
 323              		.loc 1 316 9 view .LVU77
 316:Drivers/STM32F0xx_HAL_Driver/Src/stm32f0xx_hal_rcc.c ****         
 324              		.loc 1 316 21 is_stmt 0 view .LVU78
 325 010c FFF7FEFF 		bl	HAL_GetTick
 326              	.LVL11:
 316:Drivers/STM32F0xx_HAL_Driver/Src/stm32f0xx_hal_rcc.c ****         
 327              		.loc 1 316 21 view .LVU79
 328 0110 0500     		movs	r5, r0
 329              	.LVL12:
 319:Drivers/STM32F0xx_HAL_Driver/Src/stm32f0xx_hal_rcc.c ****         {
 330              		.loc 1 319 9 is_stmt 1 view .LVU80
 331              	.L16:
 319:Drivers/STM32F0xx_HAL_Driver/Src/stm32f0xx_hal_rcc.c ****         {
 332              		.loc 1 319 15 is_stmt 0 view .LVU81
 333 0112 724B     		ldr	r3, .L109
 334 0114 1B68     		ldr	r3, [r3]
 319:Drivers/STM32F0xx_HAL_Driver/Src/stm32f0xx_hal_rcc.c ****         {
 335              		.loc 1 319 14 view .LVU82
 336 0116 9B03     		lsls	r3, r3, #14
 337 0118 A4D5     		bpl	.L5
 321:Drivers/STM32F0xx_HAL_Driver/Src/stm32f0xx_hal_rcc.c ****           {
 338              		.loc 1 321 12 is_stmt 1 view .LVU83
 321:Drivers/STM32F0xx_HAL_Driver/Src/stm32f0xx_hal_rcc.c ****           {
 339              		.loc 1 321 16 is_stmt 0 view .LVU84
 340 011a FFF7FEFF 		bl	HAL_GetTick
 341              	.LVL13:
 321:Drivers/STM32F0xx_HAL_Driver/Src/stm32f0xx_hal_rcc.c ****           {
 342              		.loc 1 321 30 view .LVU85
ARM GAS  /tmp/ccD6GDME.s 			page 14


 343 011e 401B     		subs	r0, r0, r5
 321:Drivers/STM32F0xx_HAL_Driver/Src/stm32f0xx_hal_rcc.c ****           {
 344              		.loc 1 321 14 view .LVU86
 345 0120 6428     		cmp	r0, #100
 346 0122 F6D9     		bls	.L16
 323:Drivers/STM32F0xx_HAL_Driver/Src/stm32f0xx_hal_rcc.c ****           }
 347              		.loc 1 323 20 view .LVU87
 348 0124 0320     		movs	r0, #3
 349 0126 DBE1     		b	.L8
 350              	.LVL14:
 351              	.L95:
 338:Drivers/STM32F0xx_HAL_Driver/Src/stm32f0xx_hal_rcc.c ****     {
 352              		.loc 1 338 82 discriminator 1 view .LVU88
 353 0128 6C4B     		ldr	r3, .L109
 354 012a 5B68     		ldr	r3, [r3, #4]
 355 012c C022     		movs	r2, #192
 356 012e 5202     		lsls	r2, r2, #9
 357 0130 1340     		ands	r3, r2
 338:Drivers/STM32F0xx_HAL_Driver/Src/stm32f0xx_hal_rcc.c ****     {
 358              		.loc 1 338 78 discriminator 1 view .LVU89
 359 0132 8022     		movs	r2, #128
 360 0134 1202     		lsls	r2, r2, #8
 361 0136 9342     		cmp	r3, r2
 362 0138 A2D1     		bne	.L20
 363              	.L19:
 341:Drivers/STM32F0xx_HAL_Driver/Src/stm32f0xx_hal_rcc.c ****       {
 364              		.loc 1 341 7 is_stmt 1 view .LVU90
 341:Drivers/STM32F0xx_HAL_Driver/Src/stm32f0xx_hal_rcc.c ****       {
 365              		.loc 1 341 11 is_stmt 0 view .LVU91
 366 013a 684B     		ldr	r3, .L109
 367 013c 1B68     		ldr	r3, [r3]
 341:Drivers/STM32F0xx_HAL_Driver/Src/stm32f0xx_hal_rcc.c ****       {
 368              		.loc 1 341 9 view .LVU92
 369 013e 9B07     		lsls	r3, r3, #30
 370 0140 03D5     		bpl	.L21
 341:Drivers/STM32F0xx_HAL_Driver/Src/stm32f0xx_hal_rcc.c ****       {
 371              		.loc 1 341 57 discriminator 1 view .LVU93
 372 0142 E368     		ldr	r3, [r4, #12]
 373 0144 012B     		cmp	r3, #1
 374 0146 00D0     		beq	.LCB332
 375 0148 C5E1     		b	.L73	@long jump
 376              	.LCB332:
 377              	.L21:
 349:Drivers/STM32F0xx_HAL_Driver/Src/stm32f0xx_hal_rcc.c ****       }
 378              		.loc 1 349 9 is_stmt 1 view .LVU94
 379 014a 6449     		ldr	r1, .L109
 380 014c 0B68     		ldr	r3, [r1]
 381 014e F822     		movs	r2, #248
 382 0150 9343     		bics	r3, r2
 383 0152 2269     		ldr	r2, [r4, #16]
 384 0154 D200     		lsls	r2, r2, #3
 385 0156 1343     		orrs	r3, r2
 386 0158 0B60     		str	r3, [r1]
 387              	.L18:
 369:Drivers/STM32F0xx_HAL_Driver/Src/stm32f0xx_hal_rcc.c ****           }
 370:Drivers/STM32F0xx_HAL_Driver/Src/stm32f0xx_hal_rcc.c ****         }
 371:Drivers/STM32F0xx_HAL_Driver/Src/stm32f0xx_hal_rcc.c ****                 
ARM GAS  /tmp/ccD6GDME.s 			page 15


 372:Drivers/STM32F0xx_HAL_Driver/Src/stm32f0xx_hal_rcc.c ****         /* Adjusts the Internal High Speed oscillator (HSI) calibration value.*/
 373:Drivers/STM32F0xx_HAL_Driver/Src/stm32f0xx_hal_rcc.c ****         __HAL_RCC_HSI_CALIBRATIONVALUE_ADJUST(RCC_OscInitStruct->HSICalibrationValue);
 374:Drivers/STM32F0xx_HAL_Driver/Src/stm32f0xx_hal_rcc.c ****       }
 375:Drivers/STM32F0xx_HAL_Driver/Src/stm32f0xx_hal_rcc.c ****       else
 376:Drivers/STM32F0xx_HAL_Driver/Src/stm32f0xx_hal_rcc.c ****       {
 377:Drivers/STM32F0xx_HAL_Driver/Src/stm32f0xx_hal_rcc.c ****         /* Disable the Internal High Speed oscillator (HSI). */
 378:Drivers/STM32F0xx_HAL_Driver/Src/stm32f0xx_hal_rcc.c ****         __HAL_RCC_HSI_DISABLE();
 379:Drivers/STM32F0xx_HAL_Driver/Src/stm32f0xx_hal_rcc.c ****         
 380:Drivers/STM32F0xx_HAL_Driver/Src/stm32f0xx_hal_rcc.c ****         /* Get Start Tick */
 381:Drivers/STM32F0xx_HAL_Driver/Src/stm32f0xx_hal_rcc.c ****         tickstart = HAL_GetTick();
 382:Drivers/STM32F0xx_HAL_Driver/Src/stm32f0xx_hal_rcc.c ****         
 383:Drivers/STM32F0xx_HAL_Driver/Src/stm32f0xx_hal_rcc.c ****         /* Wait till HSI is disabled */
 384:Drivers/STM32F0xx_HAL_Driver/Src/stm32f0xx_hal_rcc.c ****         while(__HAL_RCC_GET_FLAG(RCC_FLAG_HSIRDY) != RESET)
 385:Drivers/STM32F0xx_HAL_Driver/Src/stm32f0xx_hal_rcc.c ****         {
 386:Drivers/STM32F0xx_HAL_Driver/Src/stm32f0xx_hal_rcc.c ****           if((HAL_GetTick() - tickstart ) > HSI_TIMEOUT_VALUE)
 387:Drivers/STM32F0xx_HAL_Driver/Src/stm32f0xx_hal_rcc.c ****           {
 388:Drivers/STM32F0xx_HAL_Driver/Src/stm32f0xx_hal_rcc.c ****             return HAL_TIMEOUT;
 389:Drivers/STM32F0xx_HAL_Driver/Src/stm32f0xx_hal_rcc.c ****           }
 390:Drivers/STM32F0xx_HAL_Driver/Src/stm32f0xx_hal_rcc.c ****         }
 391:Drivers/STM32F0xx_HAL_Driver/Src/stm32f0xx_hal_rcc.c ****       }
 392:Drivers/STM32F0xx_HAL_Driver/Src/stm32f0xx_hal_rcc.c ****     }
 393:Drivers/STM32F0xx_HAL_Driver/Src/stm32f0xx_hal_rcc.c ****   }
 394:Drivers/STM32F0xx_HAL_Driver/Src/stm32f0xx_hal_rcc.c ****   /*------------------------------ LSI Configuration -------------------------*/ 
 395:Drivers/STM32F0xx_HAL_Driver/Src/stm32f0xx_hal_rcc.c ****   if(((RCC_OscInitStruct->OscillatorType) & RCC_OSCILLATORTYPE_LSI) == RCC_OSCILLATORTYPE_LSI)
 388              		.loc 1 395 3 view .LVU95
 389              		.loc 1 395 5 is_stmt 0 view .LVU96
 390 015a 2368     		ldr	r3, [r4]
 391 015c 1B07     		lsls	r3, r3, #28
 392 015e 44D5     		bpl	.L27
 396:Drivers/STM32F0xx_HAL_Driver/Src/stm32f0xx_hal_rcc.c ****   {
 397:Drivers/STM32F0xx_HAL_Driver/Src/stm32f0xx_hal_rcc.c ****     /* Check the parameters */
 398:Drivers/STM32F0xx_HAL_Driver/Src/stm32f0xx_hal_rcc.c ****     assert_param(IS_RCC_LSI(RCC_OscInitStruct->LSIState));
 393              		.loc 1 398 5 is_stmt 1 view .LVU97
 399:Drivers/STM32F0xx_HAL_Driver/Src/stm32f0xx_hal_rcc.c ****     
 400:Drivers/STM32F0xx_HAL_Driver/Src/stm32f0xx_hal_rcc.c ****     /* Check the LSI State */
 401:Drivers/STM32F0xx_HAL_Driver/Src/stm32f0xx_hal_rcc.c ****     if(RCC_OscInitStruct->LSIState != RCC_LSI_OFF)
 394              		.loc 1 401 5 view .LVU98
 395              		.loc 1 401 7 is_stmt 0 view .LVU99
 396 0160 E369     		ldr	r3, [r4, #28]
 397 0162 002B     		cmp	r3, #0
 398 0164 2ED0     		beq	.L28
 402:Drivers/STM32F0xx_HAL_Driver/Src/stm32f0xx_hal_rcc.c ****     {
 403:Drivers/STM32F0xx_HAL_Driver/Src/stm32f0xx_hal_rcc.c ****       /* Enable the Internal Low Speed oscillator (LSI). */
 404:Drivers/STM32F0xx_HAL_Driver/Src/stm32f0xx_hal_rcc.c ****       __HAL_RCC_LSI_ENABLE();
 399              		.loc 1 404 7 is_stmt 1 view .LVU100
 400 0166 5D4A     		ldr	r2, .L109
 401 0168 536A     		ldr	r3, [r2, #36]
 402 016a 0121     		movs	r1, #1
 403 016c 0B43     		orrs	r3, r1
 404 016e 5362     		str	r3, [r2, #36]
 405:Drivers/STM32F0xx_HAL_Driver/Src/stm32f0xx_hal_rcc.c ****       
 406:Drivers/STM32F0xx_HAL_Driver/Src/stm32f0xx_hal_rcc.c ****       /* Get Start Tick */
 407:Drivers/STM32F0xx_HAL_Driver/Src/stm32f0xx_hal_rcc.c ****       tickstart = HAL_GetTick();
 405              		.loc 1 407 7 view .LVU101
 406              		.loc 1 407 19 is_stmt 0 view .LVU102
 407 0170 FFF7FEFF 		bl	HAL_GetTick
 408              	.LVL15:
ARM GAS  /tmp/ccD6GDME.s 			page 16


 409 0174 0500     		movs	r5, r0
 410              	.LVL16:
 408:Drivers/STM32F0xx_HAL_Driver/Src/stm32f0xx_hal_rcc.c ****       
 409:Drivers/STM32F0xx_HAL_Driver/Src/stm32f0xx_hal_rcc.c ****       /* Wait till LSI is ready */  
 410:Drivers/STM32F0xx_HAL_Driver/Src/stm32f0xx_hal_rcc.c ****       while(__HAL_RCC_GET_FLAG(RCC_FLAG_LSIRDY) == RESET)
 411              		.loc 1 410 7 is_stmt 1 view .LVU103
 412              	.L29:
 413              		.loc 1 410 13 is_stmt 0 view .LVU104
 414 0176 594B     		ldr	r3, .L109
 415 0178 5B6A     		ldr	r3, [r3, #36]
 416              		.loc 1 410 12 view .LVU105
 417 017a 9B07     		lsls	r3, r3, #30
 418 017c 35D4     		bmi	.L27
 411:Drivers/STM32F0xx_HAL_Driver/Src/stm32f0xx_hal_rcc.c ****       {
 412:Drivers/STM32F0xx_HAL_Driver/Src/stm32f0xx_hal_rcc.c ****         if((HAL_GetTick() - tickstart ) > LSI_TIMEOUT_VALUE)
 419              		.loc 1 412 9 is_stmt 1 view .LVU106
 420              		.loc 1 412 13 is_stmt 0 view .LVU107
 421 017e FFF7FEFF 		bl	HAL_GetTick
 422              	.LVL17:
 423              		.loc 1 412 27 view .LVU108
 424 0182 401B     		subs	r0, r0, r5
 425              		.loc 1 412 11 view .LVU109
 426 0184 0228     		cmp	r0, #2
 427 0186 F6D9     		bls	.L29
 413:Drivers/STM32F0xx_HAL_Driver/Src/stm32f0xx_hal_rcc.c ****         {
 414:Drivers/STM32F0xx_HAL_Driver/Src/stm32f0xx_hal_rcc.c ****           return HAL_TIMEOUT;
 428              		.loc 1 414 18 view .LVU110
 429 0188 0320     		movs	r0, #3
 430 018a A9E1     		b	.L8
 431              	.L96:
 373:Drivers/STM32F0xx_HAL_Driver/Src/stm32f0xx_hal_rcc.c ****       }
 432              		.loc 1 373 9 is_stmt 1 view .LVU111
 433 018c 5349     		ldr	r1, .L109
 434 018e 0B68     		ldr	r3, [r1]
 435 0190 F822     		movs	r2, #248
 436 0192 9343     		bics	r3, r2
 437 0194 2269     		ldr	r2, [r4, #16]
 438 0196 D200     		lsls	r2, r2, #3
 439 0198 1343     		orrs	r3, r2
 440 019a 0B60     		str	r3, [r1]
 441 019c DDE7     		b	.L18
 442              	.LVL18:
 443              	.L22:
 378:Drivers/STM32F0xx_HAL_Driver/Src/stm32f0xx_hal_rcc.c ****         
 444              		.loc 1 378 9 view .LVU112
 445 019e 4F4A     		ldr	r2, .L109
 446 01a0 1368     		ldr	r3, [r2]
 447 01a2 0121     		movs	r1, #1
 448 01a4 8B43     		bics	r3, r1
 449 01a6 1360     		str	r3, [r2]
 381:Drivers/STM32F0xx_HAL_Driver/Src/stm32f0xx_hal_rcc.c ****         
 450              		.loc 1 381 9 view .LVU113
 381:Drivers/STM32F0xx_HAL_Driver/Src/stm32f0xx_hal_rcc.c ****         
 451              		.loc 1 381 21 is_stmt 0 view .LVU114
 452 01a8 FFF7FEFF 		bl	HAL_GetTick
 453              	.LVL19:
 454 01ac 0500     		movs	r5, r0
ARM GAS  /tmp/ccD6GDME.s 			page 17


 455              	.LVL20:
 384:Drivers/STM32F0xx_HAL_Driver/Src/stm32f0xx_hal_rcc.c ****         {
 456              		.loc 1 384 9 is_stmt 1 view .LVU115
 457              	.L25:
 384:Drivers/STM32F0xx_HAL_Driver/Src/stm32f0xx_hal_rcc.c ****         {
 458              		.loc 1 384 15 is_stmt 0 view .LVU116
 459 01ae 4B4B     		ldr	r3, .L109
 460 01b0 1B68     		ldr	r3, [r3]
 384:Drivers/STM32F0xx_HAL_Driver/Src/stm32f0xx_hal_rcc.c ****         {
 461              		.loc 1 384 14 view .LVU117
 462 01b2 9B07     		lsls	r3, r3, #30
 463 01b4 D1D5     		bpl	.L18
 386:Drivers/STM32F0xx_HAL_Driver/Src/stm32f0xx_hal_rcc.c ****           {
 464              		.loc 1 386 11 is_stmt 1 view .LVU118
 386:Drivers/STM32F0xx_HAL_Driver/Src/stm32f0xx_hal_rcc.c ****           {
 465              		.loc 1 386 15 is_stmt 0 view .LVU119
 466 01b6 FFF7FEFF 		bl	HAL_GetTick
 467              	.LVL21:
 386:Drivers/STM32F0xx_HAL_Driver/Src/stm32f0xx_hal_rcc.c ****           {
 468              		.loc 1 386 29 view .LVU120
 469 01ba 401B     		subs	r0, r0, r5
 386:Drivers/STM32F0xx_HAL_Driver/Src/stm32f0xx_hal_rcc.c ****           {
 470              		.loc 1 386 13 view .LVU121
 471 01bc 0228     		cmp	r0, #2
 472 01be F6D9     		bls	.L25
 388:Drivers/STM32F0xx_HAL_Driver/Src/stm32f0xx_hal_rcc.c ****           }
 473              		.loc 1 388 20 view .LVU122
 474 01c0 0320     		movs	r0, #3
 475 01c2 8DE1     		b	.L8
 476              	.LVL22:
 477              	.L28:
 415:Drivers/STM32F0xx_HAL_Driver/Src/stm32f0xx_hal_rcc.c ****         }
 416:Drivers/STM32F0xx_HAL_Driver/Src/stm32f0xx_hal_rcc.c ****       }
 417:Drivers/STM32F0xx_HAL_Driver/Src/stm32f0xx_hal_rcc.c ****     }
 418:Drivers/STM32F0xx_HAL_Driver/Src/stm32f0xx_hal_rcc.c ****     else
 419:Drivers/STM32F0xx_HAL_Driver/Src/stm32f0xx_hal_rcc.c ****     {
 420:Drivers/STM32F0xx_HAL_Driver/Src/stm32f0xx_hal_rcc.c ****       /* Disable the Internal Low Speed oscillator (LSI). */
 421:Drivers/STM32F0xx_HAL_Driver/Src/stm32f0xx_hal_rcc.c ****       __HAL_RCC_LSI_DISABLE();
 478              		.loc 1 421 7 is_stmt 1 view .LVU123
 479 01c4 454A     		ldr	r2, .L109
 480 01c6 536A     		ldr	r3, [r2, #36]
 481 01c8 0121     		movs	r1, #1
 482 01ca 8B43     		bics	r3, r1
 483 01cc 5362     		str	r3, [r2, #36]
 422:Drivers/STM32F0xx_HAL_Driver/Src/stm32f0xx_hal_rcc.c ****       
 423:Drivers/STM32F0xx_HAL_Driver/Src/stm32f0xx_hal_rcc.c ****       /* Get Start Tick */
 424:Drivers/STM32F0xx_HAL_Driver/Src/stm32f0xx_hal_rcc.c ****       tickstart = HAL_GetTick();
 484              		.loc 1 424 7 view .LVU124
 485              		.loc 1 424 19 is_stmt 0 view .LVU125
 486 01ce FFF7FEFF 		bl	HAL_GetTick
 487              	.LVL23:
 488 01d2 0500     		movs	r5, r0
 489              	.LVL24:
 425:Drivers/STM32F0xx_HAL_Driver/Src/stm32f0xx_hal_rcc.c ****       
 426:Drivers/STM32F0xx_HAL_Driver/Src/stm32f0xx_hal_rcc.c ****       /* Wait till LSI is disabled */  
 427:Drivers/STM32F0xx_HAL_Driver/Src/stm32f0xx_hal_rcc.c ****       while(__HAL_RCC_GET_FLAG(RCC_FLAG_LSIRDY) != RESET)
 490              		.loc 1 427 7 is_stmt 1 view .LVU126
ARM GAS  /tmp/ccD6GDME.s 			page 18


 491              	.L31:
 492              		.loc 1 427 13 is_stmt 0 view .LVU127
 493 01d4 414B     		ldr	r3, .L109
 494 01d6 5B6A     		ldr	r3, [r3, #36]
 495              		.loc 1 427 12 view .LVU128
 496 01d8 9B07     		lsls	r3, r3, #30
 497 01da 06D5     		bpl	.L27
 428:Drivers/STM32F0xx_HAL_Driver/Src/stm32f0xx_hal_rcc.c ****       {
 429:Drivers/STM32F0xx_HAL_Driver/Src/stm32f0xx_hal_rcc.c ****         if((HAL_GetTick() - tickstart ) > LSI_TIMEOUT_VALUE)
 498              		.loc 1 429 9 is_stmt 1 view .LVU129
 499              		.loc 1 429 13 is_stmt 0 view .LVU130
 500 01dc FFF7FEFF 		bl	HAL_GetTick
 501              	.LVL25:
 502              		.loc 1 429 27 view .LVU131
 503 01e0 401B     		subs	r0, r0, r5
 504              		.loc 1 429 11 view .LVU132
 505 01e2 0228     		cmp	r0, #2
 506 01e4 F6D9     		bls	.L31
 430:Drivers/STM32F0xx_HAL_Driver/Src/stm32f0xx_hal_rcc.c ****         {
 431:Drivers/STM32F0xx_HAL_Driver/Src/stm32f0xx_hal_rcc.c ****           return HAL_TIMEOUT;
 507              		.loc 1 431 18 view .LVU133
 508 01e6 0320     		movs	r0, #3
 509 01e8 7AE1     		b	.L8
 510              	.LVL26:
 511              	.L27:
 432:Drivers/STM32F0xx_HAL_Driver/Src/stm32f0xx_hal_rcc.c ****         }
 433:Drivers/STM32F0xx_HAL_Driver/Src/stm32f0xx_hal_rcc.c ****       }
 434:Drivers/STM32F0xx_HAL_Driver/Src/stm32f0xx_hal_rcc.c ****     }
 435:Drivers/STM32F0xx_HAL_Driver/Src/stm32f0xx_hal_rcc.c ****   }
 436:Drivers/STM32F0xx_HAL_Driver/Src/stm32f0xx_hal_rcc.c ****   /*------------------------------ LSE Configuration -------------------------*/ 
 437:Drivers/STM32F0xx_HAL_Driver/Src/stm32f0xx_hal_rcc.c ****   if(((RCC_OscInitStruct->OscillatorType) & RCC_OSCILLATORTYPE_LSE) == RCC_OSCILLATORTYPE_LSE)
 512              		.loc 1 437 3 is_stmt 1 view .LVU134
 513              		.loc 1 437 5 is_stmt 0 view .LVU135
 514 01ea 2368     		ldr	r3, [r4]
 515 01ec 5B07     		lsls	r3, r3, #29
 516 01ee 00D4     		bmi	.LCB481
 517 01f0 80E0     		b	.L33	@long jump
 518              	.LCB481:
 519              	.LBB2:
 438:Drivers/STM32F0xx_HAL_Driver/Src/stm32f0xx_hal_rcc.c ****   {
 439:Drivers/STM32F0xx_HAL_Driver/Src/stm32f0xx_hal_rcc.c ****     FlagStatus       pwrclkchanged = RESET;
 520              		.loc 1 439 5 is_stmt 1 view .LVU136
 521              	.LVL27:
 440:Drivers/STM32F0xx_HAL_Driver/Src/stm32f0xx_hal_rcc.c ****     
 441:Drivers/STM32F0xx_HAL_Driver/Src/stm32f0xx_hal_rcc.c ****     /* Check the parameters */
 442:Drivers/STM32F0xx_HAL_Driver/Src/stm32f0xx_hal_rcc.c ****     assert_param(IS_RCC_LSE(RCC_OscInitStruct->LSEState));
 522              		.loc 1 442 5 view .LVU137
 443:Drivers/STM32F0xx_HAL_Driver/Src/stm32f0xx_hal_rcc.c **** 
 444:Drivers/STM32F0xx_HAL_Driver/Src/stm32f0xx_hal_rcc.c ****     /* Update LSE configuration in Backup Domain control register    */
 445:Drivers/STM32F0xx_HAL_Driver/Src/stm32f0xx_hal_rcc.c ****     /* Requires to enable write access to Backup Domain of necessary */
 446:Drivers/STM32F0xx_HAL_Driver/Src/stm32f0xx_hal_rcc.c ****     if(__HAL_RCC_PWR_IS_CLK_DISABLED())
 523              		.loc 1 446 5 view .LVU138
 524              		.loc 1 446 8 is_stmt 0 view .LVU139
 525 01f2 3A4B     		ldr	r3, .L109
 526 01f4 DB69     		ldr	r3, [r3, #28]
 527              		.loc 1 446 7 view .LVU140
 528 01f6 DB00     		lsls	r3, r3, #3
ARM GAS  /tmp/ccD6GDME.s 			page 19


 529 01f8 0BD4     		bmi	.L78
 447:Drivers/STM32F0xx_HAL_Driver/Src/stm32f0xx_hal_rcc.c ****     {
 448:Drivers/STM32F0xx_HAL_Driver/Src/stm32f0xx_hal_rcc.c ****       __HAL_RCC_PWR_CLK_ENABLE();
 530              		.loc 1 448 7 is_stmt 1 view .LVU141
 531              	.LBB3:
 532              		.loc 1 448 7 view .LVU142
 533              		.loc 1 448 7 view .LVU143
 534 01fa 384A     		ldr	r2, .L109
 535 01fc D169     		ldr	r1, [r2, #28]
 536 01fe 8020     		movs	r0, #128
 537 0200 4005     		lsls	r0, r0, #21
 538 0202 0143     		orrs	r1, r0
 539 0204 D161     		str	r1, [r2, #28]
 540              		.loc 1 448 7 view .LVU144
 541 0206 D369     		ldr	r3, [r2, #28]
 542 0208 0340     		ands	r3, r0
 543 020a 0193     		str	r3, [sp, #4]
 544              		.loc 1 448 7 view .LVU145
 545 020c 019B     		ldr	r3, [sp, #4]
 546              	.LBE3:
 449:Drivers/STM32F0xx_HAL_Driver/Src/stm32f0xx_hal_rcc.c ****       pwrclkchanged = SET;
 547              		.loc 1 449 7 view .LVU146
 548              	.LVL28:
 549              		.loc 1 449 21 is_stmt 0 view .LVU147
 550 020e 0125     		movs	r5, #1
 551 0210 00E0     		b	.L34
 552              	.LVL29:
 553              	.L78:
 439:Drivers/STM32F0xx_HAL_Driver/Src/stm32f0xx_hal_rcc.c ****     
 554              		.loc 1 439 22 view .LVU148
 555 0212 0025     		movs	r5, #0
 556              	.LVL30:
 557              	.L34:
 450:Drivers/STM32F0xx_HAL_Driver/Src/stm32f0xx_hal_rcc.c ****     }
 451:Drivers/STM32F0xx_HAL_Driver/Src/stm32f0xx_hal_rcc.c ****     
 452:Drivers/STM32F0xx_HAL_Driver/Src/stm32f0xx_hal_rcc.c ****     if(HAL_IS_BIT_CLR(PWR->CR, PWR_CR_DBP))
 558              		.loc 1 452 5 is_stmt 1 view .LVU149
 559              		.loc 1 452 8 is_stmt 0 view .LVU150
 560 0214 344B     		ldr	r3, .L109+12
 561 0216 1B68     		ldr	r3, [r3]
 562              		.loc 1 452 7 view .LVU151
 563 0218 DB05     		lsls	r3, r3, #23
 564 021a 0ED5     		bpl	.L98
 565              	.L35:
 453:Drivers/STM32F0xx_HAL_Driver/Src/stm32f0xx_hal_rcc.c ****     {
 454:Drivers/STM32F0xx_HAL_Driver/Src/stm32f0xx_hal_rcc.c ****       /* Enable write access to Backup domain */
 455:Drivers/STM32F0xx_HAL_Driver/Src/stm32f0xx_hal_rcc.c ****       SET_BIT(PWR->CR, PWR_CR_DBP);
 456:Drivers/STM32F0xx_HAL_Driver/Src/stm32f0xx_hal_rcc.c ****       
 457:Drivers/STM32F0xx_HAL_Driver/Src/stm32f0xx_hal_rcc.c ****       /* Wait for Backup domain Write protection disable */
 458:Drivers/STM32F0xx_HAL_Driver/Src/stm32f0xx_hal_rcc.c ****       tickstart = HAL_GetTick();
 459:Drivers/STM32F0xx_HAL_Driver/Src/stm32f0xx_hal_rcc.c **** 
 460:Drivers/STM32F0xx_HAL_Driver/Src/stm32f0xx_hal_rcc.c ****       while(HAL_IS_BIT_CLR(PWR->CR, PWR_CR_DBP))
 461:Drivers/STM32F0xx_HAL_Driver/Src/stm32f0xx_hal_rcc.c ****       {
 462:Drivers/STM32F0xx_HAL_Driver/Src/stm32f0xx_hal_rcc.c ****         if((HAL_GetTick() - tickstart) > RCC_DBP_TIMEOUT_VALUE)
 463:Drivers/STM32F0xx_HAL_Driver/Src/stm32f0xx_hal_rcc.c ****         {
 464:Drivers/STM32F0xx_HAL_Driver/Src/stm32f0xx_hal_rcc.c ****           return HAL_TIMEOUT;
 465:Drivers/STM32F0xx_HAL_Driver/Src/stm32f0xx_hal_rcc.c ****         }
ARM GAS  /tmp/ccD6GDME.s 			page 20


 466:Drivers/STM32F0xx_HAL_Driver/Src/stm32f0xx_hal_rcc.c ****       }
 467:Drivers/STM32F0xx_HAL_Driver/Src/stm32f0xx_hal_rcc.c ****     }
 468:Drivers/STM32F0xx_HAL_Driver/Src/stm32f0xx_hal_rcc.c **** 
 469:Drivers/STM32F0xx_HAL_Driver/Src/stm32f0xx_hal_rcc.c ****     /* Set the new LSE configuration -----------------------------------------*/
 470:Drivers/STM32F0xx_HAL_Driver/Src/stm32f0xx_hal_rcc.c ****     __HAL_RCC_LSE_CONFIG(RCC_OscInitStruct->LSEState);
 566              		.loc 1 470 5 is_stmt 1 view .LVU152
 567              		.loc 1 470 5 view .LVU153
 568 021c A368     		ldr	r3, [r4, #8]
 569 021e 012B     		cmp	r3, #1
 570 0220 1FD0     		beq	.L99
 571              		.loc 1 470 5 discriminator 2 view .LVU154
 572 0222 002B     		cmp	r3, #0
 573 0224 34D1     		bne	.L40
 574              		.loc 1 470 5 discriminator 3 view .LVU155
 575 0226 2D4B     		ldr	r3, .L109
 576 0228 1A6A     		ldr	r2, [r3, #32]
 577 022a 0121     		movs	r1, #1
 578 022c 8A43     		bics	r2, r1
 579 022e 1A62     		str	r2, [r3, #32]
 580              		.loc 1 470 5 discriminator 3 view .LVU156
 581 0230 1A6A     		ldr	r2, [r3, #32]
 582 0232 0331     		adds	r1, r1, #3
 583 0234 8A43     		bics	r2, r1
 584 0236 1A62     		str	r2, [r3, #32]
 585 0238 18E0     		b	.L39
 586              	.L98:
 455:Drivers/STM32F0xx_HAL_Driver/Src/stm32f0xx_hal_rcc.c ****       
 587              		.loc 1 455 7 view .LVU157
 588 023a 2B4A     		ldr	r2, .L109+12
 589 023c 1168     		ldr	r1, [r2]
 590 023e 8023     		movs	r3, #128
 591 0240 5B00     		lsls	r3, r3, #1
 592 0242 0B43     		orrs	r3, r1
 593 0244 1360     		str	r3, [r2]
 458:Drivers/STM32F0xx_HAL_Driver/Src/stm32f0xx_hal_rcc.c **** 
 594              		.loc 1 458 7 view .LVU158
 458:Drivers/STM32F0xx_HAL_Driver/Src/stm32f0xx_hal_rcc.c **** 
 595              		.loc 1 458 19 is_stmt 0 view .LVU159
 596 0246 FFF7FEFF 		bl	HAL_GetTick
 597              	.LVL31:
 598 024a 0600     		movs	r6, r0
 599              	.LVL32:
 460:Drivers/STM32F0xx_HAL_Driver/Src/stm32f0xx_hal_rcc.c ****       {
 600              		.loc 1 460 7 is_stmt 1 view .LVU160
 601              	.L36:
 460:Drivers/STM32F0xx_HAL_Driver/Src/stm32f0xx_hal_rcc.c ****       {
 602              		.loc 1 460 13 is_stmt 0 view .LVU161
 603 024c 264B     		ldr	r3, .L109+12
 604 024e 1B68     		ldr	r3, [r3]
 460:Drivers/STM32F0xx_HAL_Driver/Src/stm32f0xx_hal_rcc.c ****       {
 605              		.loc 1 460 12 view .LVU162
 606 0250 DB05     		lsls	r3, r3, #23
 607 0252 E3D4     		bmi	.L35
 462:Drivers/STM32F0xx_HAL_Driver/Src/stm32f0xx_hal_rcc.c ****         {
 608              		.loc 1 462 9 is_stmt 1 view .LVU163
 462:Drivers/STM32F0xx_HAL_Driver/Src/stm32f0xx_hal_rcc.c ****         {
 609              		.loc 1 462 13 is_stmt 0 view .LVU164
ARM GAS  /tmp/ccD6GDME.s 			page 21


 610 0254 FFF7FEFF 		bl	HAL_GetTick
 611              	.LVL33:
 462:Drivers/STM32F0xx_HAL_Driver/Src/stm32f0xx_hal_rcc.c ****         {
 612              		.loc 1 462 27 view .LVU165
 613 0258 801B     		subs	r0, r0, r6
 462:Drivers/STM32F0xx_HAL_Driver/Src/stm32f0xx_hal_rcc.c ****         {
 614              		.loc 1 462 11 view .LVU166
 615 025a 6428     		cmp	r0, #100
 616 025c F6D9     		bls	.L36
 464:Drivers/STM32F0xx_HAL_Driver/Src/stm32f0xx_hal_rcc.c ****         }
 617              		.loc 1 464 18 view .LVU167
 618 025e 0320     		movs	r0, #3
 619 0260 3EE1     		b	.L8
 620              	.LVL34:
 621              	.L99:
 622              		.loc 1 470 5 is_stmt 1 discriminator 1 view .LVU168
 623 0262 1E4A     		ldr	r2, .L109
 624 0264 136A     		ldr	r3, [r2, #32]
 625 0266 0121     		movs	r1, #1
 626 0268 0B43     		orrs	r3, r1
 627 026a 1362     		str	r3, [r2, #32]
 628              	.L39:
 471:Drivers/STM32F0xx_HAL_Driver/Src/stm32f0xx_hal_rcc.c ****     /* Check the LSE State */
 472:Drivers/STM32F0xx_HAL_Driver/Src/stm32f0xx_hal_rcc.c ****     if(RCC_OscInitStruct->LSEState != RCC_LSE_OFF)
 629              		.loc 1 472 5 view .LVU169
 630              		.loc 1 472 7 is_stmt 0 view .LVU170
 631 026c A368     		ldr	r3, [r4, #8]
 632 026e 002B     		cmp	r3, #0
 633 0270 24D0     		beq	.L42
 473:Drivers/STM32F0xx_HAL_Driver/Src/stm32f0xx_hal_rcc.c ****     {
 474:Drivers/STM32F0xx_HAL_Driver/Src/stm32f0xx_hal_rcc.c ****       /* Get Start Tick */
 475:Drivers/STM32F0xx_HAL_Driver/Src/stm32f0xx_hal_rcc.c ****       tickstart = HAL_GetTick();
 634              		.loc 1 475 7 is_stmt 1 view .LVU171
 635              		.loc 1 475 19 is_stmt 0 view .LVU172
 636 0272 FFF7FEFF 		bl	HAL_GetTick
 637              	.LVL35:
 638 0276 0600     		movs	r6, r0
 639              	.LVL36:
 476:Drivers/STM32F0xx_HAL_Driver/Src/stm32f0xx_hal_rcc.c ****       
 477:Drivers/STM32F0xx_HAL_Driver/Src/stm32f0xx_hal_rcc.c ****       /* Wait till LSE is ready */  
 478:Drivers/STM32F0xx_HAL_Driver/Src/stm32f0xx_hal_rcc.c ****       while(__HAL_RCC_GET_FLAG(RCC_FLAG_LSERDY) == RESET)
 640              		.loc 1 478 7 is_stmt 1 view .LVU173
 641              	.L43:
 642              		.loc 1 478 13 is_stmt 0 view .LVU174
 643 0278 184B     		ldr	r3, .L109
 644 027a 1B6A     		ldr	r3, [r3, #32]
 645              		.loc 1 478 12 view .LVU175
 646 027c 9B07     		lsls	r3, r3, #30
 647 027e 37D4     		bmi	.L45
 479:Drivers/STM32F0xx_HAL_Driver/Src/stm32f0xx_hal_rcc.c ****       {
 480:Drivers/STM32F0xx_HAL_Driver/Src/stm32f0xx_hal_rcc.c ****         if((HAL_GetTick() - tickstart ) > RCC_LSE_TIMEOUT_VALUE)
 648              		.loc 1 480 9 is_stmt 1 view .LVU176
 649              		.loc 1 480 13 is_stmt 0 view .LVU177
 650 0280 FFF7FEFF 		bl	HAL_GetTick
 651              	.LVL37:
 652              		.loc 1 480 27 view .LVU178
 653 0284 801B     		subs	r0, r0, r6
ARM GAS  /tmp/ccD6GDME.s 			page 22


 654              		.loc 1 480 11 view .LVU179
 655 0286 194B     		ldr	r3, .L109+16
 656 0288 9842     		cmp	r0, r3
 657 028a F5D9     		bls	.L43
 481:Drivers/STM32F0xx_HAL_Driver/Src/stm32f0xx_hal_rcc.c ****         {
 482:Drivers/STM32F0xx_HAL_Driver/Src/stm32f0xx_hal_rcc.c ****           return HAL_TIMEOUT;
 658              		.loc 1 482 18 view .LVU180
 659 028c 0320     		movs	r0, #3
 660 028e 27E1     		b	.L8
 661              	.LVL38:
 662              	.L40:
 470:Drivers/STM32F0xx_HAL_Driver/Src/stm32f0xx_hal_rcc.c ****     /* Check the LSE State */
 663              		.loc 1 470 5 is_stmt 1 discriminator 4 view .LVU181
 664 0290 052B     		cmp	r3, #5
 665 0292 09D0     		beq	.L100
 470:Drivers/STM32F0xx_HAL_Driver/Src/stm32f0xx_hal_rcc.c ****     /* Check the LSE State */
 666              		.loc 1 470 5 discriminator 6 view .LVU182
 667 0294 114B     		ldr	r3, .L109
 668 0296 1A6A     		ldr	r2, [r3, #32]
 669 0298 0121     		movs	r1, #1
 670 029a 8A43     		bics	r2, r1
 671 029c 1A62     		str	r2, [r3, #32]
 470:Drivers/STM32F0xx_HAL_Driver/Src/stm32f0xx_hal_rcc.c ****     /* Check the LSE State */
 672              		.loc 1 470 5 discriminator 6 view .LVU183
 673 029e 1A6A     		ldr	r2, [r3, #32]
 674 02a0 0331     		adds	r1, r1, #3
 675 02a2 8A43     		bics	r2, r1
 676 02a4 1A62     		str	r2, [r3, #32]
 677 02a6 E1E7     		b	.L39
 678              	.L100:
 470:Drivers/STM32F0xx_HAL_Driver/Src/stm32f0xx_hal_rcc.c ****     /* Check the LSE State */
 679              		.loc 1 470 5 discriminator 5 view .LVU184
 680 02a8 0C4B     		ldr	r3, .L109
 681 02aa 1A6A     		ldr	r2, [r3, #32]
 682 02ac 0421     		movs	r1, #4
 683 02ae 0A43     		orrs	r2, r1
 684 02b0 1A62     		str	r2, [r3, #32]
 470:Drivers/STM32F0xx_HAL_Driver/Src/stm32f0xx_hal_rcc.c ****     /* Check the LSE State */
 685              		.loc 1 470 5 discriminator 5 view .LVU185
 686 02b2 1A6A     		ldr	r2, [r3, #32]
 687 02b4 0339     		subs	r1, r1, #3
 688 02b6 0A43     		orrs	r2, r1
 689 02b8 1A62     		str	r2, [r3, #32]
 690 02ba D7E7     		b	.L39
 691              	.L42:
 483:Drivers/STM32F0xx_HAL_Driver/Src/stm32f0xx_hal_rcc.c ****         }
 484:Drivers/STM32F0xx_HAL_Driver/Src/stm32f0xx_hal_rcc.c ****       }
 485:Drivers/STM32F0xx_HAL_Driver/Src/stm32f0xx_hal_rcc.c ****     }
 486:Drivers/STM32F0xx_HAL_Driver/Src/stm32f0xx_hal_rcc.c ****     else
 487:Drivers/STM32F0xx_HAL_Driver/Src/stm32f0xx_hal_rcc.c ****     {
 488:Drivers/STM32F0xx_HAL_Driver/Src/stm32f0xx_hal_rcc.c ****       /* Get Start Tick */
 489:Drivers/STM32F0xx_HAL_Driver/Src/stm32f0xx_hal_rcc.c ****       tickstart = HAL_GetTick();
 692              		.loc 1 489 7 view .LVU186
 693              		.loc 1 489 19 is_stmt 0 view .LVU187
 694 02bc FFF7FEFF 		bl	HAL_GetTick
 695              	.LVL39:
 696 02c0 0600     		movs	r6, r0
ARM GAS  /tmp/ccD6GDME.s 			page 23


 697              	.LVL40:
 490:Drivers/STM32F0xx_HAL_Driver/Src/stm32f0xx_hal_rcc.c ****       
 491:Drivers/STM32F0xx_HAL_Driver/Src/stm32f0xx_hal_rcc.c ****       /* Wait till LSE is disabled */  
 492:Drivers/STM32F0xx_HAL_Driver/Src/stm32f0xx_hal_rcc.c ****       while(__HAL_RCC_GET_FLAG(RCC_FLAG_LSERDY) != RESET)
 698              		.loc 1 492 7 is_stmt 1 view .LVU188
 699              	.L46:
 700              		.loc 1 492 13 is_stmt 0 view .LVU189
 701 02c2 064B     		ldr	r3, .L109
 702 02c4 1B6A     		ldr	r3, [r3, #32]
 703              		.loc 1 492 12 view .LVU190
 704 02c6 9B07     		lsls	r3, r3, #30
 705 02c8 12D5     		bpl	.L45
 493:Drivers/STM32F0xx_HAL_Driver/Src/stm32f0xx_hal_rcc.c ****       {
 494:Drivers/STM32F0xx_HAL_Driver/Src/stm32f0xx_hal_rcc.c ****         if((HAL_GetTick() - tickstart ) > RCC_LSE_TIMEOUT_VALUE)
 706              		.loc 1 494 9 is_stmt 1 view .LVU191
 707              		.loc 1 494 13 is_stmt 0 view .LVU192
 708 02ca FFF7FEFF 		bl	HAL_GetTick
 709              	.LVL41:
 710              		.loc 1 494 27 view .LVU193
 711 02ce 801B     		subs	r0, r0, r6
 712              		.loc 1 494 11 view .LVU194
 713 02d0 064B     		ldr	r3, .L109+16
 714 02d2 9842     		cmp	r0, r3
 715 02d4 F5D9     		bls	.L46
 495:Drivers/STM32F0xx_HAL_Driver/Src/stm32f0xx_hal_rcc.c ****         {
 496:Drivers/STM32F0xx_HAL_Driver/Src/stm32f0xx_hal_rcc.c ****           return HAL_TIMEOUT;
 716              		.loc 1 496 18 view .LVU195
 717 02d6 0320     		movs	r0, #3
 718 02d8 02E1     		b	.L8
 719              	.L110:
 720 02da C046     		.align	2
 721              	.L109:
 722 02dc 00100240 		.word	1073876992
 723 02e0 FFFFFEFF 		.word	-65537
 724 02e4 FFFFFBFF 		.word	-262145
 725 02e8 00700040 		.word	1073770496
 726 02ec 88130000 		.word	5000
 727              	.L45:
 497:Drivers/STM32F0xx_HAL_Driver/Src/stm32f0xx_hal_rcc.c ****         }
 498:Drivers/STM32F0xx_HAL_Driver/Src/stm32f0xx_hal_rcc.c ****       }
 499:Drivers/STM32F0xx_HAL_Driver/Src/stm32f0xx_hal_rcc.c ****     }
 500:Drivers/STM32F0xx_HAL_Driver/Src/stm32f0xx_hal_rcc.c **** 
 501:Drivers/STM32F0xx_HAL_Driver/Src/stm32f0xx_hal_rcc.c ****     /* Require to disable power clock if necessary */
 502:Drivers/STM32F0xx_HAL_Driver/Src/stm32f0xx_hal_rcc.c ****     if(pwrclkchanged == SET)
 728              		.loc 1 502 5 is_stmt 1 view .LVU196
 729              		.loc 1 502 7 is_stmt 0 view .LVU197
 730 02f0 012D     		cmp	r5, #1
 731 02f2 39D0     		beq	.L101
 732              	.LVL42:
 733              	.L33:
 734              		.loc 1 502 7 view .LVU198
 735              	.LBE2:
 503:Drivers/STM32F0xx_HAL_Driver/Src/stm32f0xx_hal_rcc.c ****     {
 504:Drivers/STM32F0xx_HAL_Driver/Src/stm32f0xx_hal_rcc.c ****       __HAL_RCC_PWR_CLK_DISABLE();
 505:Drivers/STM32F0xx_HAL_Driver/Src/stm32f0xx_hal_rcc.c ****     }
 506:Drivers/STM32F0xx_HAL_Driver/Src/stm32f0xx_hal_rcc.c ****   }
 507:Drivers/STM32F0xx_HAL_Driver/Src/stm32f0xx_hal_rcc.c **** 
ARM GAS  /tmp/ccD6GDME.s 			page 24


 508:Drivers/STM32F0xx_HAL_Driver/Src/stm32f0xx_hal_rcc.c ****   /*----------------------------- HSI14 Configuration --------------------------*/
 509:Drivers/STM32F0xx_HAL_Driver/Src/stm32f0xx_hal_rcc.c ****   if(((RCC_OscInitStruct->OscillatorType) & RCC_OSCILLATORTYPE_HSI14) == RCC_OSCILLATORTYPE_HSI14)
 736              		.loc 1 509 3 is_stmt 1 view .LVU199
 737              		.loc 1 509 5 is_stmt 0 view .LVU200
 738 02f4 2368     		ldr	r3, [r4]
 739 02f6 DB06     		lsls	r3, r3, #27
 740 02f8 10D5     		bpl	.L48
 510:Drivers/STM32F0xx_HAL_Driver/Src/stm32f0xx_hal_rcc.c ****   {
 511:Drivers/STM32F0xx_HAL_Driver/Src/stm32f0xx_hal_rcc.c ****     /* Check the parameters */
 512:Drivers/STM32F0xx_HAL_Driver/Src/stm32f0xx_hal_rcc.c ****     assert_param(IS_RCC_HSI14(RCC_OscInitStruct->HSI14State));
 741              		.loc 1 512 5 is_stmt 1 view .LVU201
 513:Drivers/STM32F0xx_HAL_Driver/Src/stm32f0xx_hal_rcc.c ****     assert_param(IS_RCC_CALIBRATION_VALUE(RCC_OscInitStruct->HSI14CalibrationValue));
 742              		.loc 1 513 5 view .LVU202
 514:Drivers/STM32F0xx_HAL_Driver/Src/stm32f0xx_hal_rcc.c **** 
 515:Drivers/STM32F0xx_HAL_Driver/Src/stm32f0xx_hal_rcc.c ****     /* Check the HSI14 State */
 516:Drivers/STM32F0xx_HAL_Driver/Src/stm32f0xx_hal_rcc.c ****     if(RCC_OscInitStruct->HSI14State == RCC_HSI14_ON)
 743              		.loc 1 516 5 view .LVU203
 744              		.loc 1 516 25 is_stmt 0 view .LVU204
 745 02fa 6369     		ldr	r3, [r4, #20]
 746              		.loc 1 516 7 view .LVU205
 747 02fc 012B     		cmp	r3, #1
 748 02fe 39D0     		beq	.L102
 517:Drivers/STM32F0xx_HAL_Driver/Src/stm32f0xx_hal_rcc.c ****     {
 518:Drivers/STM32F0xx_HAL_Driver/Src/stm32f0xx_hal_rcc.c ****       /* Disable ADC control of the Internal High Speed oscillator HSI14 */
 519:Drivers/STM32F0xx_HAL_Driver/Src/stm32f0xx_hal_rcc.c ****       __HAL_RCC_HSI14ADC_DISABLE();
 520:Drivers/STM32F0xx_HAL_Driver/Src/stm32f0xx_hal_rcc.c **** 
 521:Drivers/STM32F0xx_HAL_Driver/Src/stm32f0xx_hal_rcc.c ****       /* Enable the Internal High Speed oscillator (HSI). */
 522:Drivers/STM32F0xx_HAL_Driver/Src/stm32f0xx_hal_rcc.c ****       __HAL_RCC_HSI14_ENABLE();
 523:Drivers/STM32F0xx_HAL_Driver/Src/stm32f0xx_hal_rcc.c **** 
 524:Drivers/STM32F0xx_HAL_Driver/Src/stm32f0xx_hal_rcc.c ****       /* Get Start Tick */
 525:Drivers/STM32F0xx_HAL_Driver/Src/stm32f0xx_hal_rcc.c ****       tickstart = HAL_GetTick();
 526:Drivers/STM32F0xx_HAL_Driver/Src/stm32f0xx_hal_rcc.c ****       
 527:Drivers/STM32F0xx_HAL_Driver/Src/stm32f0xx_hal_rcc.c ****       /* Wait till HSI is ready */  
 528:Drivers/STM32F0xx_HAL_Driver/Src/stm32f0xx_hal_rcc.c ****       while(__HAL_RCC_GET_FLAG(RCC_FLAG_HSI14RDY) == RESET)
 529:Drivers/STM32F0xx_HAL_Driver/Src/stm32f0xx_hal_rcc.c ****       {
 530:Drivers/STM32F0xx_HAL_Driver/Src/stm32f0xx_hal_rcc.c ****         if((HAL_GetTick() - tickstart) > HSI14_TIMEOUT_VALUE)
 531:Drivers/STM32F0xx_HAL_Driver/Src/stm32f0xx_hal_rcc.c ****         {
 532:Drivers/STM32F0xx_HAL_Driver/Src/stm32f0xx_hal_rcc.c ****           return HAL_TIMEOUT;
 533:Drivers/STM32F0xx_HAL_Driver/Src/stm32f0xx_hal_rcc.c ****         }      
 534:Drivers/STM32F0xx_HAL_Driver/Src/stm32f0xx_hal_rcc.c ****       } 
 535:Drivers/STM32F0xx_HAL_Driver/Src/stm32f0xx_hal_rcc.c **** 
 536:Drivers/STM32F0xx_HAL_Driver/Src/stm32f0xx_hal_rcc.c ****       /* Adjusts the Internal High Speed oscillator 14Mhz (HSI14) calibration value. */
 537:Drivers/STM32F0xx_HAL_Driver/Src/stm32f0xx_hal_rcc.c ****       __HAL_RCC_HSI14_CALIBRATIONVALUE_ADJUST(RCC_OscInitStruct->HSI14CalibrationValue);
 538:Drivers/STM32F0xx_HAL_Driver/Src/stm32f0xx_hal_rcc.c ****     }
 539:Drivers/STM32F0xx_HAL_Driver/Src/stm32f0xx_hal_rcc.c ****     else if(RCC_OscInitStruct->HSI14State == RCC_HSI14_ADC_CONTROL)
 749              		.loc 1 539 10 is_stmt 1 view .LVU206
 750              		.loc 1 539 12 is_stmt 0 view .LVU207
 751 0300 0533     		adds	r3, r3, #5
 752 0302 57D1     		bne	.L52
 540:Drivers/STM32F0xx_HAL_Driver/Src/stm32f0xx_hal_rcc.c ****     {
 541:Drivers/STM32F0xx_HAL_Driver/Src/stm32f0xx_hal_rcc.c ****       /* Enable ADC control of the Internal High Speed oscillator HSI14 */
 542:Drivers/STM32F0xx_HAL_Driver/Src/stm32f0xx_hal_rcc.c ****       __HAL_RCC_HSI14ADC_ENABLE();
 753              		.loc 1 542 7 is_stmt 1 view .LVU208
 754 0304 784A     		ldr	r2, .L111
 755 0306 536B     		ldr	r3, [r2, #52]
 756 0308 0421     		movs	r1, #4
 757 030a 8B43     		bics	r3, r1
ARM GAS  /tmp/ccD6GDME.s 			page 25


 758 030c 5363     		str	r3, [r2, #52]
 543:Drivers/STM32F0xx_HAL_Driver/Src/stm32f0xx_hal_rcc.c **** 
 544:Drivers/STM32F0xx_HAL_Driver/Src/stm32f0xx_hal_rcc.c ****       /* Adjusts the Internal High Speed oscillator 14Mhz (HSI14) calibration value. */
 545:Drivers/STM32F0xx_HAL_Driver/Src/stm32f0xx_hal_rcc.c ****       __HAL_RCC_HSI14_CALIBRATIONVALUE_ADJUST(RCC_OscInitStruct->HSI14CalibrationValue);
 759              		.loc 1 545 7 view .LVU209
 760 030e 536B     		ldr	r3, [r2, #52]
 761 0310 F431     		adds	r1, r1, #244
 762 0312 8B43     		bics	r3, r1
 763 0314 A169     		ldr	r1, [r4, #24]
 764 0316 C900     		lsls	r1, r1, #3
 765 0318 0B43     		orrs	r3, r1
 766 031a 5363     		str	r3, [r2, #52]
 767              	.L48:
 546:Drivers/STM32F0xx_HAL_Driver/Src/stm32f0xx_hal_rcc.c ****     }
 547:Drivers/STM32F0xx_HAL_Driver/Src/stm32f0xx_hal_rcc.c ****     else
 548:Drivers/STM32F0xx_HAL_Driver/Src/stm32f0xx_hal_rcc.c ****     {
 549:Drivers/STM32F0xx_HAL_Driver/Src/stm32f0xx_hal_rcc.c ****       /* Disable ADC control of the Internal High Speed oscillator HSI14 */
 550:Drivers/STM32F0xx_HAL_Driver/Src/stm32f0xx_hal_rcc.c ****       __HAL_RCC_HSI14ADC_DISABLE();
 551:Drivers/STM32F0xx_HAL_Driver/Src/stm32f0xx_hal_rcc.c **** 
 552:Drivers/STM32F0xx_HAL_Driver/Src/stm32f0xx_hal_rcc.c ****       /* Disable the Internal High Speed oscillator (HSI). */
 553:Drivers/STM32F0xx_HAL_Driver/Src/stm32f0xx_hal_rcc.c ****       __HAL_RCC_HSI14_DISABLE();
 554:Drivers/STM32F0xx_HAL_Driver/Src/stm32f0xx_hal_rcc.c **** 
 555:Drivers/STM32F0xx_HAL_Driver/Src/stm32f0xx_hal_rcc.c ****       /* Get Start Tick */
 556:Drivers/STM32F0xx_HAL_Driver/Src/stm32f0xx_hal_rcc.c ****       tickstart = HAL_GetTick();
 557:Drivers/STM32F0xx_HAL_Driver/Src/stm32f0xx_hal_rcc.c ****       
 558:Drivers/STM32F0xx_HAL_Driver/Src/stm32f0xx_hal_rcc.c ****       /* Wait till HSI is ready */  
 559:Drivers/STM32F0xx_HAL_Driver/Src/stm32f0xx_hal_rcc.c ****       while(__HAL_RCC_GET_FLAG(RCC_FLAG_HSI14RDY) != RESET)
 560:Drivers/STM32F0xx_HAL_Driver/Src/stm32f0xx_hal_rcc.c ****       {
 561:Drivers/STM32F0xx_HAL_Driver/Src/stm32f0xx_hal_rcc.c ****         if((HAL_GetTick() - tickstart) > HSI14_TIMEOUT_VALUE)
 562:Drivers/STM32F0xx_HAL_Driver/Src/stm32f0xx_hal_rcc.c ****         {
 563:Drivers/STM32F0xx_HAL_Driver/Src/stm32f0xx_hal_rcc.c ****           return HAL_TIMEOUT;
 564:Drivers/STM32F0xx_HAL_Driver/Src/stm32f0xx_hal_rcc.c ****         }
 565:Drivers/STM32F0xx_HAL_Driver/Src/stm32f0xx_hal_rcc.c ****       }
 566:Drivers/STM32F0xx_HAL_Driver/Src/stm32f0xx_hal_rcc.c ****     }
 567:Drivers/STM32F0xx_HAL_Driver/Src/stm32f0xx_hal_rcc.c ****   }
 568:Drivers/STM32F0xx_HAL_Driver/Src/stm32f0xx_hal_rcc.c **** 
 569:Drivers/STM32F0xx_HAL_Driver/Src/stm32f0xx_hal_rcc.c **** #if defined(RCC_HSI48_SUPPORT)
 570:Drivers/STM32F0xx_HAL_Driver/Src/stm32f0xx_hal_rcc.c ****   /*----------------------------- HSI48 Configuration --------------------------*/
 571:Drivers/STM32F0xx_HAL_Driver/Src/stm32f0xx_hal_rcc.c ****   if(((RCC_OscInitStruct->OscillatorType) & RCC_OSCILLATORTYPE_HSI48) == RCC_OSCILLATORTYPE_HSI48)
 768              		.loc 1 571 3 view .LVU210
 769              		.loc 1 571 5 is_stmt 0 view .LVU211
 770 031c 2368     		ldr	r3, [r4]
 771 031e 9B06     		lsls	r3, r3, #26
 772 0320 6DD5     		bpl	.L55
 572:Drivers/STM32F0xx_HAL_Driver/Src/stm32f0xx_hal_rcc.c ****   {
 573:Drivers/STM32F0xx_HAL_Driver/Src/stm32f0xx_hal_rcc.c ****     /* Check the parameters */
 574:Drivers/STM32F0xx_HAL_Driver/Src/stm32f0xx_hal_rcc.c ****     assert_param(IS_RCC_HSI48(RCC_OscInitStruct->HSI48State));
 773              		.loc 1 574 5 is_stmt 1 view .LVU212
 575:Drivers/STM32F0xx_HAL_Driver/Src/stm32f0xx_hal_rcc.c **** 
 576:Drivers/STM32F0xx_HAL_Driver/Src/stm32f0xx_hal_rcc.c ****     /* When the HSI48 is used as system clock it is not allowed to be disabled */
 577:Drivers/STM32F0xx_HAL_Driver/Src/stm32f0xx_hal_rcc.c ****     if((__HAL_RCC_GET_SYSCLK_SOURCE() == RCC_SYSCLKSOURCE_STATUS_HSI48) ||
 774              		.loc 1 577 5 view .LVU213
 775              		.loc 1 577 9 is_stmt 0 view .LVU214
 776 0322 714B     		ldr	r3, .L111
 777 0324 5A68     		ldr	r2, [r3, #4]
 778 0326 0C23     		movs	r3, #12
 779 0328 1340     		ands	r3, r2
ARM GAS  /tmp/ccD6GDME.s 			page 26


 780              		.loc 1 577 7 view .LVU215
 781 032a 0C2B     		cmp	r3, #12
 782 032c 60D0     		beq	.L56
 578:Drivers/STM32F0xx_HAL_Driver/Src/stm32f0xx_hal_rcc.c ****        ((__HAL_RCC_GET_SYSCLK_SOURCE() == RCC_SYSCLKSOURCE_STATUS_PLLCLK) && (__HAL_RCC_GET_PLL_OSC
 783              		.loc 1 578 10 discriminator 1 view .LVU216
 784 032e 6E4B     		ldr	r3, .L111
 785 0330 5A68     		ldr	r2, [r3, #4]
 786 0332 0C23     		movs	r3, #12
 787 0334 1340     		ands	r3, r2
 577:Drivers/STM32F0xx_HAL_Driver/Src/stm32f0xx_hal_rcc.c ****        ((__HAL_RCC_GET_SYSCLK_SOURCE() == RCC_SYSCLKSOURCE_STATUS_PLLCLK) && (__HAL_RCC_GET_PLL_OSC
 788              		.loc 1 577 73 discriminator 1 view .LVU217
 789 0336 082B     		cmp	r3, #8
 790 0338 53D0     		beq	.L103
 791              	.L57:
 579:Drivers/STM32F0xx_HAL_Driver/Src/stm32f0xx_hal_rcc.c ****     {
 580:Drivers/STM32F0xx_HAL_Driver/Src/stm32f0xx_hal_rcc.c ****       if((__HAL_RCC_GET_FLAG(RCC_FLAG_HSI48RDY) != RESET) && (RCC_OscInitStruct->HSI48State != RCC_
 581:Drivers/STM32F0xx_HAL_Driver/Src/stm32f0xx_hal_rcc.c ****       {
 582:Drivers/STM32F0xx_HAL_Driver/Src/stm32f0xx_hal_rcc.c ****         return HAL_ERROR;
 583:Drivers/STM32F0xx_HAL_Driver/Src/stm32f0xx_hal_rcc.c ****       }
 584:Drivers/STM32F0xx_HAL_Driver/Src/stm32f0xx_hal_rcc.c ****     }
 585:Drivers/STM32F0xx_HAL_Driver/Src/stm32f0xx_hal_rcc.c ****     else
 586:Drivers/STM32F0xx_HAL_Driver/Src/stm32f0xx_hal_rcc.c ****     {
 587:Drivers/STM32F0xx_HAL_Driver/Src/stm32f0xx_hal_rcc.c ****       /* Check the HSI48 State */
 588:Drivers/STM32F0xx_HAL_Driver/Src/stm32f0xx_hal_rcc.c ****       if(RCC_OscInitStruct->HSI48State != RCC_HSI48_OFF)
 792              		.loc 1 588 7 is_stmt 1 view .LVU218
 793              		.loc 1 588 9 is_stmt 0 view .LVU219
 794 033a 236A     		ldr	r3, [r4, #32]
 795 033c 002B     		cmp	r3, #0
 796 033e 7CD0     		beq	.L58
 589:Drivers/STM32F0xx_HAL_Driver/Src/stm32f0xx_hal_rcc.c ****       {
 590:Drivers/STM32F0xx_HAL_Driver/Src/stm32f0xx_hal_rcc.c ****         /* Enable the Internal High Speed oscillator (HSI48). */
 591:Drivers/STM32F0xx_HAL_Driver/Src/stm32f0xx_hal_rcc.c ****         __HAL_RCC_HSI48_ENABLE();
 797              		.loc 1 591 9 is_stmt 1 view .LVU220
 798 0340 694A     		ldr	r2, .L111
 799 0342 516B     		ldr	r1, [r2, #52]
 800 0344 8023     		movs	r3, #128
 801 0346 5B02     		lsls	r3, r3, #9
 802 0348 0B43     		orrs	r3, r1
 803 034a 5363     		str	r3, [r2, #52]
 592:Drivers/STM32F0xx_HAL_Driver/Src/stm32f0xx_hal_rcc.c **** 
 593:Drivers/STM32F0xx_HAL_Driver/Src/stm32f0xx_hal_rcc.c ****         /* Get Start Tick */
 594:Drivers/STM32F0xx_HAL_Driver/Src/stm32f0xx_hal_rcc.c ****         tickstart = HAL_GetTick();
 804              		.loc 1 594 9 view .LVU221
 805              		.loc 1 594 21 is_stmt 0 view .LVU222
 806 034c FFF7FEFF 		bl	HAL_GetTick
 807              	.LVL43:
 808 0350 0500     		movs	r5, r0
 809              	.LVL44:
 595:Drivers/STM32F0xx_HAL_Driver/Src/stm32f0xx_hal_rcc.c ****       
 596:Drivers/STM32F0xx_HAL_Driver/Src/stm32f0xx_hal_rcc.c ****         /* Wait till HSI48 is ready */  
 597:Drivers/STM32F0xx_HAL_Driver/Src/stm32f0xx_hal_rcc.c ****         while(__HAL_RCC_GET_FLAG(RCC_FLAG_HSI48RDY) == RESET)
 810              		.loc 1 597 9 is_stmt 1 view .LVU223
 811              	.L59:
 812              		.loc 1 597 15 is_stmt 0 view .LVU224
 813 0352 654B     		ldr	r3, .L111
 814 0354 5B6B     		ldr	r3, [r3, #52]
 815              		.loc 1 597 14 view .LVU225
ARM GAS  /tmp/ccD6GDME.s 			page 27


 816 0356 DB03     		lsls	r3, r3, #15
 817 0358 51D4     		bmi	.L55
 598:Drivers/STM32F0xx_HAL_Driver/Src/stm32f0xx_hal_rcc.c ****         {
 599:Drivers/STM32F0xx_HAL_Driver/Src/stm32f0xx_hal_rcc.c ****           if((HAL_GetTick() - tickstart) > HSI48_TIMEOUT_VALUE)
 818              		.loc 1 599 11 is_stmt 1 view .LVU226
 819              		.loc 1 599 15 is_stmt 0 view .LVU227
 820 035a FFF7FEFF 		bl	HAL_GetTick
 821              	.LVL45:
 822              		.loc 1 599 29 view .LVU228
 823 035e 401B     		subs	r0, r0, r5
 824              		.loc 1 599 13 view .LVU229
 825 0360 0228     		cmp	r0, #2
 826 0362 F6D9     		bls	.L59
 600:Drivers/STM32F0xx_HAL_Driver/Src/stm32f0xx_hal_rcc.c ****           {
 601:Drivers/STM32F0xx_HAL_Driver/Src/stm32f0xx_hal_rcc.c ****             return HAL_TIMEOUT;
 827              		.loc 1 601 20 view .LVU230
 828 0364 0320     		movs	r0, #3
 829 0366 BBE0     		b	.L8
 830              	.LVL46:
 831              	.L101:
 832              	.LBB4:
 504:Drivers/STM32F0xx_HAL_Driver/Src/stm32f0xx_hal_rcc.c ****     }
 833              		.loc 1 504 7 is_stmt 1 view .LVU231
 834 0368 5F4A     		ldr	r2, .L111
 835 036a D369     		ldr	r3, [r2, #28]
 836 036c 5F49     		ldr	r1, .L111+4
 837 036e 0B40     		ands	r3, r1
 838 0370 D361     		str	r3, [r2, #28]
 839 0372 BFE7     		b	.L33
 840              	.LVL47:
 841              	.L102:
 504:Drivers/STM32F0xx_HAL_Driver/Src/stm32f0xx_hal_rcc.c ****     }
 842              		.loc 1 504 7 is_stmt 0 view .LVU232
 843              	.LBE4:
 519:Drivers/STM32F0xx_HAL_Driver/Src/stm32f0xx_hal_rcc.c **** 
 844              		.loc 1 519 7 is_stmt 1 view .LVU233
 845 0374 5C4B     		ldr	r3, .L111
 846 0376 5A6B     		ldr	r2, [r3, #52]
 847 0378 0421     		movs	r1, #4
 848 037a 0A43     		orrs	r2, r1
 849 037c 5A63     		str	r2, [r3, #52]
 522:Drivers/STM32F0xx_HAL_Driver/Src/stm32f0xx_hal_rcc.c **** 
 850              		.loc 1 522 7 view .LVU234
 851 037e 5A6B     		ldr	r2, [r3, #52]
 852 0380 0339     		subs	r1, r1, #3
 853 0382 0A43     		orrs	r2, r1
 854 0384 5A63     		str	r2, [r3, #52]
 525:Drivers/STM32F0xx_HAL_Driver/Src/stm32f0xx_hal_rcc.c ****       
 855              		.loc 1 525 7 view .LVU235
 525:Drivers/STM32F0xx_HAL_Driver/Src/stm32f0xx_hal_rcc.c ****       
 856              		.loc 1 525 19 is_stmt 0 view .LVU236
 857 0386 FFF7FEFF 		bl	HAL_GetTick
 858              	.LVL48:
 859 038a 0500     		movs	r5, r0
 860              	.LVL49:
 528:Drivers/STM32F0xx_HAL_Driver/Src/stm32f0xx_hal_rcc.c ****       {
 861              		.loc 1 528 7 is_stmt 1 view .LVU237
ARM GAS  /tmp/ccD6GDME.s 			page 28


 862              	.L50:
 528:Drivers/STM32F0xx_HAL_Driver/Src/stm32f0xx_hal_rcc.c ****       {
 863              		.loc 1 528 13 is_stmt 0 view .LVU238
 864 038c 564B     		ldr	r3, .L111
 865 038e 5B6B     		ldr	r3, [r3, #52]
 528:Drivers/STM32F0xx_HAL_Driver/Src/stm32f0xx_hal_rcc.c ****       {
 866              		.loc 1 528 12 view .LVU239
 867 0390 9B07     		lsls	r3, r3, #30
 868 0392 06D4     		bmi	.L104
 530:Drivers/STM32F0xx_HAL_Driver/Src/stm32f0xx_hal_rcc.c ****         {
 869              		.loc 1 530 9 is_stmt 1 view .LVU240
 530:Drivers/STM32F0xx_HAL_Driver/Src/stm32f0xx_hal_rcc.c ****         {
 870              		.loc 1 530 13 is_stmt 0 view .LVU241
 871 0394 FFF7FEFF 		bl	HAL_GetTick
 872              	.LVL50:
 530:Drivers/STM32F0xx_HAL_Driver/Src/stm32f0xx_hal_rcc.c ****         {
 873              		.loc 1 530 27 view .LVU242
 874 0398 401B     		subs	r0, r0, r5
 530:Drivers/STM32F0xx_HAL_Driver/Src/stm32f0xx_hal_rcc.c ****         {
 875              		.loc 1 530 11 view .LVU243
 876 039a 0228     		cmp	r0, #2
 877 039c F6D9     		bls	.L50
 532:Drivers/STM32F0xx_HAL_Driver/Src/stm32f0xx_hal_rcc.c ****         }      
 878              		.loc 1 532 18 view .LVU244
 879 039e 0320     		movs	r0, #3
 880 03a0 9EE0     		b	.L8
 881              	.L104:
 537:Drivers/STM32F0xx_HAL_Driver/Src/stm32f0xx_hal_rcc.c ****     }
 882              		.loc 1 537 7 is_stmt 1 view .LVU245
 883 03a2 5149     		ldr	r1, .L111
 884 03a4 4B6B     		ldr	r3, [r1, #52]
 885 03a6 F822     		movs	r2, #248
 886 03a8 9343     		bics	r3, r2
 887 03aa A269     		ldr	r2, [r4, #24]
 888 03ac D200     		lsls	r2, r2, #3
 889 03ae 1343     		orrs	r3, r2
 890 03b0 4B63     		str	r3, [r1, #52]
 891 03b2 B3E7     		b	.L48
 892              	.LVL51:
 893              	.L52:
 550:Drivers/STM32F0xx_HAL_Driver/Src/stm32f0xx_hal_rcc.c **** 
 894              		.loc 1 550 7 view .LVU246
 895 03b4 4C4B     		ldr	r3, .L111
 896 03b6 5A6B     		ldr	r2, [r3, #52]
 897 03b8 0421     		movs	r1, #4
 898 03ba 0A43     		orrs	r2, r1
 899 03bc 5A63     		str	r2, [r3, #52]
 553:Drivers/STM32F0xx_HAL_Driver/Src/stm32f0xx_hal_rcc.c **** 
 900              		.loc 1 553 7 view .LVU247
 901 03be 5A6B     		ldr	r2, [r3, #52]
 902 03c0 0339     		subs	r1, r1, #3
 903 03c2 8A43     		bics	r2, r1
 904 03c4 5A63     		str	r2, [r3, #52]
 556:Drivers/STM32F0xx_HAL_Driver/Src/stm32f0xx_hal_rcc.c ****       
 905              		.loc 1 556 7 view .LVU248
 556:Drivers/STM32F0xx_HAL_Driver/Src/stm32f0xx_hal_rcc.c ****       
 906              		.loc 1 556 19 is_stmt 0 view .LVU249
ARM GAS  /tmp/ccD6GDME.s 			page 29


 907 03c6 FFF7FEFF 		bl	HAL_GetTick
 908              	.LVL52:
 909 03ca 0500     		movs	r5, r0
 910              	.LVL53:
 559:Drivers/STM32F0xx_HAL_Driver/Src/stm32f0xx_hal_rcc.c ****       {
 911              		.loc 1 559 7 is_stmt 1 view .LVU250
 912              	.L53:
 559:Drivers/STM32F0xx_HAL_Driver/Src/stm32f0xx_hal_rcc.c ****       {
 913              		.loc 1 559 13 is_stmt 0 view .LVU251
 914 03cc 464B     		ldr	r3, .L111
 915 03ce 5B6B     		ldr	r3, [r3, #52]
 559:Drivers/STM32F0xx_HAL_Driver/Src/stm32f0xx_hal_rcc.c ****       {
 916              		.loc 1 559 12 view .LVU252
 917 03d0 9B07     		lsls	r3, r3, #30
 918 03d2 A3D5     		bpl	.L48
 561:Drivers/STM32F0xx_HAL_Driver/Src/stm32f0xx_hal_rcc.c ****         {
 919              		.loc 1 561 9 is_stmt 1 view .LVU253
 561:Drivers/STM32F0xx_HAL_Driver/Src/stm32f0xx_hal_rcc.c ****         {
 920              		.loc 1 561 13 is_stmt 0 view .LVU254
 921 03d4 FFF7FEFF 		bl	HAL_GetTick
 922              	.LVL54:
 561:Drivers/STM32F0xx_HAL_Driver/Src/stm32f0xx_hal_rcc.c ****         {
 923              		.loc 1 561 27 view .LVU255
 924 03d8 401B     		subs	r0, r0, r5
 561:Drivers/STM32F0xx_HAL_Driver/Src/stm32f0xx_hal_rcc.c ****         {
 925              		.loc 1 561 11 view .LVU256
 926 03da 0228     		cmp	r0, #2
 927 03dc F6D9     		bls	.L53
 563:Drivers/STM32F0xx_HAL_Driver/Src/stm32f0xx_hal_rcc.c ****         }
 928              		.loc 1 563 18 view .LVU257
 929 03de 0320     		movs	r0, #3
 930 03e0 7EE0     		b	.L8
 931              	.LVL55:
 932              	.L103:
 578:Drivers/STM32F0xx_HAL_Driver/Src/stm32f0xx_hal_rcc.c ****     {
 933              		.loc 1 578 79 view .LVU258
 934 03e2 414B     		ldr	r3, .L111
 935 03e4 5B68     		ldr	r3, [r3, #4]
 936 03e6 C022     		movs	r2, #192
 937 03e8 5202     		lsls	r2, r2, #9
 938 03ea 1340     		ands	r3, r2
 578:Drivers/STM32F0xx_HAL_Driver/Src/stm32f0xx_hal_rcc.c ****     {
 939              		.loc 1 578 75 view .LVU259
 940 03ec 9342     		cmp	r3, r2
 941 03ee A4D1     		bne	.L57
 942              	.L56:
 580:Drivers/STM32F0xx_HAL_Driver/Src/stm32f0xx_hal_rcc.c ****       {
 943              		.loc 1 580 7 is_stmt 1 view .LVU260
 580:Drivers/STM32F0xx_HAL_Driver/Src/stm32f0xx_hal_rcc.c ****       {
 944              		.loc 1 580 11 is_stmt 0 view .LVU261
 945 03f0 3D4B     		ldr	r3, .L111
 946 03f2 5B6B     		ldr	r3, [r3, #52]
 580:Drivers/STM32F0xx_HAL_Driver/Src/stm32f0xx_hal_rcc.c ****       {
 947              		.loc 1 580 9 view .LVU262
 948 03f4 DB03     		lsls	r3, r3, #15
 949 03f6 02D5     		bpl	.L55
 580:Drivers/STM32F0xx_HAL_Driver/Src/stm32f0xx_hal_rcc.c ****       {
ARM GAS  /tmp/ccD6GDME.s 			page 30


 950              		.loc 1 580 59 discriminator 1 view .LVU263
 951 03f8 236A     		ldr	r3, [r4, #32]
 952 03fa 012B     		cmp	r3, #1
 953 03fc 6DD1     		bne	.L84
 954              	.L55:
 602:Drivers/STM32F0xx_HAL_Driver/Src/stm32f0xx_hal_rcc.c ****           }
 603:Drivers/STM32F0xx_HAL_Driver/Src/stm32f0xx_hal_rcc.c ****         } 
 604:Drivers/STM32F0xx_HAL_Driver/Src/stm32f0xx_hal_rcc.c ****       }
 605:Drivers/STM32F0xx_HAL_Driver/Src/stm32f0xx_hal_rcc.c ****       else
 606:Drivers/STM32F0xx_HAL_Driver/Src/stm32f0xx_hal_rcc.c ****       {
 607:Drivers/STM32F0xx_HAL_Driver/Src/stm32f0xx_hal_rcc.c ****         /* Disable the Internal High Speed oscillator (HSI48). */
 608:Drivers/STM32F0xx_HAL_Driver/Src/stm32f0xx_hal_rcc.c ****         __HAL_RCC_HSI48_DISABLE();
 609:Drivers/STM32F0xx_HAL_Driver/Src/stm32f0xx_hal_rcc.c **** 
 610:Drivers/STM32F0xx_HAL_Driver/Src/stm32f0xx_hal_rcc.c ****         /* Get Start Tick */
 611:Drivers/STM32F0xx_HAL_Driver/Src/stm32f0xx_hal_rcc.c ****         tickstart = HAL_GetTick();
 612:Drivers/STM32F0xx_HAL_Driver/Src/stm32f0xx_hal_rcc.c ****       
 613:Drivers/STM32F0xx_HAL_Driver/Src/stm32f0xx_hal_rcc.c ****         /* Wait till HSI48 is ready */  
 614:Drivers/STM32F0xx_HAL_Driver/Src/stm32f0xx_hal_rcc.c ****         while(__HAL_RCC_GET_FLAG(RCC_FLAG_HSI48RDY) != RESET)
 615:Drivers/STM32F0xx_HAL_Driver/Src/stm32f0xx_hal_rcc.c ****         {
 616:Drivers/STM32F0xx_HAL_Driver/Src/stm32f0xx_hal_rcc.c ****           if((HAL_GetTick() - tickstart) > HSI48_TIMEOUT_VALUE)
 617:Drivers/STM32F0xx_HAL_Driver/Src/stm32f0xx_hal_rcc.c ****           {
 618:Drivers/STM32F0xx_HAL_Driver/Src/stm32f0xx_hal_rcc.c ****             return HAL_TIMEOUT;
 619:Drivers/STM32F0xx_HAL_Driver/Src/stm32f0xx_hal_rcc.c ****           }
 620:Drivers/STM32F0xx_HAL_Driver/Src/stm32f0xx_hal_rcc.c ****         }
 621:Drivers/STM32F0xx_HAL_Driver/Src/stm32f0xx_hal_rcc.c ****       }
 622:Drivers/STM32F0xx_HAL_Driver/Src/stm32f0xx_hal_rcc.c ****     }
 623:Drivers/STM32F0xx_HAL_Driver/Src/stm32f0xx_hal_rcc.c ****   }
 624:Drivers/STM32F0xx_HAL_Driver/Src/stm32f0xx_hal_rcc.c **** #endif /* RCC_HSI48_SUPPORT */
 625:Drivers/STM32F0xx_HAL_Driver/Src/stm32f0xx_hal_rcc.c ****        
 626:Drivers/STM32F0xx_HAL_Driver/Src/stm32f0xx_hal_rcc.c ****   /*-------------------------------- PLL Configuration -----------------------*/
 627:Drivers/STM32F0xx_HAL_Driver/Src/stm32f0xx_hal_rcc.c ****   /* Check the parameters */
 628:Drivers/STM32F0xx_HAL_Driver/Src/stm32f0xx_hal_rcc.c ****   assert_param(IS_RCC_PLL(RCC_OscInitStruct->PLL.PLLState));
 955              		.loc 1 628 3 is_stmt 1 view .LVU264
 629:Drivers/STM32F0xx_HAL_Driver/Src/stm32f0xx_hal_rcc.c ****   if ((RCC_OscInitStruct->PLL.PLLState) != RCC_PLL_NONE)
 956              		.loc 1 629 3 view .LVU265
 957              		.loc 1 629 30 is_stmt 0 view .LVU266
 958 03fe 636A     		ldr	r3, [r4, #36]
 959              		.loc 1 629 6 view .LVU267
 960 0400 002B     		cmp	r3, #0
 961 0402 6CD0     		beq	.L87
 630:Drivers/STM32F0xx_HAL_Driver/Src/stm32f0xx_hal_rcc.c ****   {
 631:Drivers/STM32F0xx_HAL_Driver/Src/stm32f0xx_hal_rcc.c ****     /* Check if the PLL is used as system clock or not */
 632:Drivers/STM32F0xx_HAL_Driver/Src/stm32f0xx_hal_rcc.c ****     if(__HAL_RCC_GET_SYSCLK_SOURCE() != RCC_SYSCLKSOURCE_STATUS_PLLCLK)
 962              		.loc 1 632 5 is_stmt 1 view .LVU268
 963              		.loc 1 632 8 is_stmt 0 view .LVU269
 964 0404 384A     		ldr	r2, .L111
 965 0406 5168     		ldr	r1, [r2, #4]
 966 0408 0C22     		movs	r2, #12
 967 040a 0A40     		ands	r2, r1
 968              		.loc 1 632 7 view .LVU270
 969 040c 082A     		cmp	r2, #8
 970 040e 69D0     		beq	.L88
 633:Drivers/STM32F0xx_HAL_Driver/Src/stm32f0xx_hal_rcc.c ****     { 
 634:Drivers/STM32F0xx_HAL_Driver/Src/stm32f0xx_hal_rcc.c ****       if((RCC_OscInitStruct->PLL.PLLState) == RCC_PLL_ON)
 971              		.loc 1 634 7 is_stmt 1 view .LVU271
 972              		.loc 1 634 9 is_stmt 0 view .LVU272
 973 0410 022B     		cmp	r3, #2
ARM GAS  /tmp/ccD6GDME.s 			page 31


 974 0412 25D0     		beq	.L105
 635:Drivers/STM32F0xx_HAL_Driver/Src/stm32f0xx_hal_rcc.c ****       {
 636:Drivers/STM32F0xx_HAL_Driver/Src/stm32f0xx_hal_rcc.c ****         /* Check the parameters */
 637:Drivers/STM32F0xx_HAL_Driver/Src/stm32f0xx_hal_rcc.c ****         assert_param(IS_RCC_PLLSOURCE(RCC_OscInitStruct->PLL.PLLSource));
 638:Drivers/STM32F0xx_HAL_Driver/Src/stm32f0xx_hal_rcc.c ****         assert_param(IS_RCC_PLL_MUL(RCC_OscInitStruct->PLL.PLLMUL));
 639:Drivers/STM32F0xx_HAL_Driver/Src/stm32f0xx_hal_rcc.c ****         assert_param(IS_RCC_PREDIV(RCC_OscInitStruct->PLL.PREDIV));
 640:Drivers/STM32F0xx_HAL_Driver/Src/stm32f0xx_hal_rcc.c ****   
 641:Drivers/STM32F0xx_HAL_Driver/Src/stm32f0xx_hal_rcc.c ****         /* Disable the main PLL. */
 642:Drivers/STM32F0xx_HAL_Driver/Src/stm32f0xx_hal_rcc.c ****         __HAL_RCC_PLL_DISABLE();
 643:Drivers/STM32F0xx_HAL_Driver/Src/stm32f0xx_hal_rcc.c ****         
 644:Drivers/STM32F0xx_HAL_Driver/Src/stm32f0xx_hal_rcc.c ****         /* Get Start Tick */
 645:Drivers/STM32F0xx_HAL_Driver/Src/stm32f0xx_hal_rcc.c ****         tickstart = HAL_GetTick();
 646:Drivers/STM32F0xx_HAL_Driver/Src/stm32f0xx_hal_rcc.c ****         
 647:Drivers/STM32F0xx_HAL_Driver/Src/stm32f0xx_hal_rcc.c ****         /* Wait till PLL is disabled */
 648:Drivers/STM32F0xx_HAL_Driver/Src/stm32f0xx_hal_rcc.c ****         while(__HAL_RCC_GET_FLAG(RCC_FLAG_PLLRDY)  != RESET)
 649:Drivers/STM32F0xx_HAL_Driver/Src/stm32f0xx_hal_rcc.c ****         {
 650:Drivers/STM32F0xx_HAL_Driver/Src/stm32f0xx_hal_rcc.c ****           if((HAL_GetTick() - tickstart ) > PLL_TIMEOUT_VALUE)
 651:Drivers/STM32F0xx_HAL_Driver/Src/stm32f0xx_hal_rcc.c ****           {
 652:Drivers/STM32F0xx_HAL_Driver/Src/stm32f0xx_hal_rcc.c ****             return HAL_TIMEOUT;
 653:Drivers/STM32F0xx_HAL_Driver/Src/stm32f0xx_hal_rcc.c ****           }
 654:Drivers/STM32F0xx_HAL_Driver/Src/stm32f0xx_hal_rcc.c ****         }
 655:Drivers/STM32F0xx_HAL_Driver/Src/stm32f0xx_hal_rcc.c **** 
 656:Drivers/STM32F0xx_HAL_Driver/Src/stm32f0xx_hal_rcc.c ****         /* Configure the main PLL clock source, predivider and multiplication factor. */
 657:Drivers/STM32F0xx_HAL_Driver/Src/stm32f0xx_hal_rcc.c ****         __HAL_RCC_PLL_CONFIG(RCC_OscInitStruct->PLL.PLLSource,
 658:Drivers/STM32F0xx_HAL_Driver/Src/stm32f0xx_hal_rcc.c ****                              RCC_OscInitStruct->PLL.PREDIV,
 659:Drivers/STM32F0xx_HAL_Driver/Src/stm32f0xx_hal_rcc.c ****                              RCC_OscInitStruct->PLL.PLLMUL);
 660:Drivers/STM32F0xx_HAL_Driver/Src/stm32f0xx_hal_rcc.c ****         /* Enable the main PLL. */
 661:Drivers/STM32F0xx_HAL_Driver/Src/stm32f0xx_hal_rcc.c ****         __HAL_RCC_PLL_ENABLE();
 662:Drivers/STM32F0xx_HAL_Driver/Src/stm32f0xx_hal_rcc.c ****         
 663:Drivers/STM32F0xx_HAL_Driver/Src/stm32f0xx_hal_rcc.c ****         /* Get Start Tick */
 664:Drivers/STM32F0xx_HAL_Driver/Src/stm32f0xx_hal_rcc.c ****         tickstart = HAL_GetTick();
 665:Drivers/STM32F0xx_HAL_Driver/Src/stm32f0xx_hal_rcc.c ****         
 666:Drivers/STM32F0xx_HAL_Driver/Src/stm32f0xx_hal_rcc.c ****         /* Wait till PLL is ready */
 667:Drivers/STM32F0xx_HAL_Driver/Src/stm32f0xx_hal_rcc.c ****         while(__HAL_RCC_GET_FLAG(RCC_FLAG_PLLRDY)  == RESET)
 668:Drivers/STM32F0xx_HAL_Driver/Src/stm32f0xx_hal_rcc.c ****         {
 669:Drivers/STM32F0xx_HAL_Driver/Src/stm32f0xx_hal_rcc.c ****           if((HAL_GetTick() - tickstart ) > PLL_TIMEOUT_VALUE)
 670:Drivers/STM32F0xx_HAL_Driver/Src/stm32f0xx_hal_rcc.c ****           {
 671:Drivers/STM32F0xx_HAL_Driver/Src/stm32f0xx_hal_rcc.c ****             return HAL_TIMEOUT;
 672:Drivers/STM32F0xx_HAL_Driver/Src/stm32f0xx_hal_rcc.c ****           }
 673:Drivers/STM32F0xx_HAL_Driver/Src/stm32f0xx_hal_rcc.c ****         }
 674:Drivers/STM32F0xx_HAL_Driver/Src/stm32f0xx_hal_rcc.c ****       }
 675:Drivers/STM32F0xx_HAL_Driver/Src/stm32f0xx_hal_rcc.c ****       else
 676:Drivers/STM32F0xx_HAL_Driver/Src/stm32f0xx_hal_rcc.c ****       {
 677:Drivers/STM32F0xx_HAL_Driver/Src/stm32f0xx_hal_rcc.c ****         /* Disable the main PLL. */
 678:Drivers/STM32F0xx_HAL_Driver/Src/stm32f0xx_hal_rcc.c ****         __HAL_RCC_PLL_DISABLE();
 975              		.loc 1 678 9 is_stmt 1 view .LVU273
 976 0414 344A     		ldr	r2, .L111
 977 0416 1368     		ldr	r3, [r2]
 978 0418 3549     		ldr	r1, .L111+8
 979 041a 0B40     		ands	r3, r1
 980 041c 1360     		str	r3, [r2]
 679:Drivers/STM32F0xx_HAL_Driver/Src/stm32f0xx_hal_rcc.c ****  
 680:Drivers/STM32F0xx_HAL_Driver/Src/stm32f0xx_hal_rcc.c ****         /* Get Start Tick */
 681:Drivers/STM32F0xx_HAL_Driver/Src/stm32f0xx_hal_rcc.c ****         tickstart = HAL_GetTick();
 981              		.loc 1 681 9 view .LVU274
 982              		.loc 1 681 21 is_stmt 0 view .LVU275
 983 041e FFF7FEFF 		bl	HAL_GetTick
ARM GAS  /tmp/ccD6GDME.s 			page 32


 984              	.LVL56:
 985 0422 0400     		movs	r4, r0
 986              	.LVL57:
 682:Drivers/STM32F0xx_HAL_Driver/Src/stm32f0xx_hal_rcc.c ****         
 683:Drivers/STM32F0xx_HAL_Driver/Src/stm32f0xx_hal_rcc.c ****         /* Wait till PLL is disabled */  
 684:Drivers/STM32F0xx_HAL_Driver/Src/stm32f0xx_hal_rcc.c ****         while(__HAL_RCC_GET_FLAG(RCC_FLAG_PLLRDY)  != RESET)
 987              		.loc 1 684 9 is_stmt 1 view .LVU276
 988              	.L68:
 989              		.loc 1 684 15 is_stmt 0 view .LVU277
 990 0424 304B     		ldr	r3, .L111
 991 0426 1B68     		ldr	r3, [r3]
 992              		.loc 1 684 14 view .LVU278
 993 0428 9B01     		lsls	r3, r3, #6
 994 042a 50D5     		bpl	.L106
 685:Drivers/STM32F0xx_HAL_Driver/Src/stm32f0xx_hal_rcc.c ****         {
 686:Drivers/STM32F0xx_HAL_Driver/Src/stm32f0xx_hal_rcc.c ****           if((HAL_GetTick() - tickstart ) > PLL_TIMEOUT_VALUE)
 995              		.loc 1 686 11 is_stmt 1 view .LVU279
 996              		.loc 1 686 15 is_stmt 0 view .LVU280
 997 042c FFF7FEFF 		bl	HAL_GetTick
 998              	.LVL58:
 999              		.loc 1 686 29 view .LVU281
 1000 0430 001B     		subs	r0, r0, r4
 1001              		.loc 1 686 13 view .LVU282
 1002 0432 0228     		cmp	r0, #2
 1003 0434 F6D9     		bls	.L68
 687:Drivers/STM32F0xx_HAL_Driver/Src/stm32f0xx_hal_rcc.c ****           {
 688:Drivers/STM32F0xx_HAL_Driver/Src/stm32f0xx_hal_rcc.c ****             return HAL_TIMEOUT;
 1004              		.loc 1 688 20 view .LVU283
 1005 0436 0320     		movs	r0, #3
 1006 0438 52E0     		b	.L8
 1007              	.LVL59:
 1008              	.L58:
 608:Drivers/STM32F0xx_HAL_Driver/Src/stm32f0xx_hal_rcc.c **** 
 1009              		.loc 1 608 9 is_stmt 1 view .LVU284
 1010 043a 2B4A     		ldr	r2, .L111
 1011 043c 536B     		ldr	r3, [r2, #52]
 1012 043e 2D49     		ldr	r1, .L111+12
 1013 0440 0B40     		ands	r3, r1
 1014 0442 5363     		str	r3, [r2, #52]
 611:Drivers/STM32F0xx_HAL_Driver/Src/stm32f0xx_hal_rcc.c ****       
 1015              		.loc 1 611 9 view .LVU285
 611:Drivers/STM32F0xx_HAL_Driver/Src/stm32f0xx_hal_rcc.c ****       
 1016              		.loc 1 611 21 is_stmt 0 view .LVU286
 1017 0444 FFF7FEFF 		bl	HAL_GetTick
 1018              	.LVL60:
 1019 0448 0500     		movs	r5, r0
 1020              	.LVL61:
 614:Drivers/STM32F0xx_HAL_Driver/Src/stm32f0xx_hal_rcc.c ****         {
 1021              		.loc 1 614 9 is_stmt 1 view .LVU287
 1022              	.L61:
 614:Drivers/STM32F0xx_HAL_Driver/Src/stm32f0xx_hal_rcc.c ****         {
 1023              		.loc 1 614 15 is_stmt 0 view .LVU288
 1024 044a 274B     		ldr	r3, .L111
 1025 044c 5B6B     		ldr	r3, [r3, #52]
 614:Drivers/STM32F0xx_HAL_Driver/Src/stm32f0xx_hal_rcc.c ****         {
 1026              		.loc 1 614 14 view .LVU289
 1027 044e DB03     		lsls	r3, r3, #15
ARM GAS  /tmp/ccD6GDME.s 			page 33


 1028 0450 D5D5     		bpl	.L55
 616:Drivers/STM32F0xx_HAL_Driver/Src/stm32f0xx_hal_rcc.c ****           {
 1029              		.loc 1 616 11 is_stmt 1 view .LVU290
 616:Drivers/STM32F0xx_HAL_Driver/Src/stm32f0xx_hal_rcc.c ****           {
 1030              		.loc 1 616 15 is_stmt 0 view .LVU291
 1031 0452 FFF7FEFF 		bl	HAL_GetTick
 1032              	.LVL62:
 616:Drivers/STM32F0xx_HAL_Driver/Src/stm32f0xx_hal_rcc.c ****           {
 1033              		.loc 1 616 29 view .LVU292
 1034 0456 401B     		subs	r0, r0, r5
 616:Drivers/STM32F0xx_HAL_Driver/Src/stm32f0xx_hal_rcc.c ****           {
 1035              		.loc 1 616 13 view .LVU293
 1036 0458 0228     		cmp	r0, #2
 1037 045a F6D9     		bls	.L61
 618:Drivers/STM32F0xx_HAL_Driver/Src/stm32f0xx_hal_rcc.c ****           }
 1038              		.loc 1 618 20 view .LVU294
 1039 045c 0320     		movs	r0, #3
 1040 045e 3FE0     		b	.L8
 1041              	.LVL63:
 1042              	.L105:
 637:Drivers/STM32F0xx_HAL_Driver/Src/stm32f0xx_hal_rcc.c ****         assert_param(IS_RCC_PLL_MUL(RCC_OscInitStruct->PLL.PLLMUL));
 1043              		.loc 1 637 9 is_stmt 1 view .LVU295
 638:Drivers/STM32F0xx_HAL_Driver/Src/stm32f0xx_hal_rcc.c ****         assert_param(IS_RCC_PREDIV(RCC_OscInitStruct->PLL.PREDIV));
 1044              		.loc 1 638 9 view .LVU296
 639:Drivers/STM32F0xx_HAL_Driver/Src/stm32f0xx_hal_rcc.c ****   
 1045              		.loc 1 639 9 view .LVU297
 642:Drivers/STM32F0xx_HAL_Driver/Src/stm32f0xx_hal_rcc.c ****         
 1046              		.loc 1 642 9 view .LVU298
 1047 0460 214A     		ldr	r2, .L111
 1048 0462 1368     		ldr	r3, [r2]
 1049 0464 2249     		ldr	r1, .L111+8
 1050 0466 0B40     		ands	r3, r1
 1051 0468 1360     		str	r3, [r2]
 645:Drivers/STM32F0xx_HAL_Driver/Src/stm32f0xx_hal_rcc.c ****         
 1052              		.loc 1 645 9 view .LVU299
 645:Drivers/STM32F0xx_HAL_Driver/Src/stm32f0xx_hal_rcc.c ****         
 1053              		.loc 1 645 21 is_stmt 0 view .LVU300
 1054 046a FFF7FEFF 		bl	HAL_GetTick
 1055              	.LVL64:
 1056 046e 0500     		movs	r5, r0
 1057              	.LVL65:
 648:Drivers/STM32F0xx_HAL_Driver/Src/stm32f0xx_hal_rcc.c ****         {
 1058              		.loc 1 648 9 is_stmt 1 view .LVU301
 1059              	.L64:
 648:Drivers/STM32F0xx_HAL_Driver/Src/stm32f0xx_hal_rcc.c ****         {
 1060              		.loc 1 648 15 is_stmt 0 view .LVU302
 1061 0470 1D4B     		ldr	r3, .L111
 1062 0472 1B68     		ldr	r3, [r3]
 648:Drivers/STM32F0xx_HAL_Driver/Src/stm32f0xx_hal_rcc.c ****         {
 1063              		.loc 1 648 14 view .LVU303
 1064 0474 9B01     		lsls	r3, r3, #6
 1065 0476 06D5     		bpl	.L107
 650:Drivers/STM32F0xx_HAL_Driver/Src/stm32f0xx_hal_rcc.c ****           {
 1066              		.loc 1 650 11 is_stmt 1 view .LVU304
 650:Drivers/STM32F0xx_HAL_Driver/Src/stm32f0xx_hal_rcc.c ****           {
 1067              		.loc 1 650 15 is_stmt 0 view .LVU305
 1068 0478 FFF7FEFF 		bl	HAL_GetTick
ARM GAS  /tmp/ccD6GDME.s 			page 34


 1069              	.LVL66:
 650:Drivers/STM32F0xx_HAL_Driver/Src/stm32f0xx_hal_rcc.c ****           {
 1070              		.loc 1 650 29 view .LVU306
 1071 047c 401B     		subs	r0, r0, r5
 650:Drivers/STM32F0xx_HAL_Driver/Src/stm32f0xx_hal_rcc.c ****           {
 1072              		.loc 1 650 13 view .LVU307
 1073 047e 0228     		cmp	r0, #2
 1074 0480 F6D9     		bls	.L64
 652:Drivers/STM32F0xx_HAL_Driver/Src/stm32f0xx_hal_rcc.c ****           }
 1075              		.loc 1 652 20 view .LVU308
 1076 0482 0320     		movs	r0, #3
 1077 0484 2CE0     		b	.L8
 1078              	.L107:
 657:Drivers/STM32F0xx_HAL_Driver/Src/stm32f0xx_hal_rcc.c ****                              RCC_OscInitStruct->PLL.PREDIV,
 1079              		.loc 1 657 9 is_stmt 1 view .LVU309
 657:Drivers/STM32F0xx_HAL_Driver/Src/stm32f0xx_hal_rcc.c ****                              RCC_OscInitStruct->PLL.PREDIV,
 1080              		.loc 1 657 9 view .LVU310
 1081 0486 184B     		ldr	r3, .L111
 1082 0488 DA6A     		ldr	r2, [r3, #44]
 1083 048a 0F21     		movs	r1, #15
 1084 048c 8A43     		bics	r2, r1
 1085 048e 216B     		ldr	r1, [r4, #48]
 1086 0490 0A43     		orrs	r2, r1
 1087 0492 DA62     		str	r2, [r3, #44]
 657:Drivers/STM32F0xx_HAL_Driver/Src/stm32f0xx_hal_rcc.c ****                              RCC_OscInitStruct->PLL.PREDIV,
 1088              		.loc 1 657 9 view .LVU311
 1089 0494 5A68     		ldr	r2, [r3, #4]
 1090 0496 1849     		ldr	r1, .L111+16
 1091 0498 0A40     		ands	r2, r1
 1092 049a E16A     		ldr	r1, [r4, #44]
 1093 049c A06A     		ldr	r0, [r4, #40]
 1094 049e 0143     		orrs	r1, r0
 1095 04a0 0A43     		orrs	r2, r1
 1096 04a2 5A60     		str	r2, [r3, #4]
 661:Drivers/STM32F0xx_HAL_Driver/Src/stm32f0xx_hal_rcc.c ****         
 1097              		.loc 1 661 9 view .LVU312
 1098 04a4 1968     		ldr	r1, [r3]
 1099 04a6 8022     		movs	r2, #128
 1100 04a8 5204     		lsls	r2, r2, #17
 1101 04aa 0A43     		orrs	r2, r1
 1102 04ac 1A60     		str	r2, [r3]
 664:Drivers/STM32F0xx_HAL_Driver/Src/stm32f0xx_hal_rcc.c ****         
 1103              		.loc 1 664 9 view .LVU313
 664:Drivers/STM32F0xx_HAL_Driver/Src/stm32f0xx_hal_rcc.c ****         
 1104              		.loc 1 664 21 is_stmt 0 view .LVU314
 1105 04ae FFF7FEFF 		bl	HAL_GetTick
 1106              	.LVL67:
 1107 04b2 0400     		movs	r4, r0
 1108              	.LVL68:
 667:Drivers/STM32F0xx_HAL_Driver/Src/stm32f0xx_hal_rcc.c ****         {
 1109              		.loc 1 667 9 is_stmt 1 view .LVU315
 1110              	.L66:
 667:Drivers/STM32F0xx_HAL_Driver/Src/stm32f0xx_hal_rcc.c ****         {
 1111              		.loc 1 667 15 is_stmt 0 view .LVU316
 1112 04b4 0C4B     		ldr	r3, .L111
 1113 04b6 1B68     		ldr	r3, [r3]
 667:Drivers/STM32F0xx_HAL_Driver/Src/stm32f0xx_hal_rcc.c ****         {
ARM GAS  /tmp/ccD6GDME.s 			page 35


 1114              		.loc 1 667 14 view .LVU317
 1115 04b8 9B01     		lsls	r3, r3, #6
 1116 04ba 06D4     		bmi	.L108
 669:Drivers/STM32F0xx_HAL_Driver/Src/stm32f0xx_hal_rcc.c ****           {
 1117              		.loc 1 669 11 is_stmt 1 view .LVU318
 669:Drivers/STM32F0xx_HAL_Driver/Src/stm32f0xx_hal_rcc.c ****           {
 1118              		.loc 1 669 15 is_stmt 0 view .LVU319
 1119 04bc FFF7FEFF 		bl	HAL_GetTick
 1120              	.LVL69:
 669:Drivers/STM32F0xx_HAL_Driver/Src/stm32f0xx_hal_rcc.c ****           {
 1121              		.loc 1 669 29 view .LVU320
 1122 04c0 001B     		subs	r0, r0, r4
 669:Drivers/STM32F0xx_HAL_Driver/Src/stm32f0xx_hal_rcc.c ****           {
 1123              		.loc 1 669 13 view .LVU321
 1124 04c2 0228     		cmp	r0, #2
 1125 04c4 F6D9     		bls	.L66
 671:Drivers/STM32F0xx_HAL_Driver/Src/stm32f0xx_hal_rcc.c ****           }
 1126              		.loc 1 671 20 view .LVU322
 1127 04c6 0320     		movs	r0, #3
 1128 04c8 0AE0     		b	.L8
 1129              	.L108:
 689:Drivers/STM32F0xx_HAL_Driver/Src/stm32f0xx_hal_rcc.c ****           }
 690:Drivers/STM32F0xx_HAL_Driver/Src/stm32f0xx_hal_rcc.c ****         }
 691:Drivers/STM32F0xx_HAL_Driver/Src/stm32f0xx_hal_rcc.c ****       }
 692:Drivers/STM32F0xx_HAL_Driver/Src/stm32f0xx_hal_rcc.c ****     }
 693:Drivers/STM32F0xx_HAL_Driver/Src/stm32f0xx_hal_rcc.c ****     else
 694:Drivers/STM32F0xx_HAL_Driver/Src/stm32f0xx_hal_rcc.c ****     {
 695:Drivers/STM32F0xx_HAL_Driver/Src/stm32f0xx_hal_rcc.c ****       return HAL_ERROR;
 696:Drivers/STM32F0xx_HAL_Driver/Src/stm32f0xx_hal_rcc.c ****     }
 697:Drivers/STM32F0xx_HAL_Driver/Src/stm32f0xx_hal_rcc.c ****   }
 698:Drivers/STM32F0xx_HAL_Driver/Src/stm32f0xx_hal_rcc.c ****   
 699:Drivers/STM32F0xx_HAL_Driver/Src/stm32f0xx_hal_rcc.c ****   return HAL_OK;
 1130              		.loc 1 699 10 view .LVU323
 1131 04ca 0020     		movs	r0, #0
 1132 04cc 08E0     		b	.L8
 1133              	.L106:
 1134              		.loc 1 699 10 view .LVU324
 1135 04ce 0020     		movs	r0, #0
 1136 04d0 06E0     		b	.L8
 1137              	.LVL70:
 1138              	.L94:
 289:Drivers/STM32F0xx_HAL_Driver/Src/stm32f0xx_hal_rcc.c ****       }
 1139              		.loc 1 289 16 view .LVU325
 1140 04d2 0120     		movs	r0, #1
 1141              	.LVL71:
 289:Drivers/STM32F0xx_HAL_Driver/Src/stm32f0xx_hal_rcc.c ****       }
 1142              		.loc 1 289 16 view .LVU326
 1143 04d4 04E0     		b	.L8
 1144              	.LVL72:
 1145              	.L73:
 343:Drivers/STM32F0xx_HAL_Driver/Src/stm32f0xx_hal_rcc.c ****       }
 1146              		.loc 1 343 16 view .LVU327
 1147 04d6 0120     		movs	r0, #1
 1148 04d8 02E0     		b	.L8
 1149              	.L84:
 582:Drivers/STM32F0xx_HAL_Driver/Src/stm32f0xx_hal_rcc.c ****       }
 1150              		.loc 1 582 16 view .LVU328
ARM GAS  /tmp/ccD6GDME.s 			page 36


 1151 04da 0120     		movs	r0, #1
 1152 04dc 00E0     		b	.L8
 1153              	.L87:
 1154              		.loc 1 699 10 view .LVU329
 1155 04de 0020     		movs	r0, #0
 1156              	.LVL73:
 1157              	.L8:
 700:Drivers/STM32F0xx_HAL_Driver/Src/stm32f0xx_hal_rcc.c **** }
 1158              		.loc 1 700 1 view .LVU330
 1159 04e0 02B0     		add	sp, sp, #8
 1160              		@ sp needed
 1161 04e2 70BD     		pop	{r4, r5, r6, pc}
 1162              	.LVL74:
 1163              	.L88:
 695:Drivers/STM32F0xx_HAL_Driver/Src/stm32f0xx_hal_rcc.c ****     }
 1164              		.loc 1 695 14 view .LVU331
 1165 04e4 0120     		movs	r0, #1
 1166 04e6 FBE7     		b	.L8
 1167              	.L112:
 1168              		.align	2
 1169              	.L111:
 1170 04e8 00100240 		.word	1073876992
 1171 04ec FFFFFFEF 		.word	-268435457
 1172 04f0 FFFFFFFE 		.word	-16777217
 1173 04f4 FFFFFEFF 		.word	-65537
 1174 04f8 FF7FC2FF 		.word	-4030465
 1175              		.cfi_endproc
 1176              	.LFE38:
 1178              		.section	.text.HAL_RCC_MCOConfig,"ax",%progbits
 1179              		.align	1
 1180              		.global	HAL_RCC_MCOConfig
 1181              		.syntax unified
 1182              		.code	16
 1183              		.thumb_func
 1184              		.fpu softvfp
 1186              	HAL_RCC_MCOConfig:
 1187              	.LVL75:
 1188              	.LFB40:
 701:Drivers/STM32F0xx_HAL_Driver/Src/stm32f0xx_hal_rcc.c **** 
 702:Drivers/STM32F0xx_HAL_Driver/Src/stm32f0xx_hal_rcc.c **** /**
 703:Drivers/STM32F0xx_HAL_Driver/Src/stm32f0xx_hal_rcc.c ****   * @brief  Initializes the CPU, AHB and APB buses clocks according to the specified 
 704:Drivers/STM32F0xx_HAL_Driver/Src/stm32f0xx_hal_rcc.c ****   *         parameters in the RCC_ClkInitStruct.
 705:Drivers/STM32F0xx_HAL_Driver/Src/stm32f0xx_hal_rcc.c ****   * @param  RCC_ClkInitStruct pointer to an RCC_OscInitTypeDef structure that
 706:Drivers/STM32F0xx_HAL_Driver/Src/stm32f0xx_hal_rcc.c ****   *         contains the configuration information for the RCC peripheral.
 707:Drivers/STM32F0xx_HAL_Driver/Src/stm32f0xx_hal_rcc.c ****   * @param  FLatency FLASH Latency                   
 708:Drivers/STM32F0xx_HAL_Driver/Src/stm32f0xx_hal_rcc.c ****   *          The value of this parameter depend on device used within the same series
 709:Drivers/STM32F0xx_HAL_Driver/Src/stm32f0xx_hal_rcc.c ****   * @note   The SystemCoreClock CMSIS variable is used to store System Clock Frequency 
 710:Drivers/STM32F0xx_HAL_Driver/Src/stm32f0xx_hal_rcc.c ****   *         and updated by @ref HAL_RCC_GetHCLKFreq() function called within this function
 711:Drivers/STM32F0xx_HAL_Driver/Src/stm32f0xx_hal_rcc.c ****   *
 712:Drivers/STM32F0xx_HAL_Driver/Src/stm32f0xx_hal_rcc.c ****   * @note   The HSI is used (enabled by hardware) as system clock source after
 713:Drivers/STM32F0xx_HAL_Driver/Src/stm32f0xx_hal_rcc.c ****   *         start-up from Reset, wake-up from STOP and STANDBY mode, or in case
 714:Drivers/STM32F0xx_HAL_Driver/Src/stm32f0xx_hal_rcc.c ****   *         of failure of the HSE used directly or indirectly as system clock
 715:Drivers/STM32F0xx_HAL_Driver/Src/stm32f0xx_hal_rcc.c ****   *         (if the Clock Security System CSS is enabled).
 716:Drivers/STM32F0xx_HAL_Driver/Src/stm32f0xx_hal_rcc.c ****   *           
 717:Drivers/STM32F0xx_HAL_Driver/Src/stm32f0xx_hal_rcc.c ****   * @note   A switch from one clock source to another occurs only if the target
 718:Drivers/STM32F0xx_HAL_Driver/Src/stm32f0xx_hal_rcc.c ****   *         clock source is ready (clock stable after start-up delay or PLL locked). 
 719:Drivers/STM32F0xx_HAL_Driver/Src/stm32f0xx_hal_rcc.c ****   *         If a clock source which is not yet ready is selected, the switch will
ARM GAS  /tmp/ccD6GDME.s 			page 37


 720:Drivers/STM32F0xx_HAL_Driver/Src/stm32f0xx_hal_rcc.c ****   *         occur when the clock source will be ready. 
 721:Drivers/STM32F0xx_HAL_Driver/Src/stm32f0xx_hal_rcc.c ****   *         You can use @ref HAL_RCC_GetClockConfig() function to know which clock is
 722:Drivers/STM32F0xx_HAL_Driver/Src/stm32f0xx_hal_rcc.c ****   *         currently used as system clock source.
 723:Drivers/STM32F0xx_HAL_Driver/Src/stm32f0xx_hal_rcc.c ****   * @retval HAL status
 724:Drivers/STM32F0xx_HAL_Driver/Src/stm32f0xx_hal_rcc.c ****   */
 725:Drivers/STM32F0xx_HAL_Driver/Src/stm32f0xx_hal_rcc.c **** HAL_StatusTypeDef HAL_RCC_ClockConfig(RCC_ClkInitTypeDef  *RCC_ClkInitStruct, uint32_t FLatency)
 726:Drivers/STM32F0xx_HAL_Driver/Src/stm32f0xx_hal_rcc.c **** {
 727:Drivers/STM32F0xx_HAL_Driver/Src/stm32f0xx_hal_rcc.c ****   uint32_t tickstart = 0U;
 728:Drivers/STM32F0xx_HAL_Driver/Src/stm32f0xx_hal_rcc.c ****   
 729:Drivers/STM32F0xx_HAL_Driver/Src/stm32f0xx_hal_rcc.c ****   /* Check the parameters */
 730:Drivers/STM32F0xx_HAL_Driver/Src/stm32f0xx_hal_rcc.c ****   assert_param(RCC_ClkInitStruct != NULL);
 731:Drivers/STM32F0xx_HAL_Driver/Src/stm32f0xx_hal_rcc.c ****   assert_param(IS_RCC_CLOCKTYPE(RCC_ClkInitStruct->ClockType));
 732:Drivers/STM32F0xx_HAL_Driver/Src/stm32f0xx_hal_rcc.c ****   assert_param(IS_FLASH_LATENCY(FLatency));
 733:Drivers/STM32F0xx_HAL_Driver/Src/stm32f0xx_hal_rcc.c **** 
 734:Drivers/STM32F0xx_HAL_Driver/Src/stm32f0xx_hal_rcc.c ****   /* To correctly read data from FLASH memory, the number of wait states (LATENCY) 
 735:Drivers/STM32F0xx_HAL_Driver/Src/stm32f0xx_hal_rcc.c ****   must be correctly programmed according to the frequency of the CPU clock 
 736:Drivers/STM32F0xx_HAL_Driver/Src/stm32f0xx_hal_rcc.c ****     (HCLK) of the device. */
 737:Drivers/STM32F0xx_HAL_Driver/Src/stm32f0xx_hal_rcc.c **** 
 738:Drivers/STM32F0xx_HAL_Driver/Src/stm32f0xx_hal_rcc.c ****   /* Increasing the number of wait states because of higher CPU frequency */
 739:Drivers/STM32F0xx_HAL_Driver/Src/stm32f0xx_hal_rcc.c ****   if(FLatency > (FLASH->ACR & FLASH_ACR_LATENCY))
 740:Drivers/STM32F0xx_HAL_Driver/Src/stm32f0xx_hal_rcc.c ****   {    
 741:Drivers/STM32F0xx_HAL_Driver/Src/stm32f0xx_hal_rcc.c ****     /* Program the new number of wait states to the LATENCY bits in the FLASH_ACR register */
 742:Drivers/STM32F0xx_HAL_Driver/Src/stm32f0xx_hal_rcc.c ****     __HAL_FLASH_SET_LATENCY(FLatency);
 743:Drivers/STM32F0xx_HAL_Driver/Src/stm32f0xx_hal_rcc.c ****     
 744:Drivers/STM32F0xx_HAL_Driver/Src/stm32f0xx_hal_rcc.c ****     /* Check that the new number of wait states is taken into account to access the Flash
 745:Drivers/STM32F0xx_HAL_Driver/Src/stm32f0xx_hal_rcc.c ****     memory by reading the FLASH_ACR register */
 746:Drivers/STM32F0xx_HAL_Driver/Src/stm32f0xx_hal_rcc.c ****     if((FLASH->ACR & FLASH_ACR_LATENCY) != FLatency)
 747:Drivers/STM32F0xx_HAL_Driver/Src/stm32f0xx_hal_rcc.c ****     {
 748:Drivers/STM32F0xx_HAL_Driver/Src/stm32f0xx_hal_rcc.c ****       return HAL_ERROR;
 749:Drivers/STM32F0xx_HAL_Driver/Src/stm32f0xx_hal_rcc.c ****     }
 750:Drivers/STM32F0xx_HAL_Driver/Src/stm32f0xx_hal_rcc.c ****   }
 751:Drivers/STM32F0xx_HAL_Driver/Src/stm32f0xx_hal_rcc.c **** 
 752:Drivers/STM32F0xx_HAL_Driver/Src/stm32f0xx_hal_rcc.c ****   /*-------------------------- HCLK Configuration --------------------------*/
 753:Drivers/STM32F0xx_HAL_Driver/Src/stm32f0xx_hal_rcc.c ****   if(((RCC_ClkInitStruct->ClockType) & RCC_CLOCKTYPE_HCLK) == RCC_CLOCKTYPE_HCLK)
 754:Drivers/STM32F0xx_HAL_Driver/Src/stm32f0xx_hal_rcc.c ****   {
 755:Drivers/STM32F0xx_HAL_Driver/Src/stm32f0xx_hal_rcc.c ****     assert_param(IS_RCC_HCLK(RCC_ClkInitStruct->AHBCLKDivider));
 756:Drivers/STM32F0xx_HAL_Driver/Src/stm32f0xx_hal_rcc.c ****     MODIFY_REG(RCC->CFGR, RCC_CFGR_HPRE, RCC_ClkInitStruct->AHBCLKDivider);
 757:Drivers/STM32F0xx_HAL_Driver/Src/stm32f0xx_hal_rcc.c ****   }
 758:Drivers/STM32F0xx_HAL_Driver/Src/stm32f0xx_hal_rcc.c **** 
 759:Drivers/STM32F0xx_HAL_Driver/Src/stm32f0xx_hal_rcc.c ****   /*------------------------- SYSCLK Configuration ---------------------------*/ 
 760:Drivers/STM32F0xx_HAL_Driver/Src/stm32f0xx_hal_rcc.c ****   if(((RCC_ClkInitStruct->ClockType) & RCC_CLOCKTYPE_SYSCLK) == RCC_CLOCKTYPE_SYSCLK)
 761:Drivers/STM32F0xx_HAL_Driver/Src/stm32f0xx_hal_rcc.c ****   {    
 762:Drivers/STM32F0xx_HAL_Driver/Src/stm32f0xx_hal_rcc.c ****     assert_param(IS_RCC_SYSCLKSOURCE(RCC_ClkInitStruct->SYSCLKSource));
 763:Drivers/STM32F0xx_HAL_Driver/Src/stm32f0xx_hal_rcc.c ****     
 764:Drivers/STM32F0xx_HAL_Driver/Src/stm32f0xx_hal_rcc.c ****     /* HSE is selected as System Clock Source */
 765:Drivers/STM32F0xx_HAL_Driver/Src/stm32f0xx_hal_rcc.c ****     if(RCC_ClkInitStruct->SYSCLKSource == RCC_SYSCLKSOURCE_HSE)
 766:Drivers/STM32F0xx_HAL_Driver/Src/stm32f0xx_hal_rcc.c ****     {
 767:Drivers/STM32F0xx_HAL_Driver/Src/stm32f0xx_hal_rcc.c ****       /* Check the HSE ready flag */  
 768:Drivers/STM32F0xx_HAL_Driver/Src/stm32f0xx_hal_rcc.c ****       if(__HAL_RCC_GET_FLAG(RCC_FLAG_HSERDY) == RESET)
 769:Drivers/STM32F0xx_HAL_Driver/Src/stm32f0xx_hal_rcc.c ****       {
 770:Drivers/STM32F0xx_HAL_Driver/Src/stm32f0xx_hal_rcc.c ****         return HAL_ERROR;
 771:Drivers/STM32F0xx_HAL_Driver/Src/stm32f0xx_hal_rcc.c ****       }
 772:Drivers/STM32F0xx_HAL_Driver/Src/stm32f0xx_hal_rcc.c ****     }
 773:Drivers/STM32F0xx_HAL_Driver/Src/stm32f0xx_hal_rcc.c ****     /* PLL is selected as System Clock Source */
 774:Drivers/STM32F0xx_HAL_Driver/Src/stm32f0xx_hal_rcc.c ****     else if(RCC_ClkInitStruct->SYSCLKSource == RCC_SYSCLKSOURCE_PLLCLK)
 775:Drivers/STM32F0xx_HAL_Driver/Src/stm32f0xx_hal_rcc.c ****     {
 776:Drivers/STM32F0xx_HAL_Driver/Src/stm32f0xx_hal_rcc.c ****       /* Check the PLL ready flag */  
ARM GAS  /tmp/ccD6GDME.s 			page 38


 777:Drivers/STM32F0xx_HAL_Driver/Src/stm32f0xx_hal_rcc.c ****       if(__HAL_RCC_GET_FLAG(RCC_FLAG_PLLRDY) == RESET)
 778:Drivers/STM32F0xx_HAL_Driver/Src/stm32f0xx_hal_rcc.c ****       {
 779:Drivers/STM32F0xx_HAL_Driver/Src/stm32f0xx_hal_rcc.c ****         return HAL_ERROR;
 780:Drivers/STM32F0xx_HAL_Driver/Src/stm32f0xx_hal_rcc.c ****       }
 781:Drivers/STM32F0xx_HAL_Driver/Src/stm32f0xx_hal_rcc.c ****     }
 782:Drivers/STM32F0xx_HAL_Driver/Src/stm32f0xx_hal_rcc.c **** #if defined(RCC_CFGR_SWS_HSI48)
 783:Drivers/STM32F0xx_HAL_Driver/Src/stm32f0xx_hal_rcc.c ****     /* HSI48 is selected as System Clock Source */
 784:Drivers/STM32F0xx_HAL_Driver/Src/stm32f0xx_hal_rcc.c ****     else if(RCC_ClkInitStruct->SYSCLKSource == RCC_SYSCLKSOURCE_HSI48)
 785:Drivers/STM32F0xx_HAL_Driver/Src/stm32f0xx_hal_rcc.c ****     {
 786:Drivers/STM32F0xx_HAL_Driver/Src/stm32f0xx_hal_rcc.c ****       /* Check the HSI48 ready flag */
 787:Drivers/STM32F0xx_HAL_Driver/Src/stm32f0xx_hal_rcc.c ****       if(__HAL_RCC_GET_FLAG(RCC_FLAG_HSI48RDY) == RESET)
 788:Drivers/STM32F0xx_HAL_Driver/Src/stm32f0xx_hal_rcc.c ****       {
 789:Drivers/STM32F0xx_HAL_Driver/Src/stm32f0xx_hal_rcc.c ****         return HAL_ERROR;
 790:Drivers/STM32F0xx_HAL_Driver/Src/stm32f0xx_hal_rcc.c ****       }
 791:Drivers/STM32F0xx_HAL_Driver/Src/stm32f0xx_hal_rcc.c ****     }
 792:Drivers/STM32F0xx_HAL_Driver/Src/stm32f0xx_hal_rcc.c **** #endif /* RCC_CFGR_SWS_HSI48 */
 793:Drivers/STM32F0xx_HAL_Driver/Src/stm32f0xx_hal_rcc.c ****     /* HSI is selected as System Clock Source */
 794:Drivers/STM32F0xx_HAL_Driver/Src/stm32f0xx_hal_rcc.c ****     else
 795:Drivers/STM32F0xx_HAL_Driver/Src/stm32f0xx_hal_rcc.c ****     {
 796:Drivers/STM32F0xx_HAL_Driver/Src/stm32f0xx_hal_rcc.c ****       /* Check the HSI ready flag */  
 797:Drivers/STM32F0xx_HAL_Driver/Src/stm32f0xx_hal_rcc.c ****       if(__HAL_RCC_GET_FLAG(RCC_FLAG_HSIRDY) == RESET)
 798:Drivers/STM32F0xx_HAL_Driver/Src/stm32f0xx_hal_rcc.c ****       {
 799:Drivers/STM32F0xx_HAL_Driver/Src/stm32f0xx_hal_rcc.c ****         return HAL_ERROR;
 800:Drivers/STM32F0xx_HAL_Driver/Src/stm32f0xx_hal_rcc.c ****       }
 801:Drivers/STM32F0xx_HAL_Driver/Src/stm32f0xx_hal_rcc.c ****     }
 802:Drivers/STM32F0xx_HAL_Driver/Src/stm32f0xx_hal_rcc.c ****     __HAL_RCC_SYSCLK_CONFIG(RCC_ClkInitStruct->SYSCLKSource);
 803:Drivers/STM32F0xx_HAL_Driver/Src/stm32f0xx_hal_rcc.c **** 
 804:Drivers/STM32F0xx_HAL_Driver/Src/stm32f0xx_hal_rcc.c ****     /* Get Start Tick */
 805:Drivers/STM32F0xx_HAL_Driver/Src/stm32f0xx_hal_rcc.c ****     tickstart = HAL_GetTick();
 806:Drivers/STM32F0xx_HAL_Driver/Src/stm32f0xx_hal_rcc.c ****     
 807:Drivers/STM32F0xx_HAL_Driver/Src/stm32f0xx_hal_rcc.c ****     if(RCC_ClkInitStruct->SYSCLKSource == RCC_SYSCLKSOURCE_HSE)
 808:Drivers/STM32F0xx_HAL_Driver/Src/stm32f0xx_hal_rcc.c ****     {
 809:Drivers/STM32F0xx_HAL_Driver/Src/stm32f0xx_hal_rcc.c ****       while (__HAL_RCC_GET_SYSCLK_SOURCE() != RCC_SYSCLKSOURCE_STATUS_HSE)
 810:Drivers/STM32F0xx_HAL_Driver/Src/stm32f0xx_hal_rcc.c ****       {
 811:Drivers/STM32F0xx_HAL_Driver/Src/stm32f0xx_hal_rcc.c ****         if((HAL_GetTick() - tickstart ) > CLOCKSWITCH_TIMEOUT_VALUE)
 812:Drivers/STM32F0xx_HAL_Driver/Src/stm32f0xx_hal_rcc.c ****         {
 813:Drivers/STM32F0xx_HAL_Driver/Src/stm32f0xx_hal_rcc.c ****           return HAL_TIMEOUT;
 814:Drivers/STM32F0xx_HAL_Driver/Src/stm32f0xx_hal_rcc.c ****         }
 815:Drivers/STM32F0xx_HAL_Driver/Src/stm32f0xx_hal_rcc.c ****       }
 816:Drivers/STM32F0xx_HAL_Driver/Src/stm32f0xx_hal_rcc.c ****     }
 817:Drivers/STM32F0xx_HAL_Driver/Src/stm32f0xx_hal_rcc.c ****     else if(RCC_ClkInitStruct->SYSCLKSource == RCC_SYSCLKSOURCE_PLLCLK)
 818:Drivers/STM32F0xx_HAL_Driver/Src/stm32f0xx_hal_rcc.c ****     {
 819:Drivers/STM32F0xx_HAL_Driver/Src/stm32f0xx_hal_rcc.c ****       while (__HAL_RCC_GET_SYSCLK_SOURCE() != RCC_SYSCLKSOURCE_STATUS_PLLCLK)
 820:Drivers/STM32F0xx_HAL_Driver/Src/stm32f0xx_hal_rcc.c ****       {
 821:Drivers/STM32F0xx_HAL_Driver/Src/stm32f0xx_hal_rcc.c ****         if((HAL_GetTick() - tickstart ) > CLOCKSWITCH_TIMEOUT_VALUE)
 822:Drivers/STM32F0xx_HAL_Driver/Src/stm32f0xx_hal_rcc.c ****         {
 823:Drivers/STM32F0xx_HAL_Driver/Src/stm32f0xx_hal_rcc.c ****           return HAL_TIMEOUT;
 824:Drivers/STM32F0xx_HAL_Driver/Src/stm32f0xx_hal_rcc.c ****         }
 825:Drivers/STM32F0xx_HAL_Driver/Src/stm32f0xx_hal_rcc.c ****       }
 826:Drivers/STM32F0xx_HAL_Driver/Src/stm32f0xx_hal_rcc.c ****     }
 827:Drivers/STM32F0xx_HAL_Driver/Src/stm32f0xx_hal_rcc.c **** #if defined(RCC_CFGR_SWS_HSI48)
 828:Drivers/STM32F0xx_HAL_Driver/Src/stm32f0xx_hal_rcc.c ****     else if(RCC_ClkInitStruct->SYSCLKSource == RCC_SYSCLKSOURCE_HSI48)
 829:Drivers/STM32F0xx_HAL_Driver/Src/stm32f0xx_hal_rcc.c ****     {
 830:Drivers/STM32F0xx_HAL_Driver/Src/stm32f0xx_hal_rcc.c ****       while (__HAL_RCC_GET_SYSCLK_SOURCE() != RCC_SYSCLKSOURCE_STATUS_HSI48)
 831:Drivers/STM32F0xx_HAL_Driver/Src/stm32f0xx_hal_rcc.c ****       {
 832:Drivers/STM32F0xx_HAL_Driver/Src/stm32f0xx_hal_rcc.c ****         if((HAL_GetTick() - tickstart) > CLOCKSWITCH_TIMEOUT_VALUE)
 833:Drivers/STM32F0xx_HAL_Driver/Src/stm32f0xx_hal_rcc.c ****         {
ARM GAS  /tmp/ccD6GDME.s 			page 39


 834:Drivers/STM32F0xx_HAL_Driver/Src/stm32f0xx_hal_rcc.c ****           return HAL_TIMEOUT;
 835:Drivers/STM32F0xx_HAL_Driver/Src/stm32f0xx_hal_rcc.c ****         }
 836:Drivers/STM32F0xx_HAL_Driver/Src/stm32f0xx_hal_rcc.c ****       }
 837:Drivers/STM32F0xx_HAL_Driver/Src/stm32f0xx_hal_rcc.c ****     }
 838:Drivers/STM32F0xx_HAL_Driver/Src/stm32f0xx_hal_rcc.c **** #endif /* RCC_CFGR_SWS_HSI48 */
 839:Drivers/STM32F0xx_HAL_Driver/Src/stm32f0xx_hal_rcc.c ****     else
 840:Drivers/STM32F0xx_HAL_Driver/Src/stm32f0xx_hal_rcc.c ****     {
 841:Drivers/STM32F0xx_HAL_Driver/Src/stm32f0xx_hal_rcc.c ****       while (__HAL_RCC_GET_SYSCLK_SOURCE() != RCC_SYSCLKSOURCE_STATUS_HSI)
 842:Drivers/STM32F0xx_HAL_Driver/Src/stm32f0xx_hal_rcc.c ****       {
 843:Drivers/STM32F0xx_HAL_Driver/Src/stm32f0xx_hal_rcc.c ****         if((HAL_GetTick() - tickstart ) > CLOCKSWITCH_TIMEOUT_VALUE)
 844:Drivers/STM32F0xx_HAL_Driver/Src/stm32f0xx_hal_rcc.c ****         {
 845:Drivers/STM32F0xx_HAL_Driver/Src/stm32f0xx_hal_rcc.c ****           return HAL_TIMEOUT;
 846:Drivers/STM32F0xx_HAL_Driver/Src/stm32f0xx_hal_rcc.c ****         }
 847:Drivers/STM32F0xx_HAL_Driver/Src/stm32f0xx_hal_rcc.c ****       }
 848:Drivers/STM32F0xx_HAL_Driver/Src/stm32f0xx_hal_rcc.c ****     }      
 849:Drivers/STM32F0xx_HAL_Driver/Src/stm32f0xx_hal_rcc.c ****   }    
 850:Drivers/STM32F0xx_HAL_Driver/Src/stm32f0xx_hal_rcc.c ****   /* Decreasing the number of wait states because of lower CPU frequency */
 851:Drivers/STM32F0xx_HAL_Driver/Src/stm32f0xx_hal_rcc.c ****   if(FLatency < (FLASH->ACR & FLASH_ACR_LATENCY))
 852:Drivers/STM32F0xx_HAL_Driver/Src/stm32f0xx_hal_rcc.c ****   {    
 853:Drivers/STM32F0xx_HAL_Driver/Src/stm32f0xx_hal_rcc.c ****     /* Program the new number of wait states to the LATENCY bits in the FLASH_ACR register */
 854:Drivers/STM32F0xx_HAL_Driver/Src/stm32f0xx_hal_rcc.c ****     __HAL_FLASH_SET_LATENCY(FLatency);
 855:Drivers/STM32F0xx_HAL_Driver/Src/stm32f0xx_hal_rcc.c ****     
 856:Drivers/STM32F0xx_HAL_Driver/Src/stm32f0xx_hal_rcc.c ****     /* Check that the new number of wait states is taken into account to access the Flash
 857:Drivers/STM32F0xx_HAL_Driver/Src/stm32f0xx_hal_rcc.c ****     memory by reading the FLASH_ACR register */
 858:Drivers/STM32F0xx_HAL_Driver/Src/stm32f0xx_hal_rcc.c ****     if((FLASH->ACR & FLASH_ACR_LATENCY) != FLatency)
 859:Drivers/STM32F0xx_HAL_Driver/Src/stm32f0xx_hal_rcc.c ****     {
 860:Drivers/STM32F0xx_HAL_Driver/Src/stm32f0xx_hal_rcc.c ****       return HAL_ERROR;
 861:Drivers/STM32F0xx_HAL_Driver/Src/stm32f0xx_hal_rcc.c ****     }
 862:Drivers/STM32F0xx_HAL_Driver/Src/stm32f0xx_hal_rcc.c ****   }    
 863:Drivers/STM32F0xx_HAL_Driver/Src/stm32f0xx_hal_rcc.c **** 
 864:Drivers/STM32F0xx_HAL_Driver/Src/stm32f0xx_hal_rcc.c ****   /*-------------------------- PCLK1 Configuration ---------------------------*/ 
 865:Drivers/STM32F0xx_HAL_Driver/Src/stm32f0xx_hal_rcc.c ****   if(((RCC_ClkInitStruct->ClockType) & RCC_CLOCKTYPE_PCLK1) == RCC_CLOCKTYPE_PCLK1)
 866:Drivers/STM32F0xx_HAL_Driver/Src/stm32f0xx_hal_rcc.c ****   {
 867:Drivers/STM32F0xx_HAL_Driver/Src/stm32f0xx_hal_rcc.c ****     assert_param(IS_RCC_PCLK(RCC_ClkInitStruct->APB1CLKDivider));
 868:Drivers/STM32F0xx_HAL_Driver/Src/stm32f0xx_hal_rcc.c ****     MODIFY_REG(RCC->CFGR, RCC_CFGR_PPRE, RCC_ClkInitStruct->APB1CLKDivider);
 869:Drivers/STM32F0xx_HAL_Driver/Src/stm32f0xx_hal_rcc.c ****   }
 870:Drivers/STM32F0xx_HAL_Driver/Src/stm32f0xx_hal_rcc.c ****   
 871:Drivers/STM32F0xx_HAL_Driver/Src/stm32f0xx_hal_rcc.c ****   /* Update the SystemCoreClock global variable */
 872:Drivers/STM32F0xx_HAL_Driver/Src/stm32f0xx_hal_rcc.c ****   SystemCoreClock = HAL_RCC_GetSysClockFreq() >> AHBPrescTable[(RCC->CFGR & RCC_CFGR_HPRE)>> RCC_CF
 873:Drivers/STM32F0xx_HAL_Driver/Src/stm32f0xx_hal_rcc.c **** 
 874:Drivers/STM32F0xx_HAL_Driver/Src/stm32f0xx_hal_rcc.c ****   /* Configure the source of time base considering new system clocks settings*/
 875:Drivers/STM32F0xx_HAL_Driver/Src/stm32f0xx_hal_rcc.c ****   HAL_InitTick (TICK_INT_PRIORITY);
 876:Drivers/STM32F0xx_HAL_Driver/Src/stm32f0xx_hal_rcc.c ****   
 877:Drivers/STM32F0xx_HAL_Driver/Src/stm32f0xx_hal_rcc.c ****   return HAL_OK;
 878:Drivers/STM32F0xx_HAL_Driver/Src/stm32f0xx_hal_rcc.c **** }
 879:Drivers/STM32F0xx_HAL_Driver/Src/stm32f0xx_hal_rcc.c **** 
 880:Drivers/STM32F0xx_HAL_Driver/Src/stm32f0xx_hal_rcc.c **** /**
 881:Drivers/STM32F0xx_HAL_Driver/Src/stm32f0xx_hal_rcc.c ****   * @}
 882:Drivers/STM32F0xx_HAL_Driver/Src/stm32f0xx_hal_rcc.c ****   */
 883:Drivers/STM32F0xx_HAL_Driver/Src/stm32f0xx_hal_rcc.c **** 
 884:Drivers/STM32F0xx_HAL_Driver/Src/stm32f0xx_hal_rcc.c **** /** @defgroup RCC_Exported_Functions_Group2 Peripheral Control functions
 885:Drivers/STM32F0xx_HAL_Driver/Src/stm32f0xx_hal_rcc.c ****   *  @brief   RCC clocks control functions
 886:Drivers/STM32F0xx_HAL_Driver/Src/stm32f0xx_hal_rcc.c ****   *
 887:Drivers/STM32F0xx_HAL_Driver/Src/stm32f0xx_hal_rcc.c ****   @verbatim   
 888:Drivers/STM32F0xx_HAL_Driver/Src/stm32f0xx_hal_rcc.c ****   ===============================================================================
 889:Drivers/STM32F0xx_HAL_Driver/Src/stm32f0xx_hal_rcc.c ****                   ##### Peripheral Control functions #####
 890:Drivers/STM32F0xx_HAL_Driver/Src/stm32f0xx_hal_rcc.c ****   ===============================================================================  
ARM GAS  /tmp/ccD6GDME.s 			page 40


 891:Drivers/STM32F0xx_HAL_Driver/Src/stm32f0xx_hal_rcc.c ****     [..]
 892:Drivers/STM32F0xx_HAL_Driver/Src/stm32f0xx_hal_rcc.c ****     This subsection provides a set of functions allowing to control the RCC Clocks 
 893:Drivers/STM32F0xx_HAL_Driver/Src/stm32f0xx_hal_rcc.c ****     frequencies.
 894:Drivers/STM32F0xx_HAL_Driver/Src/stm32f0xx_hal_rcc.c **** 
 895:Drivers/STM32F0xx_HAL_Driver/Src/stm32f0xx_hal_rcc.c ****   @endverbatim
 896:Drivers/STM32F0xx_HAL_Driver/Src/stm32f0xx_hal_rcc.c ****   * @{
 897:Drivers/STM32F0xx_HAL_Driver/Src/stm32f0xx_hal_rcc.c ****   */
 898:Drivers/STM32F0xx_HAL_Driver/Src/stm32f0xx_hal_rcc.c **** 
 899:Drivers/STM32F0xx_HAL_Driver/Src/stm32f0xx_hal_rcc.c **** #if defined(RCC_CFGR_MCOPRE)
 900:Drivers/STM32F0xx_HAL_Driver/Src/stm32f0xx_hal_rcc.c **** /**
 901:Drivers/STM32F0xx_HAL_Driver/Src/stm32f0xx_hal_rcc.c ****   * @brief  Selects the clock source to output on MCO pin.
 902:Drivers/STM32F0xx_HAL_Driver/Src/stm32f0xx_hal_rcc.c ****   * @note   MCO pin should be configured in alternate function mode.
 903:Drivers/STM32F0xx_HAL_Driver/Src/stm32f0xx_hal_rcc.c ****   * @param  RCC_MCOx specifies the output direction for the clock source.
 904:Drivers/STM32F0xx_HAL_Driver/Src/stm32f0xx_hal_rcc.c ****   *          This parameter can be one of the following values:
 905:Drivers/STM32F0xx_HAL_Driver/Src/stm32f0xx_hal_rcc.c ****   *            @arg @ref RCC_MCO1 Clock source to output on MCO1 pin(PA8).
 906:Drivers/STM32F0xx_HAL_Driver/Src/stm32f0xx_hal_rcc.c ****   * @param  RCC_MCOSource specifies the clock source to output.
 907:Drivers/STM32F0xx_HAL_Driver/Src/stm32f0xx_hal_rcc.c ****   *          This parameter can be one of the following values:
 908:Drivers/STM32F0xx_HAL_Driver/Src/stm32f0xx_hal_rcc.c ****   *            @arg @ref RCC_MCO1SOURCE_NOCLOCK     No clock selected
 909:Drivers/STM32F0xx_HAL_Driver/Src/stm32f0xx_hal_rcc.c ****   *            @arg @ref RCC_MCO1SOURCE_SYSCLK      System Clock selected as MCO clock
 910:Drivers/STM32F0xx_HAL_Driver/Src/stm32f0xx_hal_rcc.c ****   *            @arg @ref RCC_MCO1SOURCE_HSI         HSI selected as MCO clock
 911:Drivers/STM32F0xx_HAL_Driver/Src/stm32f0xx_hal_rcc.c ****   *            @arg @ref RCC_MCO1SOURCE_HSE         HSE selected as MCO clock
 912:Drivers/STM32F0xx_HAL_Driver/Src/stm32f0xx_hal_rcc.c ****   *            @arg @ref RCC_MCO1SOURCE_LSI         LSI selected as MCO clock
 913:Drivers/STM32F0xx_HAL_Driver/Src/stm32f0xx_hal_rcc.c ****   *            @arg @ref RCC_MCO1SOURCE_LSE         LSE selected as MCO clock
 914:Drivers/STM32F0xx_HAL_Driver/Src/stm32f0xx_hal_rcc.c ****   *            @arg @ref RCC_MCO1SOURCE_HSI14       HSI14 selected as MCO clock
 915:Drivers/STM32F0xx_HAL_Driver/Src/stm32f0xx_hal_rcc.c ****   @if STM32F042x6
 916:Drivers/STM32F0xx_HAL_Driver/Src/stm32f0xx_hal_rcc.c ****   *            @arg @ref RCC_MCO1SOURCE_HSI48       HSI48 selected as MCO clock
 917:Drivers/STM32F0xx_HAL_Driver/Src/stm32f0xx_hal_rcc.c ****   *            @arg @ref RCC_MCO1SOURCE_PLLCLK      PLLCLK selected as MCO clock
 918:Drivers/STM32F0xx_HAL_Driver/Src/stm32f0xx_hal_rcc.c ****   @elseif STM32F048xx
 919:Drivers/STM32F0xx_HAL_Driver/Src/stm32f0xx_hal_rcc.c ****   *            @arg @ref RCC_MCO1SOURCE_HSI48       HSI48 selected as MCO clock
 920:Drivers/STM32F0xx_HAL_Driver/Src/stm32f0xx_hal_rcc.c ****   *            @arg @ref RCC_MCO1SOURCE_PLLCLK      PLLCLK selected as MCO clock
 921:Drivers/STM32F0xx_HAL_Driver/Src/stm32f0xx_hal_rcc.c ****   @elseif STM32F071xB
 922:Drivers/STM32F0xx_HAL_Driver/Src/stm32f0xx_hal_rcc.c ****   *            @arg @ref RCC_MCO1SOURCE_HSI48       HSI48 selected as MCO clock
 923:Drivers/STM32F0xx_HAL_Driver/Src/stm32f0xx_hal_rcc.c ****   *            @arg @ref RCC_MCO1SOURCE_PLLCLK      PLLCLK selected as MCO clock
 924:Drivers/STM32F0xx_HAL_Driver/Src/stm32f0xx_hal_rcc.c ****   @elseif STM32F072xB
 925:Drivers/STM32F0xx_HAL_Driver/Src/stm32f0xx_hal_rcc.c ****   *            @arg @ref RCC_MCO1SOURCE_HSI48       HSI48 selected as MCO clock
 926:Drivers/STM32F0xx_HAL_Driver/Src/stm32f0xx_hal_rcc.c ****   *            @arg @ref RCC_MCO1SOURCE_PLLCLK      PLLCLK selected as MCO clock
 927:Drivers/STM32F0xx_HAL_Driver/Src/stm32f0xx_hal_rcc.c ****   @elseif STM32F078xx
 928:Drivers/STM32F0xx_HAL_Driver/Src/stm32f0xx_hal_rcc.c ****   *            @arg @ref RCC_MCO1SOURCE_HSI48       HSI48 selected as MCO clock
 929:Drivers/STM32F0xx_HAL_Driver/Src/stm32f0xx_hal_rcc.c ****   *            @arg @ref RCC_MCO1SOURCE_PLLCLK      PLLCLK selected as MCO clock
 930:Drivers/STM32F0xx_HAL_Driver/Src/stm32f0xx_hal_rcc.c ****   @elseif STM32F091xC
 931:Drivers/STM32F0xx_HAL_Driver/Src/stm32f0xx_hal_rcc.c ****   *            @arg @ref RCC_MCO1SOURCE_HSI48       HSI48 selected as MCO clock
 932:Drivers/STM32F0xx_HAL_Driver/Src/stm32f0xx_hal_rcc.c ****   *            @arg @ref RCC_MCO1SOURCE_PLLCLK      PLLCLK selected as MCO clock
 933:Drivers/STM32F0xx_HAL_Driver/Src/stm32f0xx_hal_rcc.c ****   @elseif STM32F098xx
 934:Drivers/STM32F0xx_HAL_Driver/Src/stm32f0xx_hal_rcc.c ****   *            @arg @ref RCC_MCO1SOURCE_HSI48       HSI48 selected as MCO clock
 935:Drivers/STM32F0xx_HAL_Driver/Src/stm32f0xx_hal_rcc.c ****   *            @arg @ref RCC_MCO1SOURCE_PLLCLK      PLLCLK selected as MCO clock
 936:Drivers/STM32F0xx_HAL_Driver/Src/stm32f0xx_hal_rcc.c ****   @elif STM32F030x6
 937:Drivers/STM32F0xx_HAL_Driver/Src/stm32f0xx_hal_rcc.c ****   *            @arg @ref RCC_MCO1SOURCE_PLLCLK      PLLCLK selected as MCO clock
 938:Drivers/STM32F0xx_HAL_Driver/Src/stm32f0xx_hal_rcc.c ****   @elif STM32F030xC
 939:Drivers/STM32F0xx_HAL_Driver/Src/stm32f0xx_hal_rcc.c ****   *            @arg @ref RCC_MCO1SOURCE_PLLCLK      PLLCLK selected as MCO clock
 940:Drivers/STM32F0xx_HAL_Driver/Src/stm32f0xx_hal_rcc.c ****   @elif STM32F031x6
 941:Drivers/STM32F0xx_HAL_Driver/Src/stm32f0xx_hal_rcc.c ****   *            @arg @ref RCC_MCO1SOURCE_PLLCLK      PLLCLK selected as MCO clock
 942:Drivers/STM32F0xx_HAL_Driver/Src/stm32f0xx_hal_rcc.c ****   @elif STM32F038xx
 943:Drivers/STM32F0xx_HAL_Driver/Src/stm32f0xx_hal_rcc.c ****   *            @arg @ref RCC_MCO1SOURCE_PLLCLK      PLLCLK selected as MCO clock
 944:Drivers/STM32F0xx_HAL_Driver/Src/stm32f0xx_hal_rcc.c ****   @elif STM32F070x6
 945:Drivers/STM32F0xx_HAL_Driver/Src/stm32f0xx_hal_rcc.c ****   *            @arg @ref RCC_MCO1SOURCE_PLLCLK      PLLCLK selected as MCO clock
 946:Drivers/STM32F0xx_HAL_Driver/Src/stm32f0xx_hal_rcc.c ****   @elif STM32F070xB
 947:Drivers/STM32F0xx_HAL_Driver/Src/stm32f0xx_hal_rcc.c ****   *            @arg @ref RCC_MCO1SOURCE_PLLCLK      PLLCLK selected as MCO clock
ARM GAS  /tmp/ccD6GDME.s 			page 41


 948:Drivers/STM32F0xx_HAL_Driver/Src/stm32f0xx_hal_rcc.c ****   @endif
 949:Drivers/STM32F0xx_HAL_Driver/Src/stm32f0xx_hal_rcc.c ****   *            @arg @ref RCC_MCO1SOURCE_PLLCLK_DIV2 PLLCLK Divided by 2 selected as MCO clock
 950:Drivers/STM32F0xx_HAL_Driver/Src/stm32f0xx_hal_rcc.c ****   * @param  RCC_MCODiv specifies the MCO DIV.
 951:Drivers/STM32F0xx_HAL_Driver/Src/stm32f0xx_hal_rcc.c ****   *          This parameter can be one of the following values:
 952:Drivers/STM32F0xx_HAL_Driver/Src/stm32f0xx_hal_rcc.c ****   *            @arg @ref RCC_MCODIV_1   no division applied to MCO clock
 953:Drivers/STM32F0xx_HAL_Driver/Src/stm32f0xx_hal_rcc.c ****   *            @arg @ref RCC_MCODIV_2   division by 2 applied to MCO clock
 954:Drivers/STM32F0xx_HAL_Driver/Src/stm32f0xx_hal_rcc.c ****   *            @arg @ref RCC_MCODIV_4   division by 4 applied to MCO clock
 955:Drivers/STM32F0xx_HAL_Driver/Src/stm32f0xx_hal_rcc.c ****   *            @arg @ref RCC_MCODIV_8   division by 8 applied to MCO clock
 956:Drivers/STM32F0xx_HAL_Driver/Src/stm32f0xx_hal_rcc.c ****   *            @arg @ref RCC_MCODIV_16  division by 16 applied to MCO clock
 957:Drivers/STM32F0xx_HAL_Driver/Src/stm32f0xx_hal_rcc.c ****   *            @arg @ref RCC_MCODIV_32  division by 32 applied to MCO clock
 958:Drivers/STM32F0xx_HAL_Driver/Src/stm32f0xx_hal_rcc.c ****   *            @arg @ref RCC_MCODIV_64  division by 64 applied to MCO clock
 959:Drivers/STM32F0xx_HAL_Driver/Src/stm32f0xx_hal_rcc.c ****   *            @arg @ref RCC_MCODIV_128 division by 128 applied to MCO clock
 960:Drivers/STM32F0xx_HAL_Driver/Src/stm32f0xx_hal_rcc.c ****   * @retval None
 961:Drivers/STM32F0xx_HAL_Driver/Src/stm32f0xx_hal_rcc.c ****   */
 962:Drivers/STM32F0xx_HAL_Driver/Src/stm32f0xx_hal_rcc.c **** #else
 963:Drivers/STM32F0xx_HAL_Driver/Src/stm32f0xx_hal_rcc.c **** /**
 964:Drivers/STM32F0xx_HAL_Driver/Src/stm32f0xx_hal_rcc.c ****   * @brief  Selects the clock source to output on MCO pin.
 965:Drivers/STM32F0xx_HAL_Driver/Src/stm32f0xx_hal_rcc.c ****   * @note   MCO pin should be configured in alternate function mode.
 966:Drivers/STM32F0xx_HAL_Driver/Src/stm32f0xx_hal_rcc.c ****   * @param  RCC_MCOx specifies the output direction for the clock source.
 967:Drivers/STM32F0xx_HAL_Driver/Src/stm32f0xx_hal_rcc.c ****   *          This parameter can be one of the following values:
 968:Drivers/STM32F0xx_HAL_Driver/Src/stm32f0xx_hal_rcc.c ****   *            @arg @ref RCC_MCO1 Clock source to output on MCO1 pin(PA8).
 969:Drivers/STM32F0xx_HAL_Driver/Src/stm32f0xx_hal_rcc.c ****   * @param  RCC_MCOSource specifies the clock source to output.
 970:Drivers/STM32F0xx_HAL_Driver/Src/stm32f0xx_hal_rcc.c ****   *          This parameter can be one of the following values:
 971:Drivers/STM32F0xx_HAL_Driver/Src/stm32f0xx_hal_rcc.c ****   *            @arg @ref RCC_MCO1SOURCE_NOCLOCK     No clock selected as MCO clock
 972:Drivers/STM32F0xx_HAL_Driver/Src/stm32f0xx_hal_rcc.c ****   *            @arg @ref RCC_MCO1SOURCE_SYSCLK      System clock selected as MCO clock
 973:Drivers/STM32F0xx_HAL_Driver/Src/stm32f0xx_hal_rcc.c ****   *            @arg @ref RCC_MCO1SOURCE_HSI         HSI selected as MCO clock
 974:Drivers/STM32F0xx_HAL_Driver/Src/stm32f0xx_hal_rcc.c ****   *            @arg @ref RCC_MCO1SOURCE_HSE         HSE selected as MCO clock
 975:Drivers/STM32F0xx_HAL_Driver/Src/stm32f0xx_hal_rcc.c ****   *            @arg @ref RCC_MCO1SOURCE_LSI         LSI selected as MCO clock
 976:Drivers/STM32F0xx_HAL_Driver/Src/stm32f0xx_hal_rcc.c ****   *            @arg @ref RCC_MCO1SOURCE_LSE         LSE selected as MCO clock
 977:Drivers/STM32F0xx_HAL_Driver/Src/stm32f0xx_hal_rcc.c ****   *            @arg @ref RCC_MCO1SOURCE_HSI14       HSI14 selected as MCO clock
 978:Drivers/STM32F0xx_HAL_Driver/Src/stm32f0xx_hal_rcc.c ****   *            @arg @ref RCC_MCO1SOURCE_PLLCLK_DIV2 PLLCLK Divided by 2 selected as MCO clock
 979:Drivers/STM32F0xx_HAL_Driver/Src/stm32f0xx_hal_rcc.c ****   * @param  RCC_MCODiv specifies the MCO DIV.
 980:Drivers/STM32F0xx_HAL_Driver/Src/stm32f0xx_hal_rcc.c ****   *          This parameter can be one of the following values:
 981:Drivers/STM32F0xx_HAL_Driver/Src/stm32f0xx_hal_rcc.c ****   *            @arg @ref RCC_MCODIV_1 no division applied to MCO clock
 982:Drivers/STM32F0xx_HAL_Driver/Src/stm32f0xx_hal_rcc.c ****   * @retval None
 983:Drivers/STM32F0xx_HAL_Driver/Src/stm32f0xx_hal_rcc.c ****   */
 984:Drivers/STM32F0xx_HAL_Driver/Src/stm32f0xx_hal_rcc.c **** #endif
 985:Drivers/STM32F0xx_HAL_Driver/Src/stm32f0xx_hal_rcc.c **** void HAL_RCC_MCOConfig(uint32_t RCC_MCOx, uint32_t RCC_MCOSource, uint32_t RCC_MCODiv)
 986:Drivers/STM32F0xx_HAL_Driver/Src/stm32f0xx_hal_rcc.c **** {
 1189              		.loc 1 986 1 is_stmt 1 view -0
 1190              		.cfi_startproc
 1191              		@ args = 0, pretend = 0, frame = 24
 1192              		@ frame_needed = 0, uses_anonymous_args = 0
 1193              		.loc 1 986 1 is_stmt 0 view .LVU333
 1194 0000 70B5     		push	{r4, r5, r6, lr}
 1195              	.LCFI2:
 1196              		.cfi_def_cfa_offset 16
 1197              		.cfi_offset 4, -16
 1198              		.cfi_offset 5, -12
 1199              		.cfi_offset 6, -8
 1200              		.cfi_offset 14, -4
 1201 0002 86B0     		sub	sp, sp, #24
 1202              	.LCFI3:
 1203              		.cfi_def_cfa_offset 40
 1204 0004 0D00     		movs	r5, r1
 1205 0006 1600     		movs	r6, r2
 987:Drivers/STM32F0xx_HAL_Driver/Src/stm32f0xx_hal_rcc.c ****   GPIO_InitTypeDef gpio;
ARM GAS  /tmp/ccD6GDME.s 			page 42


 1206              		.loc 1 987 3 is_stmt 1 view .LVU334
 988:Drivers/STM32F0xx_HAL_Driver/Src/stm32f0xx_hal_rcc.c **** 
 989:Drivers/STM32F0xx_HAL_Driver/Src/stm32f0xx_hal_rcc.c ****   /* Check the parameters */
 990:Drivers/STM32F0xx_HAL_Driver/Src/stm32f0xx_hal_rcc.c ****   assert_param(IS_RCC_MCO(RCC_MCOx));
 1207              		.loc 1 990 3 view .LVU335
 991:Drivers/STM32F0xx_HAL_Driver/Src/stm32f0xx_hal_rcc.c ****   assert_param(IS_RCC_MCODIV(RCC_MCODiv));
 1208              		.loc 1 991 3 view .LVU336
 992:Drivers/STM32F0xx_HAL_Driver/Src/stm32f0xx_hal_rcc.c ****   assert_param(IS_RCC_MCO1SOURCE(RCC_MCOSource));
 1209              		.loc 1 992 3 view .LVU337
 993:Drivers/STM32F0xx_HAL_Driver/Src/stm32f0xx_hal_rcc.c ****   
 994:Drivers/STM32F0xx_HAL_Driver/Src/stm32f0xx_hal_rcc.c ****   /* Configure the MCO1 pin in alternate function mode */
 995:Drivers/STM32F0xx_HAL_Driver/Src/stm32f0xx_hal_rcc.c ****   gpio.Mode      = GPIO_MODE_AF_PP;
 1210              		.loc 1 995 3 view .LVU338
 1211              		.loc 1 995 18 is_stmt 0 view .LVU339
 1212 0008 0223     		movs	r3, #2
 1213 000a 0293     		str	r3, [sp, #8]
 996:Drivers/STM32F0xx_HAL_Driver/Src/stm32f0xx_hal_rcc.c ****   gpio.Speed     = GPIO_SPEED_FREQ_HIGH;
 1214              		.loc 1 996 3 is_stmt 1 view .LVU340
 1215              		.loc 1 996 18 is_stmt 0 view .LVU341
 1216 000c 0133     		adds	r3, r3, #1
 1217 000e 0493     		str	r3, [sp, #16]
 997:Drivers/STM32F0xx_HAL_Driver/Src/stm32f0xx_hal_rcc.c ****   gpio.Pull      = GPIO_NOPULL;
 1218              		.loc 1 997 3 is_stmt 1 view .LVU342
 1219              		.loc 1 997 18 is_stmt 0 view .LVU343
 1220 0010 0023     		movs	r3, #0
 1221 0012 0393     		str	r3, [sp, #12]
 998:Drivers/STM32F0xx_HAL_Driver/Src/stm32f0xx_hal_rcc.c ****   gpio.Pin       = MCO1_PIN;
 1222              		.loc 1 998 3 is_stmt 1 view .LVU344
 1223              		.loc 1 998 18 is_stmt 0 view .LVU345
 1224 0014 8022     		movs	r2, #128
 1225              	.LVL76:
 1226              		.loc 1 998 18 view .LVU346
 1227 0016 5200     		lsls	r2, r2, #1
 1228 0018 0192     		str	r2, [sp, #4]
 999:Drivers/STM32F0xx_HAL_Driver/Src/stm32f0xx_hal_rcc.c ****   gpio.Alternate = GPIO_AF0_MCO;
 1229              		.loc 1 999 3 is_stmt 1 view .LVU347
 1230              		.loc 1 999 18 is_stmt 0 view .LVU348
 1231 001a 0593     		str	r3, [sp, #20]
1000:Drivers/STM32F0xx_HAL_Driver/Src/stm32f0xx_hal_rcc.c **** 
1001:Drivers/STM32F0xx_HAL_Driver/Src/stm32f0xx_hal_rcc.c ****   /* MCO1 Clock Enable */
1002:Drivers/STM32F0xx_HAL_Driver/Src/stm32f0xx_hal_rcc.c ****   MCO1_CLK_ENABLE();
 1232              		.loc 1 1002 3 is_stmt 1 view .LVU349
 1233              	.LBB5:
 1234              		.loc 1 1002 3 view .LVU350
 1235              		.loc 1 1002 3 view .LVU351
 1236 001c 0B4C     		ldr	r4, .L114
 1237 001e 6269     		ldr	r2, [r4, #20]
 1238 0020 8021     		movs	r1, #128
 1239              	.LVL77:
 1240              		.loc 1 1002 3 is_stmt 0 view .LVU352
 1241 0022 8902     		lsls	r1, r1, #10
 1242 0024 0A43     		orrs	r2, r1
 1243 0026 6261     		str	r2, [r4, #20]
 1244              		.loc 1 1002 3 is_stmt 1 view .LVU353
 1245 0028 6369     		ldr	r3, [r4, #20]
 1246 002a 0B40     		ands	r3, r1
 1247 002c 0093     		str	r3, [sp]
ARM GAS  /tmp/ccD6GDME.s 			page 43


 1248              		.loc 1 1002 3 view .LVU354
 1249 002e 009B     		ldr	r3, [sp]
 1250              	.LBE5:
1003:Drivers/STM32F0xx_HAL_Driver/Src/stm32f0xx_hal_rcc.c ****   
1004:Drivers/STM32F0xx_HAL_Driver/Src/stm32f0xx_hal_rcc.c ****   HAL_GPIO_Init(MCO1_GPIO_PORT, &gpio);
 1251              		.loc 1 1004 3 view .LVU355
 1252 0030 9020     		movs	r0, #144
 1253              	.LVL78:
 1254              		.loc 1 1004 3 is_stmt 0 view .LVU356
 1255 0032 01A9     		add	r1, sp, #4
 1256 0034 C005     		lsls	r0, r0, #23
 1257 0036 FFF7FEFF 		bl	HAL_GPIO_Init
 1258              	.LVL79:
1005:Drivers/STM32F0xx_HAL_Driver/Src/stm32f0xx_hal_rcc.c ****   
1006:Drivers/STM32F0xx_HAL_Driver/Src/stm32f0xx_hal_rcc.c ****   /* Configure the MCO clock source */
1007:Drivers/STM32F0xx_HAL_Driver/Src/stm32f0xx_hal_rcc.c ****   __HAL_RCC_MCO1_CONFIG(RCC_MCOSource, RCC_MCODiv);
 1259              		.loc 1 1007 3 is_stmt 1 view .LVU357
 1260 003a 6268     		ldr	r2, [r4, #4]
 1261 003c 0449     		ldr	r1, .L114+4
 1262 003e 0A40     		ands	r2, r1
 1263 0040 3543     		orrs	r5, r6
 1264              	.LVL80:
 1265              		.loc 1 1007 3 is_stmt 0 view .LVU358
 1266 0042 2A43     		orrs	r2, r5
 1267 0044 6260     		str	r2, [r4, #4]
1008:Drivers/STM32F0xx_HAL_Driver/Src/stm32f0xx_hal_rcc.c **** }
 1268              		.loc 1 1008 1 view .LVU359
 1269 0046 06B0     		add	sp, sp, #24
 1270              		@ sp needed
 1271              	.LVL81:
 1272              		.loc 1 1008 1 view .LVU360
 1273 0048 70BD     		pop	{r4, r5, r6, pc}
 1274              	.L115:
 1275 004a C046     		.align	2
 1276              	.L114:
 1277 004c 00100240 		.word	1073876992
 1278 0050 FFFFFF80 		.word	-2130706433
 1279              		.cfi_endproc
 1280              	.LFE40:
 1282              		.section	.text.HAL_RCC_EnableCSS,"ax",%progbits
 1283              		.align	1
 1284              		.global	HAL_RCC_EnableCSS
 1285              		.syntax unified
 1286              		.code	16
 1287              		.thumb_func
 1288              		.fpu softvfp
 1290              	HAL_RCC_EnableCSS:
 1291              	.LFB41:
1009:Drivers/STM32F0xx_HAL_Driver/Src/stm32f0xx_hal_rcc.c **** 
1010:Drivers/STM32F0xx_HAL_Driver/Src/stm32f0xx_hal_rcc.c **** /**
1011:Drivers/STM32F0xx_HAL_Driver/Src/stm32f0xx_hal_rcc.c ****   * @brief  Enables the Clock Security System.
1012:Drivers/STM32F0xx_HAL_Driver/Src/stm32f0xx_hal_rcc.c ****   * @note   If a failure is detected on the HSE oscillator clock, this oscillator
1013:Drivers/STM32F0xx_HAL_Driver/Src/stm32f0xx_hal_rcc.c ****   *         is automatically disabled and an interrupt is generated to inform the
1014:Drivers/STM32F0xx_HAL_Driver/Src/stm32f0xx_hal_rcc.c ****   *         software about the failure (Clock Security System Interrupt, CSSI),
1015:Drivers/STM32F0xx_HAL_Driver/Src/stm32f0xx_hal_rcc.c ****   *         allowing the MCU to perform rescue operations. The CSSI is linked to 
1016:Drivers/STM32F0xx_HAL_Driver/Src/stm32f0xx_hal_rcc.c ****   *         the Cortex-M0 NMI (Non-Maskable Interrupt) exception vector.  
1017:Drivers/STM32F0xx_HAL_Driver/Src/stm32f0xx_hal_rcc.c ****   * @retval None
ARM GAS  /tmp/ccD6GDME.s 			page 44


1018:Drivers/STM32F0xx_HAL_Driver/Src/stm32f0xx_hal_rcc.c ****   */
1019:Drivers/STM32F0xx_HAL_Driver/Src/stm32f0xx_hal_rcc.c **** void HAL_RCC_EnableCSS(void)
1020:Drivers/STM32F0xx_HAL_Driver/Src/stm32f0xx_hal_rcc.c **** {
 1292              		.loc 1 1020 1 is_stmt 1 view -0
 1293              		.cfi_startproc
 1294              		@ args = 0, pretend = 0, frame = 0
 1295              		@ frame_needed = 0, uses_anonymous_args = 0
 1296              		@ link register save eliminated.
1021:Drivers/STM32F0xx_HAL_Driver/Src/stm32f0xx_hal_rcc.c ****   SET_BIT(RCC->CR, RCC_CR_CSSON) ;
 1297              		.loc 1 1021 3 view .LVU362
 1298 0000 034A     		ldr	r2, .L117
 1299 0002 1168     		ldr	r1, [r2]
 1300 0004 8023     		movs	r3, #128
 1301 0006 1B03     		lsls	r3, r3, #12
 1302 0008 0B43     		orrs	r3, r1
 1303 000a 1360     		str	r3, [r2]
1022:Drivers/STM32F0xx_HAL_Driver/Src/stm32f0xx_hal_rcc.c **** }
 1304              		.loc 1 1022 1 is_stmt 0 view .LVU363
 1305              		@ sp needed
 1306 000c 7047     		bx	lr
 1307              	.L118:
 1308 000e C046     		.align	2
 1309              	.L117:
 1310 0010 00100240 		.word	1073876992
 1311              		.cfi_endproc
 1312              	.LFE41:
 1314              		.section	.text.HAL_RCC_DisableCSS,"ax",%progbits
 1315              		.align	1
 1316              		.global	HAL_RCC_DisableCSS
 1317              		.syntax unified
 1318              		.code	16
 1319              		.thumb_func
 1320              		.fpu softvfp
 1322              	HAL_RCC_DisableCSS:
 1323              	.LFB42:
1023:Drivers/STM32F0xx_HAL_Driver/Src/stm32f0xx_hal_rcc.c **** 
1024:Drivers/STM32F0xx_HAL_Driver/Src/stm32f0xx_hal_rcc.c **** /**
1025:Drivers/STM32F0xx_HAL_Driver/Src/stm32f0xx_hal_rcc.c ****   * @brief  Disables the Clock Security System.
1026:Drivers/STM32F0xx_HAL_Driver/Src/stm32f0xx_hal_rcc.c ****   * @retval None
1027:Drivers/STM32F0xx_HAL_Driver/Src/stm32f0xx_hal_rcc.c ****   */
1028:Drivers/STM32F0xx_HAL_Driver/Src/stm32f0xx_hal_rcc.c **** void HAL_RCC_DisableCSS(void)
1029:Drivers/STM32F0xx_HAL_Driver/Src/stm32f0xx_hal_rcc.c **** {
 1324              		.loc 1 1029 1 is_stmt 1 view -0
 1325              		.cfi_startproc
 1326              		@ args = 0, pretend = 0, frame = 0
 1327              		@ frame_needed = 0, uses_anonymous_args = 0
 1328              		@ link register save eliminated.
1030:Drivers/STM32F0xx_HAL_Driver/Src/stm32f0xx_hal_rcc.c ****   CLEAR_BIT(RCC->CR, RCC_CR_CSSON) ;
 1329              		.loc 1 1030 3 view .LVU365
 1330 0000 024A     		ldr	r2, .L120
 1331 0002 1368     		ldr	r3, [r2]
 1332 0004 0249     		ldr	r1, .L120+4
 1333 0006 0B40     		ands	r3, r1
 1334 0008 1360     		str	r3, [r2]
1031:Drivers/STM32F0xx_HAL_Driver/Src/stm32f0xx_hal_rcc.c **** }
 1335              		.loc 1 1031 1 is_stmt 0 view .LVU366
 1336              		@ sp needed
ARM GAS  /tmp/ccD6GDME.s 			page 45


 1337 000a 7047     		bx	lr
 1338              	.L121:
 1339              		.align	2
 1340              	.L120:
 1341 000c 00100240 		.word	1073876992
 1342 0010 FFFFF7FF 		.word	-524289
 1343              		.cfi_endproc
 1344              	.LFE42:
 1346              		.global	__aeabi_uidiv
 1347              		.section	.rodata.HAL_RCC_GetSysClockFreq.str1.4,"aMS",%progbits,1
 1348              		.align	2
 1349              	.LC1:
 1350 0000 02030405 		.ascii	"\002\003\004\005\006\007\010\011\012\013\014\015\016"
 1350      06070809 
 1350      0A0B0C0D 
 1350      0E
 1351 000d 0F101000 		.ascii	"\017\020\020\000"
 1352 0011 000000   		.align	2
 1353              	.LC3:
 1354 0014 01020304 		.ascii	"\001\002\003\004\005\006\007\010\011\012\013\014\015"
 1354      05060708 
 1354      090A0B0C 
 1354      0D
 1355 0021 0E0F1000 		.ascii	"\016\017\020\000"
 1356              		.section	.text.HAL_RCC_GetSysClockFreq,"ax",%progbits
 1357              		.align	1
 1358              		.global	HAL_RCC_GetSysClockFreq
 1359              		.syntax unified
 1360              		.code	16
 1361              		.thumb_func
 1362              		.fpu softvfp
 1364              	HAL_RCC_GetSysClockFreq:
 1365              	.LFB43:
1032:Drivers/STM32F0xx_HAL_Driver/Src/stm32f0xx_hal_rcc.c **** 
1033:Drivers/STM32F0xx_HAL_Driver/Src/stm32f0xx_hal_rcc.c **** /**
1034:Drivers/STM32F0xx_HAL_Driver/Src/stm32f0xx_hal_rcc.c ****   * @brief  Returns the SYSCLK frequency     
1035:Drivers/STM32F0xx_HAL_Driver/Src/stm32f0xx_hal_rcc.c ****   * @note   The system frequency computed by this function is not the real 
1036:Drivers/STM32F0xx_HAL_Driver/Src/stm32f0xx_hal_rcc.c ****   *         frequency in the chip. It is calculated based on the predefined 
1037:Drivers/STM32F0xx_HAL_Driver/Src/stm32f0xx_hal_rcc.c ****   *         constant and the selected clock source:
1038:Drivers/STM32F0xx_HAL_Driver/Src/stm32f0xx_hal_rcc.c ****   * @note     If SYSCLK source is HSI, function returns values based on HSI_VALUE(*)
1039:Drivers/STM32F0xx_HAL_Driver/Src/stm32f0xx_hal_rcc.c ****   * @note     If SYSCLK source is HSE, function returns a value based on HSE_VALUE
1040:Drivers/STM32F0xx_HAL_Driver/Src/stm32f0xx_hal_rcc.c ****   *           divided by PREDIV factor(**)
1041:Drivers/STM32F0xx_HAL_Driver/Src/stm32f0xx_hal_rcc.c ****   * @note     If SYSCLK source is PLL, function returns a value based on HSE_VALUE
1042:Drivers/STM32F0xx_HAL_Driver/Src/stm32f0xx_hal_rcc.c ****   *           divided by PREDIV factor(**) or depending on STM32F0xxxx devices either a value based
1043:Drivers/STM32F0xx_HAL_Driver/Src/stm32f0xx_hal_rcc.c ****   *           on HSI_VALUE divided by 2 or HSI_VALUE divided by PREDIV factor(*) multiplied by the 
1044:Drivers/STM32F0xx_HAL_Driver/Src/stm32f0xx_hal_rcc.c ****   *           PLL factor.
1045:Drivers/STM32F0xx_HAL_Driver/Src/stm32f0xx_hal_rcc.c ****   * @note     (*) HSI_VALUE is a constant defined in stm32f0xx_hal_conf.h file (default value
1046:Drivers/STM32F0xx_HAL_Driver/Src/stm32f0xx_hal_rcc.c ****   *               8 MHz) but the real value may vary depending on the variations
1047:Drivers/STM32F0xx_HAL_Driver/Src/stm32f0xx_hal_rcc.c ****   *               in voltage and temperature.
1048:Drivers/STM32F0xx_HAL_Driver/Src/stm32f0xx_hal_rcc.c ****   * @note     (**) HSE_VALUE is a constant defined in stm32f0xx_hal_conf.h file (default value
1049:Drivers/STM32F0xx_HAL_Driver/Src/stm32f0xx_hal_rcc.c ****   *                8 MHz), user has to ensure that HSE_VALUE is same as the real
1050:Drivers/STM32F0xx_HAL_Driver/Src/stm32f0xx_hal_rcc.c ****   *                frequency of the crystal used. Otherwise, this function may
1051:Drivers/STM32F0xx_HAL_Driver/Src/stm32f0xx_hal_rcc.c ****   *                have wrong result.
1052:Drivers/STM32F0xx_HAL_Driver/Src/stm32f0xx_hal_rcc.c ****   *                  
1053:Drivers/STM32F0xx_HAL_Driver/Src/stm32f0xx_hal_rcc.c ****   * @note   The result of this function could be not correct when using fractional
1054:Drivers/STM32F0xx_HAL_Driver/Src/stm32f0xx_hal_rcc.c ****   *         value for HSE crystal.
1055:Drivers/STM32F0xx_HAL_Driver/Src/stm32f0xx_hal_rcc.c ****   *           
ARM GAS  /tmp/ccD6GDME.s 			page 46


1056:Drivers/STM32F0xx_HAL_Driver/Src/stm32f0xx_hal_rcc.c ****   * @note   This function can be used by the user application to compute the 
1057:Drivers/STM32F0xx_HAL_Driver/Src/stm32f0xx_hal_rcc.c ****   *         baud-rate for the communication peripherals or configure other parameters.
1058:Drivers/STM32F0xx_HAL_Driver/Src/stm32f0xx_hal_rcc.c ****   *           
1059:Drivers/STM32F0xx_HAL_Driver/Src/stm32f0xx_hal_rcc.c ****   * @note   Each time SYSCLK changes, this function must be called to update the
1060:Drivers/STM32F0xx_HAL_Driver/Src/stm32f0xx_hal_rcc.c ****   *         right SYSCLK value. Otherwise, any configuration based on this function will be incorre
1061:Drivers/STM32F0xx_HAL_Driver/Src/stm32f0xx_hal_rcc.c ****   *         
1062:Drivers/STM32F0xx_HAL_Driver/Src/stm32f0xx_hal_rcc.c ****   * @retval SYSCLK frequency
1063:Drivers/STM32F0xx_HAL_Driver/Src/stm32f0xx_hal_rcc.c ****   */
1064:Drivers/STM32F0xx_HAL_Driver/Src/stm32f0xx_hal_rcc.c **** uint32_t HAL_RCC_GetSysClockFreq(void)
1065:Drivers/STM32F0xx_HAL_Driver/Src/stm32f0xx_hal_rcc.c **** {
 1366              		.loc 1 1065 1 is_stmt 1 view -0
 1367              		.cfi_startproc
 1368              		@ args = 0, pretend = 0, frame = 32
 1369              		@ frame_needed = 0, uses_anonymous_args = 0
 1370 0000 10B5     		push	{r4, lr}
 1371              	.LCFI4:
 1372              		.cfi_def_cfa_offset 8
 1373              		.cfi_offset 4, -8
 1374              		.cfi_offset 14, -4
 1375 0002 88B0     		sub	sp, sp, #32
 1376              	.LCFI5:
 1377              		.cfi_def_cfa_offset 40
1066:Drivers/STM32F0xx_HAL_Driver/Src/stm32f0xx_hal_rcc.c ****   const uint8_t aPLLMULFactorTable[16] = { 2U,  3U,  4U,  5U,  6U,  7U,  8U,  9U,
 1378              		.loc 1 1066 3 view .LVU368
 1379              		.loc 1 1066 17 is_stmt 0 view .LVU369
 1380 0004 04AA     		add	r2, sp, #16
 1381 0006 1E4B     		ldr	r3, .L130
 1382 0008 13CB     		ldmia	r3!, {r0, r1, r4}
 1383 000a 13C2     		stmia	r2!, {r0, r1, r4}
 1384 000c 1B68     		ldr	r3, [r3]
 1385 000e 1360     		str	r3, [r2]
1067:Drivers/STM32F0xx_HAL_Driver/Src/stm32f0xx_hal_rcc.c ****                                          10U, 11U, 12U, 13U, 14U, 15U, 16U, 16U};
1068:Drivers/STM32F0xx_HAL_Driver/Src/stm32f0xx_hal_rcc.c ****   const uint8_t aPredivFactorTable[16] = { 1U, 2U,  3U,  4U,  5U,  6U,  7U,  8U,
 1386              		.loc 1 1068 3 is_stmt 1 view .LVU370
 1387              		.loc 1 1068 17 is_stmt 0 view .LVU371
 1388 0010 6A46     		mov	r2, sp
 1389 0012 1C4B     		ldr	r3, .L130+4
 1390 0014 13CB     		ldmia	r3!, {r0, r1, r4}
 1391 0016 13C2     		stmia	r2!, {r0, r1, r4}
 1392 0018 1B68     		ldr	r3, [r3]
 1393 001a 1360     		str	r3, [r2]
1069:Drivers/STM32F0xx_HAL_Driver/Src/stm32f0xx_hal_rcc.c ****                                            9U,10U, 11U, 12U, 13U, 14U, 15U, 16U};
1070:Drivers/STM32F0xx_HAL_Driver/Src/stm32f0xx_hal_rcc.c **** 
1071:Drivers/STM32F0xx_HAL_Driver/Src/stm32f0xx_hal_rcc.c ****   uint32_t tmpreg = 0U, prediv = 0U, pllclk = 0U, pllmul = 0U;
 1394              		.loc 1 1071 3 is_stmt 1 view .LVU372
 1395              	.LVL82:
1072:Drivers/STM32F0xx_HAL_Driver/Src/stm32f0xx_hal_rcc.c ****   uint32_t sysclockfreq = 0U;
 1396              		.loc 1 1072 3 view .LVU373
1073:Drivers/STM32F0xx_HAL_Driver/Src/stm32f0xx_hal_rcc.c ****   
1074:Drivers/STM32F0xx_HAL_Driver/Src/stm32f0xx_hal_rcc.c ****   tmpreg = RCC->CFGR;
 1397              		.loc 1 1074 3 view .LVU374
 1398              		.loc 1 1074 10 is_stmt 0 view .LVU375
 1399 001c 1A4B     		ldr	r3, .L130+8
 1400 001e 5A68     		ldr	r2, [r3, #4]
 1401              	.LVL83:
1075:Drivers/STM32F0xx_HAL_Driver/Src/stm32f0xx_hal_rcc.c ****   
1076:Drivers/STM32F0xx_HAL_Driver/Src/stm32f0xx_hal_rcc.c ****   /* Get SYSCLK source -------------------------------------------------------*/
ARM GAS  /tmp/ccD6GDME.s 			page 47


1077:Drivers/STM32F0xx_HAL_Driver/Src/stm32f0xx_hal_rcc.c ****   switch (tmpreg & RCC_CFGR_SWS)
 1402              		.loc 1 1077 3 is_stmt 1 view .LVU376
 1403              		.loc 1 1077 18 is_stmt 0 view .LVU377
 1404 0020 0C23     		movs	r3, #12
 1405 0022 1340     		ands	r3, r2
 1406              		.loc 1 1077 3 view .LVU378
 1407 0024 082B     		cmp	r3, #8
 1408 0026 04D0     		beq	.L123
 1409 0028 0C2B     		cmp	r3, #12
 1410 002a 26D1     		bne	.L127
1078:Drivers/STM32F0xx_HAL_Driver/Src/stm32f0xx_hal_rcc.c ****   {
1079:Drivers/STM32F0xx_HAL_Driver/Src/stm32f0xx_hal_rcc.c ****     case RCC_SYSCLKSOURCE_STATUS_HSE:  /* HSE used as system clock */
1080:Drivers/STM32F0xx_HAL_Driver/Src/stm32f0xx_hal_rcc.c ****     {
1081:Drivers/STM32F0xx_HAL_Driver/Src/stm32f0xx_hal_rcc.c ****       sysclockfreq = HSE_VALUE;
1082:Drivers/STM32F0xx_HAL_Driver/Src/stm32f0xx_hal_rcc.c ****       break;
1083:Drivers/STM32F0xx_HAL_Driver/Src/stm32f0xx_hal_rcc.c ****     }
1084:Drivers/STM32F0xx_HAL_Driver/Src/stm32f0xx_hal_rcc.c ****     case RCC_SYSCLKSOURCE_STATUS_PLLCLK:  /* PLL used as system clock */
1085:Drivers/STM32F0xx_HAL_Driver/Src/stm32f0xx_hal_rcc.c ****     {
1086:Drivers/STM32F0xx_HAL_Driver/Src/stm32f0xx_hal_rcc.c ****       pllmul = aPLLMULFactorTable[(uint32_t)(tmpreg & RCC_CFGR_PLLMUL) >> RCC_CFGR_PLLMUL_BITNUMBER
1087:Drivers/STM32F0xx_HAL_Driver/Src/stm32f0xx_hal_rcc.c ****       prediv = aPredivFactorTable[(uint32_t)(RCC->CFGR2 & RCC_CFGR2_PREDIV) >> RCC_CFGR2_PREDIV_BIT
1088:Drivers/STM32F0xx_HAL_Driver/Src/stm32f0xx_hal_rcc.c ****       if ((tmpreg & RCC_CFGR_PLLSRC) == RCC_PLLSOURCE_HSE)
1089:Drivers/STM32F0xx_HAL_Driver/Src/stm32f0xx_hal_rcc.c ****       {
1090:Drivers/STM32F0xx_HAL_Driver/Src/stm32f0xx_hal_rcc.c ****         /* HSE used as PLL clock source : PLLCLK = HSE/PREDIV * PLLMUL */
1091:Drivers/STM32F0xx_HAL_Driver/Src/stm32f0xx_hal_rcc.c ****         pllclk = (HSE_VALUE / prediv) * pllmul;
1092:Drivers/STM32F0xx_HAL_Driver/Src/stm32f0xx_hal_rcc.c ****       }
1093:Drivers/STM32F0xx_HAL_Driver/Src/stm32f0xx_hal_rcc.c **** #if defined(RCC_CFGR_PLLSRC_HSI48_PREDIV)
1094:Drivers/STM32F0xx_HAL_Driver/Src/stm32f0xx_hal_rcc.c ****       else if ((tmpreg & RCC_CFGR_PLLSRC) == RCC_PLLSOURCE_HSI48)
1095:Drivers/STM32F0xx_HAL_Driver/Src/stm32f0xx_hal_rcc.c ****       {
1096:Drivers/STM32F0xx_HAL_Driver/Src/stm32f0xx_hal_rcc.c ****         /* HSI48 used as PLL clock source : PLLCLK = HSI48/PREDIV * PLLMUL */
1097:Drivers/STM32F0xx_HAL_Driver/Src/stm32f0xx_hal_rcc.c ****         pllclk = (HSI48_VALUE / prediv) * pllmul;
1098:Drivers/STM32F0xx_HAL_Driver/Src/stm32f0xx_hal_rcc.c ****       }
1099:Drivers/STM32F0xx_HAL_Driver/Src/stm32f0xx_hal_rcc.c **** #endif /* RCC_CFGR_PLLSRC_HSI48_PREDIV */
1100:Drivers/STM32F0xx_HAL_Driver/Src/stm32f0xx_hal_rcc.c ****       else
1101:Drivers/STM32F0xx_HAL_Driver/Src/stm32f0xx_hal_rcc.c ****       {
1102:Drivers/STM32F0xx_HAL_Driver/Src/stm32f0xx_hal_rcc.c **** #if  (defined(STM32F042x6) || defined(STM32F048xx) || defined(STM32F070x6) || defined(STM32F071xB) 
1103:Drivers/STM32F0xx_HAL_Driver/Src/stm32f0xx_hal_rcc.c ****         /* HSI used as PLL clock source : PLLCLK = HSI/PREDIV * PLLMUL */
1104:Drivers/STM32F0xx_HAL_Driver/Src/stm32f0xx_hal_rcc.c ****         pllclk = (HSI_VALUE / prediv) * pllmul;
1105:Drivers/STM32F0xx_HAL_Driver/Src/stm32f0xx_hal_rcc.c **** #else
1106:Drivers/STM32F0xx_HAL_Driver/Src/stm32f0xx_hal_rcc.c ****         /* HSI used as PLL clock source : PLLCLK = HSI/2 * PLLMUL */
1107:Drivers/STM32F0xx_HAL_Driver/Src/stm32f0xx_hal_rcc.c ****         pllclk = (uint32_t)((HSI_VALUE >> 1U) * pllmul);
1108:Drivers/STM32F0xx_HAL_Driver/Src/stm32f0xx_hal_rcc.c **** #endif
1109:Drivers/STM32F0xx_HAL_Driver/Src/stm32f0xx_hal_rcc.c ****       }
1110:Drivers/STM32F0xx_HAL_Driver/Src/stm32f0xx_hal_rcc.c ****       sysclockfreq = pllclk;
1111:Drivers/STM32F0xx_HAL_Driver/Src/stm32f0xx_hal_rcc.c ****       break;
1112:Drivers/STM32F0xx_HAL_Driver/Src/stm32f0xx_hal_rcc.c ****     }
1113:Drivers/STM32F0xx_HAL_Driver/Src/stm32f0xx_hal_rcc.c **** #if defined(RCC_CFGR_SWS_HSI48)
1114:Drivers/STM32F0xx_HAL_Driver/Src/stm32f0xx_hal_rcc.c ****     case RCC_SYSCLKSOURCE_STATUS_HSI48:    /* HSI48 used as system clock source */
1115:Drivers/STM32F0xx_HAL_Driver/Src/stm32f0xx_hal_rcc.c ****     {
1116:Drivers/STM32F0xx_HAL_Driver/Src/stm32f0xx_hal_rcc.c ****       sysclockfreq = HSI48_VALUE;
 1411              		.loc 1 1116 20 view .LVU379
 1412 002c 1748     		ldr	r0, .L130+12
 1413              	.LVL84:
 1414              	.L122:
1117:Drivers/STM32F0xx_HAL_Driver/Src/stm32f0xx_hal_rcc.c ****       break;
1118:Drivers/STM32F0xx_HAL_Driver/Src/stm32f0xx_hal_rcc.c ****     }
1119:Drivers/STM32F0xx_HAL_Driver/Src/stm32f0xx_hal_rcc.c **** #endif /* RCC_CFGR_SWS_HSI48 */
1120:Drivers/STM32F0xx_HAL_Driver/Src/stm32f0xx_hal_rcc.c ****     case RCC_SYSCLKSOURCE_STATUS_HSI:  /* HSI used as system clock source */
ARM GAS  /tmp/ccD6GDME.s 			page 48


1121:Drivers/STM32F0xx_HAL_Driver/Src/stm32f0xx_hal_rcc.c ****     default: /* HSI used as system clock */
1122:Drivers/STM32F0xx_HAL_Driver/Src/stm32f0xx_hal_rcc.c ****     {
1123:Drivers/STM32F0xx_HAL_Driver/Src/stm32f0xx_hal_rcc.c ****       sysclockfreq = HSI_VALUE;
1124:Drivers/STM32F0xx_HAL_Driver/Src/stm32f0xx_hal_rcc.c ****       break;
1125:Drivers/STM32F0xx_HAL_Driver/Src/stm32f0xx_hal_rcc.c ****     }
1126:Drivers/STM32F0xx_HAL_Driver/Src/stm32f0xx_hal_rcc.c ****   }
1127:Drivers/STM32F0xx_HAL_Driver/Src/stm32f0xx_hal_rcc.c ****   return sysclockfreq;
1128:Drivers/STM32F0xx_HAL_Driver/Src/stm32f0xx_hal_rcc.c **** }
 1415              		.loc 1 1128 1 view .LVU380
 1416 002e 08B0     		add	sp, sp, #32
 1417              		@ sp needed
 1418 0030 10BD     		pop	{r4, pc}
 1419              	.LVL85:
 1420              	.L123:
1086:Drivers/STM32F0xx_HAL_Driver/Src/stm32f0xx_hal_rcc.c ****       prediv = aPredivFactorTable[(uint32_t)(RCC->CFGR2 & RCC_CFGR2_PREDIV) >> RCC_CFGR2_PREDIV_BIT
 1421              		.loc 1 1086 7 is_stmt 1 view .LVU381
1086:Drivers/STM32F0xx_HAL_Driver/Src/stm32f0xx_hal_rcc.c ****       prediv = aPredivFactorTable[(uint32_t)(RCC->CFGR2 & RCC_CFGR2_PREDIV) >> RCC_CFGR2_PREDIV_BIT
 1422              		.loc 1 1086 72 is_stmt 0 view .LVU382
 1423 0032 910C     		lsrs	r1, r2, #18
 1424 0034 0F23     		movs	r3, #15
 1425 0036 1940     		ands	r1, r3
1086:Drivers/STM32F0xx_HAL_Driver/Src/stm32f0xx_hal_rcc.c ****       prediv = aPredivFactorTable[(uint32_t)(RCC->CFGR2 & RCC_CFGR2_PREDIV) >> RCC_CFGR2_PREDIV_BIT
 1426              		.loc 1 1086 34 view .LVU383
 1427 0038 04A8     		add	r0, sp, #16
 1428 003a 445C     		ldrb	r4, [r0, r1]
 1429              	.LVL86:
1087:Drivers/STM32F0xx_HAL_Driver/Src/stm32f0xx_hal_rcc.c ****       if ((tmpreg & RCC_CFGR_PLLSRC) == RCC_PLLSOURCE_HSE)
 1430              		.loc 1 1087 7 is_stmt 1 view .LVU384
1087:Drivers/STM32F0xx_HAL_Driver/Src/stm32f0xx_hal_rcc.c ****       if ((tmpreg & RCC_CFGR_PLLSRC) == RCC_PLLSOURCE_HSE)
 1431              		.loc 1 1087 49 is_stmt 0 view .LVU385
 1432 003c 1249     		ldr	r1, .L130+8
 1433 003e C96A     		ldr	r1, [r1, #44]
1087:Drivers/STM32F0xx_HAL_Driver/Src/stm32f0xx_hal_rcc.c ****       if ((tmpreg & RCC_CFGR_PLLSRC) == RCC_PLLSOURCE_HSE)
 1434              		.loc 1 1087 77 view .LVU386
 1435 0040 0B40     		ands	r3, r1
1087:Drivers/STM32F0xx_HAL_Driver/Src/stm32f0xx_hal_rcc.c ****       if ((tmpreg & RCC_CFGR_PLLSRC) == RCC_PLLSOURCE_HSE)
 1436              		.loc 1 1087 34 view .LVU387
 1437 0042 6946     		mov	r1, sp
 1438 0044 C95C     		ldrb	r1, [r1, r3]
 1439              	.LVL87:
1088:Drivers/STM32F0xx_HAL_Driver/Src/stm32f0xx_hal_rcc.c ****       {
 1440              		.loc 1 1088 7 is_stmt 1 view .LVU388
1088:Drivers/STM32F0xx_HAL_Driver/Src/stm32f0xx_hal_rcc.c ****       {
 1441              		.loc 1 1088 19 is_stmt 0 view .LVU389
 1442 0046 C023     		movs	r3, #192
 1443 0048 5B02     		lsls	r3, r3, #9
 1444 004a 1A40     		ands	r2, r3
 1445              	.LVL88:
1088:Drivers/STM32F0xx_HAL_Driver/Src/stm32f0xx_hal_rcc.c ****       {
 1446              		.loc 1 1088 10 view .LVU390
 1447 004c 8023     		movs	r3, #128
 1448 004e 5B02     		lsls	r3, r3, #9
 1449 0050 9A42     		cmp	r2, r3
 1450 0052 08D0     		beq	.L128
1094:Drivers/STM32F0xx_HAL_Driver/Src/stm32f0xx_hal_rcc.c ****       {
 1451              		.loc 1 1094 12 is_stmt 1 view .LVU391
1094:Drivers/STM32F0xx_HAL_Driver/Src/stm32f0xx_hal_rcc.c ****       {
ARM GAS  /tmp/ccD6GDME.s 			page 49


 1452              		.loc 1 1094 15 is_stmt 0 view .LVU392
 1453 0054 C023     		movs	r3, #192
 1454 0056 5B02     		lsls	r3, r3, #9
 1455 0058 9A42     		cmp	r2, r3
 1456 005a 09D0     		beq	.L129
1104:Drivers/STM32F0xx_HAL_Driver/Src/stm32f0xx_hal_rcc.c **** #else
 1457              		.loc 1 1104 9 is_stmt 1 view .LVU393
1104:Drivers/STM32F0xx_HAL_Driver/Src/stm32f0xx_hal_rcc.c **** #else
 1458              		.loc 1 1104 29 is_stmt 0 view .LVU394
 1459 005c 0C48     		ldr	r0, .L130+16
 1460 005e FFF7FEFF 		bl	__aeabi_uidiv
 1461              	.LVL89:
1104:Drivers/STM32F0xx_HAL_Driver/Src/stm32f0xx_hal_rcc.c **** #else
 1462              		.loc 1 1104 16 view .LVU395
 1463 0062 6043     		muls	r0, r4
 1464              	.LVL90:
1104:Drivers/STM32F0xx_HAL_Driver/Src/stm32f0xx_hal_rcc.c **** #else
 1465              		.loc 1 1104 16 view .LVU396
 1466 0064 E3E7     		b	.L122
 1467              	.LVL91:
 1468              	.L128:
1091:Drivers/STM32F0xx_HAL_Driver/Src/stm32f0xx_hal_rcc.c ****       }
 1469              		.loc 1 1091 9 is_stmt 1 view .LVU397
1091:Drivers/STM32F0xx_HAL_Driver/Src/stm32f0xx_hal_rcc.c ****       }
 1470              		.loc 1 1091 29 is_stmt 0 view .LVU398
 1471 0066 0A48     		ldr	r0, .L130+16
 1472 0068 FFF7FEFF 		bl	__aeabi_uidiv
 1473              	.LVL92:
1091:Drivers/STM32F0xx_HAL_Driver/Src/stm32f0xx_hal_rcc.c ****       }
 1474              		.loc 1 1091 16 view .LVU399
 1475 006c 6043     		muls	r0, r4
 1476              	.LVL93:
1091:Drivers/STM32F0xx_HAL_Driver/Src/stm32f0xx_hal_rcc.c ****       }
 1477              		.loc 1 1091 16 view .LVU400
 1478 006e DEE7     		b	.L122
 1479              	.LVL94:
 1480              	.L129:
1097:Drivers/STM32F0xx_HAL_Driver/Src/stm32f0xx_hal_rcc.c ****       }
 1481              		.loc 1 1097 9 is_stmt 1 view .LVU401
1097:Drivers/STM32F0xx_HAL_Driver/Src/stm32f0xx_hal_rcc.c ****       }
 1482              		.loc 1 1097 31 is_stmt 0 view .LVU402
 1483 0070 0648     		ldr	r0, .L130+12
 1484 0072 FFF7FEFF 		bl	__aeabi_uidiv
 1485              	.LVL95:
1097:Drivers/STM32F0xx_HAL_Driver/Src/stm32f0xx_hal_rcc.c ****       }
 1486              		.loc 1 1097 16 view .LVU403
 1487 0076 6043     		muls	r0, r4
 1488              	.LVL96:
1097:Drivers/STM32F0xx_HAL_Driver/Src/stm32f0xx_hal_rcc.c ****       }
 1489              		.loc 1 1097 16 view .LVU404
 1490 0078 D9E7     		b	.L122
 1491              	.LVL97:
 1492              	.L127:
1077:Drivers/STM32F0xx_HAL_Driver/Src/stm32f0xx_hal_rcc.c ****   {
 1493              		.loc 1 1077 3 view .LVU405
 1494 007a 0548     		ldr	r0, .L130+16
 1495              	.LVL98:
ARM GAS  /tmp/ccD6GDME.s 			page 50


1127:Drivers/STM32F0xx_HAL_Driver/Src/stm32f0xx_hal_rcc.c **** }
 1496              		.loc 1 1127 3 is_stmt 1 view .LVU406
1127:Drivers/STM32F0xx_HAL_Driver/Src/stm32f0xx_hal_rcc.c **** }
 1497              		.loc 1 1127 10 is_stmt 0 view .LVU407
 1498 007c D7E7     		b	.L122
 1499              	.L131:
 1500 007e C046     		.align	2
 1501              	.L130:
 1502 0080 00000000 		.word	.LC1
 1503 0084 14000000 		.word	.LC3
 1504 0088 00100240 		.word	1073876992
 1505 008c 006CDC02 		.word	48000000
 1506 0090 00127A00 		.word	8000000
 1507              		.cfi_endproc
 1508              	.LFE43:
 1510              		.section	.text.HAL_RCC_ClockConfig,"ax",%progbits
 1511              		.align	1
 1512              		.global	HAL_RCC_ClockConfig
 1513              		.syntax unified
 1514              		.code	16
 1515              		.thumb_func
 1516              		.fpu softvfp
 1518              	HAL_RCC_ClockConfig:
 1519              	.LVL99:
 1520              	.LFB39:
 726:Drivers/STM32F0xx_HAL_Driver/Src/stm32f0xx_hal_rcc.c ****   uint32_t tickstart = 0U;
 1521              		.loc 1 726 1 is_stmt 1 view -0
 1522              		.cfi_startproc
 1523              		@ args = 0, pretend = 0, frame = 0
 1524              		@ frame_needed = 0, uses_anonymous_args = 0
 726:Drivers/STM32F0xx_HAL_Driver/Src/stm32f0xx_hal_rcc.c ****   uint32_t tickstart = 0U;
 1525              		.loc 1 726 1 is_stmt 0 view .LVU409
 1526 0000 70B5     		push	{r4, r5, r6, lr}
 1527              	.LCFI6:
 1528              		.cfi_def_cfa_offset 16
 1529              		.cfi_offset 4, -16
 1530              		.cfi_offset 5, -12
 1531              		.cfi_offset 6, -8
 1532              		.cfi_offset 14, -4
 1533 0002 0400     		movs	r4, r0
 1534 0004 0D00     		movs	r5, r1
 727:Drivers/STM32F0xx_HAL_Driver/Src/stm32f0xx_hal_rcc.c ****   
 1535              		.loc 1 727 3 is_stmt 1 view .LVU410
 1536              	.LVL100:
 730:Drivers/STM32F0xx_HAL_Driver/Src/stm32f0xx_hal_rcc.c ****   assert_param(IS_RCC_CLOCKTYPE(RCC_ClkInitStruct->ClockType));
 1537              		.loc 1 730 3 view .LVU411
 731:Drivers/STM32F0xx_HAL_Driver/Src/stm32f0xx_hal_rcc.c ****   assert_param(IS_FLASH_LATENCY(FLatency));
 1538              		.loc 1 731 3 view .LVU412
 732:Drivers/STM32F0xx_HAL_Driver/Src/stm32f0xx_hal_rcc.c **** 
 1539              		.loc 1 732 3 view .LVU413
 739:Drivers/STM32F0xx_HAL_Driver/Src/stm32f0xx_hal_rcc.c ****   {    
 1540              		.loc 1 739 3 view .LVU414
 739:Drivers/STM32F0xx_HAL_Driver/Src/stm32f0xx_hal_rcc.c ****   {    
 1541              		.loc 1 739 23 is_stmt 0 view .LVU415
 1542 0006 5A4B     		ldr	r3, .L169
 1543 0008 1A68     		ldr	r2, [r3]
 739:Drivers/STM32F0xx_HAL_Driver/Src/stm32f0xx_hal_rcc.c ****   {    
ARM GAS  /tmp/ccD6GDME.s 			page 51


 1544              		.loc 1 739 29 view .LVU416
 1545 000a 0123     		movs	r3, #1
 1546 000c 1340     		ands	r3, r2
 739:Drivers/STM32F0xx_HAL_Driver/Src/stm32f0xx_hal_rcc.c ****   {    
 1547              		.loc 1 739 5 view .LVU417
 1548 000e 8B42     		cmp	r3, r1
 1549 0010 0AD2     		bcs	.L133
 742:Drivers/STM32F0xx_HAL_Driver/Src/stm32f0xx_hal_rcc.c ****     
 1550              		.loc 1 742 5 is_stmt 1 view .LVU418
 1551 0012 5749     		ldr	r1, .L169
 1552              	.LVL101:
 742:Drivers/STM32F0xx_HAL_Driver/Src/stm32f0xx_hal_rcc.c ****     
 1553              		.loc 1 742 5 is_stmt 0 view .LVU419
 1554 0014 0B68     		ldr	r3, [r1]
 1555 0016 0122     		movs	r2, #1
 1556 0018 9343     		bics	r3, r2
 1557 001a 2B43     		orrs	r3, r5
 1558 001c 0B60     		str	r3, [r1]
 746:Drivers/STM32F0xx_HAL_Driver/Src/stm32f0xx_hal_rcc.c ****     {
 1559              		.loc 1 746 5 is_stmt 1 view .LVU420
 746:Drivers/STM32F0xx_HAL_Driver/Src/stm32f0xx_hal_rcc.c ****     {
 1560              		.loc 1 746 14 is_stmt 0 view .LVU421
 1561 001e 0B68     		ldr	r3, [r1]
 746:Drivers/STM32F0xx_HAL_Driver/Src/stm32f0xx_hal_rcc.c ****     {
 1562              		.loc 1 746 20 view .LVU422
 1563 0020 1A40     		ands	r2, r3
 746:Drivers/STM32F0xx_HAL_Driver/Src/stm32f0xx_hal_rcc.c ****     {
 1564              		.loc 1 746 7 view .LVU423
 1565 0022 AA42     		cmp	r2, r5
 1566 0024 00D0     		beq	.LCB1496
 1567 0026 9CE0     		b	.L153	@long jump
 1568              	.LCB1496:
 1569              	.L133:
 753:Drivers/STM32F0xx_HAL_Driver/Src/stm32f0xx_hal_rcc.c ****   {
 1570              		.loc 1 753 3 is_stmt 1 view .LVU424
 753:Drivers/STM32F0xx_HAL_Driver/Src/stm32f0xx_hal_rcc.c ****   {
 1571              		.loc 1 753 5 is_stmt 0 view .LVU425
 1572 0028 2368     		ldr	r3, [r4]
 1573 002a 9B07     		lsls	r3, r3, #30
 1574 002c 06D5     		bpl	.L135
 755:Drivers/STM32F0xx_HAL_Driver/Src/stm32f0xx_hal_rcc.c ****     MODIFY_REG(RCC->CFGR, RCC_CFGR_HPRE, RCC_ClkInitStruct->AHBCLKDivider);
 1575              		.loc 1 755 5 is_stmt 1 view .LVU426
 756:Drivers/STM32F0xx_HAL_Driver/Src/stm32f0xx_hal_rcc.c ****   }
 1576              		.loc 1 756 5 view .LVU427
 1577 002e 514A     		ldr	r2, .L169+4
 1578 0030 5368     		ldr	r3, [r2, #4]
 1579 0032 F021     		movs	r1, #240
 1580 0034 8B43     		bics	r3, r1
 1581 0036 A168     		ldr	r1, [r4, #8]
 1582 0038 0B43     		orrs	r3, r1
 1583 003a 5360     		str	r3, [r2, #4]
 1584              	.L135:
 760:Drivers/STM32F0xx_HAL_Driver/Src/stm32f0xx_hal_rcc.c ****   {    
 1585              		.loc 1 760 3 view .LVU428
 760:Drivers/STM32F0xx_HAL_Driver/Src/stm32f0xx_hal_rcc.c ****   {    
 1586              		.loc 1 760 5 is_stmt 0 view .LVU429
 1587 003c 2368     		ldr	r3, [r4]
ARM GAS  /tmp/ccD6GDME.s 			page 52


 1588 003e DB07     		lsls	r3, r3, #31
 1589 0040 64D5     		bpl	.L136
 762:Drivers/STM32F0xx_HAL_Driver/Src/stm32f0xx_hal_rcc.c ****     
 1590              		.loc 1 762 5 is_stmt 1 view .LVU430
 765:Drivers/STM32F0xx_HAL_Driver/Src/stm32f0xx_hal_rcc.c ****     {
 1591              		.loc 1 765 5 view .LVU431
 765:Drivers/STM32F0xx_HAL_Driver/Src/stm32f0xx_hal_rcc.c ****     {
 1592              		.loc 1 765 25 is_stmt 0 view .LVU432
 1593 0042 6368     		ldr	r3, [r4, #4]
 765:Drivers/STM32F0xx_HAL_Driver/Src/stm32f0xx_hal_rcc.c ****     {
 1594              		.loc 1 765 7 view .LVU433
 1595 0044 012B     		cmp	r3, #1
 1596 0046 09D0     		beq	.L165
 774:Drivers/STM32F0xx_HAL_Driver/Src/stm32f0xx_hal_rcc.c ****     {
 1597              		.loc 1 774 10 is_stmt 1 view .LVU434
 774:Drivers/STM32F0xx_HAL_Driver/Src/stm32f0xx_hal_rcc.c ****     {
 1598              		.loc 1 774 12 is_stmt 0 view .LVU435
 1599 0048 022B     		cmp	r3, #2
 1600 004a 29D0     		beq	.L166
 784:Drivers/STM32F0xx_HAL_Driver/Src/stm32f0xx_hal_rcc.c ****     {
 1601              		.loc 1 784 10 is_stmt 1 view .LVU436
 784:Drivers/STM32F0xx_HAL_Driver/Src/stm32f0xx_hal_rcc.c ****     {
 1602              		.loc 1 784 12 is_stmt 0 view .LVU437
 1603 004c 032B     		cmp	r3, #3
 1604 004e 2DD0     		beq	.L167
 797:Drivers/STM32F0xx_HAL_Driver/Src/stm32f0xx_hal_rcc.c ****       {
 1605              		.loc 1 797 7 is_stmt 1 view .LVU438
 797:Drivers/STM32F0xx_HAL_Driver/Src/stm32f0xx_hal_rcc.c ****       {
 1606              		.loc 1 797 10 is_stmt 0 view .LVU439
 1607 0050 484A     		ldr	r2, .L169+4
 1608 0052 1268     		ldr	r2, [r2]
 797:Drivers/STM32F0xx_HAL_Driver/Src/stm32f0xx_hal_rcc.c ****       {
 1609              		.loc 1 797 9 view .LVU440
 1610 0054 9207     		lsls	r2, r2, #30
 1611 0056 06D4     		bmi	.L138
 799:Drivers/STM32F0xx_HAL_Driver/Src/stm32f0xx_hal_rcc.c ****       }
 1612              		.loc 1 799 16 view .LVU441
 1613 0058 0120     		movs	r0, #1
 1614              	.LVL102:
 799:Drivers/STM32F0xx_HAL_Driver/Src/stm32f0xx_hal_rcc.c ****       }
 1615              		.loc 1 799 16 view .LVU442
 1616 005a 81E0     		b	.L134
 1617              	.LVL103:
 1618              	.L165:
 768:Drivers/STM32F0xx_HAL_Driver/Src/stm32f0xx_hal_rcc.c ****       {
 1619              		.loc 1 768 7 is_stmt 1 view .LVU443
 768:Drivers/STM32F0xx_HAL_Driver/Src/stm32f0xx_hal_rcc.c ****       {
 1620              		.loc 1 768 10 is_stmt 0 view .LVU444
 1621 005c 454A     		ldr	r2, .L169+4
 1622 005e 1268     		ldr	r2, [r2]
 768:Drivers/STM32F0xx_HAL_Driver/Src/stm32f0xx_hal_rcc.c ****       {
 1623              		.loc 1 768 9 view .LVU445
 1624 0060 9203     		lsls	r2, r2, #14
 1625 0062 00D4     		bmi	.LCB1555
 1626 0064 7FE0     		b	.L168	@long jump
 1627              	.LCB1555:
 1628              	.L138:
ARM GAS  /tmp/ccD6GDME.s 			page 53


 802:Drivers/STM32F0xx_HAL_Driver/Src/stm32f0xx_hal_rcc.c **** 
 1629              		.loc 1 802 5 is_stmt 1 view .LVU446
 1630 0066 4349     		ldr	r1, .L169+4
 1631 0068 4A68     		ldr	r2, [r1, #4]
 1632 006a 0320     		movs	r0, #3
 1633              	.LVL104:
 802:Drivers/STM32F0xx_HAL_Driver/Src/stm32f0xx_hal_rcc.c **** 
 1634              		.loc 1 802 5 is_stmt 0 view .LVU447
 1635 006c 8243     		bics	r2, r0
 1636 006e 1343     		orrs	r3, r2
 1637 0070 4B60     		str	r3, [r1, #4]
 805:Drivers/STM32F0xx_HAL_Driver/Src/stm32f0xx_hal_rcc.c ****     
 1638              		.loc 1 805 5 is_stmt 1 view .LVU448
 805:Drivers/STM32F0xx_HAL_Driver/Src/stm32f0xx_hal_rcc.c ****     
 1639              		.loc 1 805 17 is_stmt 0 view .LVU449
 1640 0072 FFF7FEFF 		bl	HAL_GetTick
 1641              	.LVL105:
 1642 0076 0600     		movs	r6, r0
 1643              	.LVL106:
 807:Drivers/STM32F0xx_HAL_Driver/Src/stm32f0xx_hal_rcc.c ****     {
 1644              		.loc 1 807 5 is_stmt 1 view .LVU450
 807:Drivers/STM32F0xx_HAL_Driver/Src/stm32f0xx_hal_rcc.c ****     {
 1645              		.loc 1 807 25 is_stmt 0 view .LVU451
 1646 0078 6368     		ldr	r3, [r4, #4]
 807:Drivers/STM32F0xx_HAL_Driver/Src/stm32f0xx_hal_rcc.c ****     {
 1647              		.loc 1 807 7 view .LVU452
 1648 007a 012B     		cmp	r3, #1
 1649 007c 1CD0     		beq	.L141
 817:Drivers/STM32F0xx_HAL_Driver/Src/stm32f0xx_hal_rcc.c ****     {
 1650              		.loc 1 817 10 is_stmt 1 view .LVU453
 817:Drivers/STM32F0xx_HAL_Driver/Src/stm32f0xx_hal_rcc.c ****     {
 1651              		.loc 1 817 12 is_stmt 0 view .LVU454
 1652 007e 022B     		cmp	r3, #2
 1653 0080 28D0     		beq	.L144
 828:Drivers/STM32F0xx_HAL_Driver/Src/stm32f0xx_hal_rcc.c ****     {
 1654              		.loc 1 828 10 is_stmt 1 view .LVU455
 828:Drivers/STM32F0xx_HAL_Driver/Src/stm32f0xx_hal_rcc.c ****     {
 1655              		.loc 1 828 12 is_stmt 0 view .LVU456
 1656 0082 032B     		cmp	r3, #3
 1657 0084 34D0     		beq	.L147
 1658              	.LVL107:
 1659              	.L148:
 841:Drivers/STM32F0xx_HAL_Driver/Src/stm32f0xx_hal_rcc.c ****       {
 1660              		.loc 1 841 14 view .LVU457
 1661 0086 3B4B     		ldr	r3, .L169+4
 1662 0088 5B68     		ldr	r3, [r3, #4]
 1663 008a 0C22     		movs	r2, #12
 841:Drivers/STM32F0xx_HAL_Driver/Src/stm32f0xx_hal_rcc.c ****       {
 1664              		.loc 1 841 13 view .LVU458
 1665 008c 1A42     		tst	r2, r3
 1666 008e 3DD0     		beq	.L136
 843:Drivers/STM32F0xx_HAL_Driver/Src/stm32f0xx_hal_rcc.c ****         {
 1667              		.loc 1 843 9 is_stmt 1 view .LVU459
 843:Drivers/STM32F0xx_HAL_Driver/Src/stm32f0xx_hal_rcc.c ****         {
 1668              		.loc 1 843 13 is_stmt 0 view .LVU460
 1669 0090 FFF7FEFF 		bl	HAL_GetTick
 1670              	.LVL108:
ARM GAS  /tmp/ccD6GDME.s 			page 54


 843:Drivers/STM32F0xx_HAL_Driver/Src/stm32f0xx_hal_rcc.c ****         {
 1671              		.loc 1 843 27 view .LVU461
 1672 0094 801B     		subs	r0, r0, r6
 843:Drivers/STM32F0xx_HAL_Driver/Src/stm32f0xx_hal_rcc.c ****         {
 1673              		.loc 1 843 11 view .LVU462
 1674 0096 384B     		ldr	r3, .L169+8
 1675 0098 9842     		cmp	r0, r3
 1676 009a F4D9     		bls	.L148
 845:Drivers/STM32F0xx_HAL_Driver/Src/stm32f0xx_hal_rcc.c ****         }
 1677              		.loc 1 845 18 view .LVU463
 1678 009c 0320     		movs	r0, #3
 1679 009e 5FE0     		b	.L134
 1680              	.LVL109:
 1681              	.L166:
 777:Drivers/STM32F0xx_HAL_Driver/Src/stm32f0xx_hal_rcc.c ****       {
 1682              		.loc 1 777 7 is_stmt 1 view .LVU464
 777:Drivers/STM32F0xx_HAL_Driver/Src/stm32f0xx_hal_rcc.c ****       {
 1683              		.loc 1 777 10 is_stmt 0 view .LVU465
 1684 00a0 344A     		ldr	r2, .L169+4
 1685 00a2 1268     		ldr	r2, [r2]
 777:Drivers/STM32F0xx_HAL_Driver/Src/stm32f0xx_hal_rcc.c ****       {
 1686              		.loc 1 777 9 view .LVU466
 1687 00a4 9201     		lsls	r2, r2, #6
 1688 00a6 DED4     		bmi	.L138
 779:Drivers/STM32F0xx_HAL_Driver/Src/stm32f0xx_hal_rcc.c ****       }
 1689              		.loc 1 779 16 view .LVU467
 1690 00a8 0120     		movs	r0, #1
 1691              	.LVL110:
 779:Drivers/STM32F0xx_HAL_Driver/Src/stm32f0xx_hal_rcc.c ****       }
 1692              		.loc 1 779 16 view .LVU468
 1693 00aa 59E0     		b	.L134
 1694              	.LVL111:
 1695              	.L167:
 787:Drivers/STM32F0xx_HAL_Driver/Src/stm32f0xx_hal_rcc.c ****       {
 1696              		.loc 1 787 7 is_stmt 1 view .LVU469
 787:Drivers/STM32F0xx_HAL_Driver/Src/stm32f0xx_hal_rcc.c ****       {
 1697              		.loc 1 787 10 is_stmt 0 view .LVU470
 1698 00ac 314A     		ldr	r2, .L169+4
 1699 00ae 526B     		ldr	r2, [r2, #52]
 787:Drivers/STM32F0xx_HAL_Driver/Src/stm32f0xx_hal_rcc.c ****       {
 1700              		.loc 1 787 9 view .LVU471
 1701 00b0 D203     		lsls	r2, r2, #15
 1702 00b2 D8D4     		bmi	.L138
 789:Drivers/STM32F0xx_HAL_Driver/Src/stm32f0xx_hal_rcc.c ****       }
 1703              		.loc 1 789 16 view .LVU472
 1704 00b4 0120     		movs	r0, #1
 1705              	.LVL112:
 789:Drivers/STM32F0xx_HAL_Driver/Src/stm32f0xx_hal_rcc.c ****       }
 1706              		.loc 1 789 16 view .LVU473
 1707 00b6 53E0     		b	.L134
 1708              	.LVL113:
 1709              	.L141:
 809:Drivers/STM32F0xx_HAL_Driver/Src/stm32f0xx_hal_rcc.c ****       {
 1710              		.loc 1 809 14 view .LVU474
 1711 00b8 2E4B     		ldr	r3, .L169+4
 1712 00ba 5A68     		ldr	r2, [r3, #4]
 1713 00bc 0C23     		movs	r3, #12
ARM GAS  /tmp/ccD6GDME.s 			page 55


 1714 00be 1340     		ands	r3, r2
 809:Drivers/STM32F0xx_HAL_Driver/Src/stm32f0xx_hal_rcc.c ****       {
 1715              		.loc 1 809 13 view .LVU475
 1716 00c0 042B     		cmp	r3, #4
 1717 00c2 23D0     		beq	.L136
 811:Drivers/STM32F0xx_HAL_Driver/Src/stm32f0xx_hal_rcc.c ****         {
 1718              		.loc 1 811 9 is_stmt 1 view .LVU476
 811:Drivers/STM32F0xx_HAL_Driver/Src/stm32f0xx_hal_rcc.c ****         {
 1719              		.loc 1 811 13 is_stmt 0 view .LVU477
 1720 00c4 FFF7FEFF 		bl	HAL_GetTick
 1721              	.LVL114:
 811:Drivers/STM32F0xx_HAL_Driver/Src/stm32f0xx_hal_rcc.c ****         {
 1722              		.loc 1 811 27 view .LVU478
 1723 00c8 801B     		subs	r0, r0, r6
 811:Drivers/STM32F0xx_HAL_Driver/Src/stm32f0xx_hal_rcc.c ****         {
 1724              		.loc 1 811 11 view .LVU479
 1725 00ca 2B4A     		ldr	r2, .L169+8
 1726 00cc 9042     		cmp	r0, r2
 1727 00ce F3D9     		bls	.L141
 813:Drivers/STM32F0xx_HAL_Driver/Src/stm32f0xx_hal_rcc.c ****         }
 1728              		.loc 1 813 18 view .LVU480
 1729 00d0 0320     		movs	r0, #3
 1730 00d2 45E0     		b	.L134
 1731              	.L144:
 819:Drivers/STM32F0xx_HAL_Driver/Src/stm32f0xx_hal_rcc.c ****       {
 1732              		.loc 1 819 14 view .LVU481
 1733 00d4 274B     		ldr	r3, .L169+4
 1734 00d6 5A68     		ldr	r2, [r3, #4]
 1735 00d8 0C23     		movs	r3, #12
 1736 00da 1340     		ands	r3, r2
 819:Drivers/STM32F0xx_HAL_Driver/Src/stm32f0xx_hal_rcc.c ****       {
 1737              		.loc 1 819 13 view .LVU482
 1738 00dc 082B     		cmp	r3, #8
 1739 00de 15D0     		beq	.L136
 821:Drivers/STM32F0xx_HAL_Driver/Src/stm32f0xx_hal_rcc.c ****         {
 1740              		.loc 1 821 9 is_stmt 1 view .LVU483
 821:Drivers/STM32F0xx_HAL_Driver/Src/stm32f0xx_hal_rcc.c ****         {
 1741              		.loc 1 821 13 is_stmt 0 view .LVU484
 1742 00e0 FFF7FEFF 		bl	HAL_GetTick
 1743              	.LVL115:
 821:Drivers/STM32F0xx_HAL_Driver/Src/stm32f0xx_hal_rcc.c ****         {
 1744              		.loc 1 821 27 view .LVU485
 1745 00e4 801B     		subs	r0, r0, r6
 821:Drivers/STM32F0xx_HAL_Driver/Src/stm32f0xx_hal_rcc.c ****         {
 1746              		.loc 1 821 11 view .LVU486
 1747 00e6 244B     		ldr	r3, .L169+8
 1748 00e8 9842     		cmp	r0, r3
 1749 00ea F3D9     		bls	.L144
 823:Drivers/STM32F0xx_HAL_Driver/Src/stm32f0xx_hal_rcc.c ****         }
 1750              		.loc 1 823 18 view .LVU487
 1751 00ec 0320     		movs	r0, #3
 1752 00ee 37E0     		b	.L134
 1753              	.L147:
 830:Drivers/STM32F0xx_HAL_Driver/Src/stm32f0xx_hal_rcc.c ****       {
 1754              		.loc 1 830 14 view .LVU488
 1755 00f0 204B     		ldr	r3, .L169+4
 1756 00f2 5A68     		ldr	r2, [r3, #4]
ARM GAS  /tmp/ccD6GDME.s 			page 56


 1757 00f4 0C23     		movs	r3, #12
 1758 00f6 1340     		ands	r3, r2
 830:Drivers/STM32F0xx_HAL_Driver/Src/stm32f0xx_hal_rcc.c ****       {
 1759              		.loc 1 830 13 view .LVU489
 1760 00f8 0C2B     		cmp	r3, #12
 1761 00fa 07D0     		beq	.L136
 832:Drivers/STM32F0xx_HAL_Driver/Src/stm32f0xx_hal_rcc.c ****         {
 1762              		.loc 1 832 9 is_stmt 1 view .LVU490
 832:Drivers/STM32F0xx_HAL_Driver/Src/stm32f0xx_hal_rcc.c ****         {
 1763              		.loc 1 832 13 is_stmt 0 view .LVU491
 1764 00fc FFF7FEFF 		bl	HAL_GetTick
 1765              	.LVL116:
 832:Drivers/STM32F0xx_HAL_Driver/Src/stm32f0xx_hal_rcc.c ****         {
 1766              		.loc 1 832 27 view .LVU492
 1767 0100 801B     		subs	r0, r0, r6
 832:Drivers/STM32F0xx_HAL_Driver/Src/stm32f0xx_hal_rcc.c ****         {
 1768              		.loc 1 832 11 view .LVU493
 1769 0102 1D4B     		ldr	r3, .L169+8
 1770 0104 9842     		cmp	r0, r3
 1771 0106 F3D9     		bls	.L147
 834:Drivers/STM32F0xx_HAL_Driver/Src/stm32f0xx_hal_rcc.c ****         }
 1772              		.loc 1 834 18 view .LVU494
 1773 0108 0320     		movs	r0, #3
 1774 010a 29E0     		b	.L134
 1775              	.LVL117:
 1776              	.L136:
 851:Drivers/STM32F0xx_HAL_Driver/Src/stm32f0xx_hal_rcc.c ****   {    
 1777              		.loc 1 851 3 is_stmt 1 view .LVU495
 851:Drivers/STM32F0xx_HAL_Driver/Src/stm32f0xx_hal_rcc.c ****   {    
 1778              		.loc 1 851 23 is_stmt 0 view .LVU496
 1779 010c 184B     		ldr	r3, .L169
 1780 010e 1A68     		ldr	r2, [r3]
 851:Drivers/STM32F0xx_HAL_Driver/Src/stm32f0xx_hal_rcc.c ****   {    
 1781              		.loc 1 851 29 view .LVU497
 1782 0110 0123     		movs	r3, #1
 1783 0112 1340     		ands	r3, r2
 851:Drivers/STM32F0xx_HAL_Driver/Src/stm32f0xx_hal_rcc.c ****   {    
 1784              		.loc 1 851 5 view .LVU498
 1785 0114 AB42     		cmp	r3, r5
 1786 0116 09D9     		bls	.L151
 854:Drivers/STM32F0xx_HAL_Driver/Src/stm32f0xx_hal_rcc.c ****     
 1787              		.loc 1 854 5 is_stmt 1 view .LVU499
 1788 0118 1549     		ldr	r1, .L169
 1789 011a 0B68     		ldr	r3, [r1]
 1790 011c 0122     		movs	r2, #1
 1791 011e 9343     		bics	r3, r2
 1792 0120 2B43     		orrs	r3, r5
 1793 0122 0B60     		str	r3, [r1]
 858:Drivers/STM32F0xx_HAL_Driver/Src/stm32f0xx_hal_rcc.c ****     {
 1794              		.loc 1 858 5 view .LVU500
 858:Drivers/STM32F0xx_HAL_Driver/Src/stm32f0xx_hal_rcc.c ****     {
 1795              		.loc 1 858 14 is_stmt 0 view .LVU501
 1796 0124 0B68     		ldr	r3, [r1]
 858:Drivers/STM32F0xx_HAL_Driver/Src/stm32f0xx_hal_rcc.c ****     {
 1797              		.loc 1 858 20 view .LVU502
 1798 0126 1A40     		ands	r2, r3
 858:Drivers/STM32F0xx_HAL_Driver/Src/stm32f0xx_hal_rcc.c ****     {
ARM GAS  /tmp/ccD6GDME.s 			page 57


 1799              		.loc 1 858 7 view .LVU503
 1800 0128 AA42     		cmp	r2, r5
 1801 012a 1ED1     		bne	.L162
 1802              	.L151:
 865:Drivers/STM32F0xx_HAL_Driver/Src/stm32f0xx_hal_rcc.c ****   {
 1803              		.loc 1 865 3 is_stmt 1 view .LVU504
 865:Drivers/STM32F0xx_HAL_Driver/Src/stm32f0xx_hal_rcc.c ****   {
 1804              		.loc 1 865 5 is_stmt 0 view .LVU505
 1805 012c 2368     		ldr	r3, [r4]
 1806 012e 5B07     		lsls	r3, r3, #29
 1807 0130 06D5     		bpl	.L152
 867:Drivers/STM32F0xx_HAL_Driver/Src/stm32f0xx_hal_rcc.c ****     MODIFY_REG(RCC->CFGR, RCC_CFGR_PPRE, RCC_ClkInitStruct->APB1CLKDivider);
 1808              		.loc 1 867 5 is_stmt 1 view .LVU506
 868:Drivers/STM32F0xx_HAL_Driver/Src/stm32f0xx_hal_rcc.c ****   }
 1809              		.loc 1 868 5 view .LVU507
 1810 0132 104A     		ldr	r2, .L169+4
 1811 0134 5368     		ldr	r3, [r2, #4]
 1812 0136 1149     		ldr	r1, .L169+12
 1813 0138 0B40     		ands	r3, r1
 1814 013a E168     		ldr	r1, [r4, #12]
 1815 013c 0B43     		orrs	r3, r1
 1816 013e 5360     		str	r3, [r2, #4]
 1817              	.L152:
 872:Drivers/STM32F0xx_HAL_Driver/Src/stm32f0xx_hal_rcc.c **** 
 1818              		.loc 1 872 3 view .LVU508
 872:Drivers/STM32F0xx_HAL_Driver/Src/stm32f0xx_hal_rcc.c **** 
 1819              		.loc 1 872 21 is_stmt 0 view .LVU509
 1820 0140 FFF7FEFF 		bl	HAL_RCC_GetSysClockFreq
 1821              	.LVL118:
 872:Drivers/STM32F0xx_HAL_Driver/Src/stm32f0xx_hal_rcc.c **** 
 1822              		.loc 1 872 68 view .LVU510
 1823 0144 0B4B     		ldr	r3, .L169+4
 1824 0146 5A68     		ldr	r2, [r3, #4]
 872:Drivers/STM32F0xx_HAL_Driver/Src/stm32f0xx_hal_rcc.c **** 
 1825              		.loc 1 872 91 view .LVU511
 1826 0148 1209     		lsrs	r2, r2, #4
 1827 014a 0F23     		movs	r3, #15
 1828 014c 1340     		ands	r3, r2
 872:Drivers/STM32F0xx_HAL_Driver/Src/stm32f0xx_hal_rcc.c **** 
 1829              		.loc 1 872 63 view .LVU512
 1830 014e 0C4A     		ldr	r2, .L169+16
 1831 0150 D35C     		ldrb	r3, [r2, r3]
 872:Drivers/STM32F0xx_HAL_Driver/Src/stm32f0xx_hal_rcc.c **** 
 1832              		.loc 1 872 47 view .LVU513
 1833 0152 D840     		lsrs	r0, r0, r3
 872:Drivers/STM32F0xx_HAL_Driver/Src/stm32f0xx_hal_rcc.c **** 
 1834              		.loc 1 872 19 view .LVU514
 1835 0154 0B4B     		ldr	r3, .L169+20
 1836 0156 1860     		str	r0, [r3]
 875:Drivers/STM32F0xx_HAL_Driver/Src/stm32f0xx_hal_rcc.c ****   
 1837              		.loc 1 875 3 is_stmt 1 view .LVU515
 1838 0158 0020     		movs	r0, #0
 1839 015a FFF7FEFF 		bl	HAL_InitTick
 1840              	.LVL119:
 877:Drivers/STM32F0xx_HAL_Driver/Src/stm32f0xx_hal_rcc.c **** }
 1841              		.loc 1 877 3 view .LVU516
 877:Drivers/STM32F0xx_HAL_Driver/Src/stm32f0xx_hal_rcc.c **** }
ARM GAS  /tmp/ccD6GDME.s 			page 58


 1842              		.loc 1 877 10 is_stmt 0 view .LVU517
 1843 015e 0020     		movs	r0, #0
 1844              	.L134:
 878:Drivers/STM32F0xx_HAL_Driver/Src/stm32f0xx_hal_rcc.c **** 
 1845              		.loc 1 878 1 view .LVU518
 1846              		@ sp needed
 1847              	.LVL120:
 1848              	.LVL121:
 878:Drivers/STM32F0xx_HAL_Driver/Src/stm32f0xx_hal_rcc.c **** 
 1849              		.loc 1 878 1 view .LVU519
 1850 0160 70BD     		pop	{r4, r5, r6, pc}
 1851              	.LVL122:
 1852              	.L153:
 748:Drivers/STM32F0xx_HAL_Driver/Src/stm32f0xx_hal_rcc.c ****     }
 1853              		.loc 1 748 14 view .LVU520
 1854 0162 0120     		movs	r0, #1
 1855              	.LVL123:
 748:Drivers/STM32F0xx_HAL_Driver/Src/stm32f0xx_hal_rcc.c ****     }
 1856              		.loc 1 748 14 view .LVU521
 1857 0164 FCE7     		b	.L134
 1858              	.LVL124:
 1859              	.L168:
 770:Drivers/STM32F0xx_HAL_Driver/Src/stm32f0xx_hal_rcc.c ****       }
 1860              		.loc 1 770 16 view .LVU522
 1861 0166 0120     		movs	r0, #1
 1862              	.LVL125:
 770:Drivers/STM32F0xx_HAL_Driver/Src/stm32f0xx_hal_rcc.c ****       }
 1863              		.loc 1 770 16 view .LVU523
 1864 0168 FAE7     		b	.L134
 1865              	.LVL126:
 1866              	.L162:
 860:Drivers/STM32F0xx_HAL_Driver/Src/stm32f0xx_hal_rcc.c ****     }
 1867              		.loc 1 860 14 view .LVU524
 1868 016a 0120     		movs	r0, #1
 1869 016c F8E7     		b	.L134
 1870              	.L170:
 1871 016e C046     		.align	2
 1872              	.L169:
 1873 0170 00200240 		.word	1073881088
 1874 0174 00100240 		.word	1073876992
 1875 0178 88130000 		.word	5000
 1876 017c FFF8FFFF 		.word	-1793
 1877 0180 00000000 		.word	AHBPrescTable
 1878 0184 00000000 		.word	SystemCoreClock
 1879              		.cfi_endproc
 1880              	.LFE39:
 1882              		.section	.text.HAL_RCC_GetHCLKFreq,"ax",%progbits
 1883              		.align	1
 1884              		.global	HAL_RCC_GetHCLKFreq
 1885              		.syntax unified
 1886              		.code	16
 1887              		.thumb_func
 1888              		.fpu softvfp
 1890              	HAL_RCC_GetHCLKFreq:
 1891              	.LFB44:
1129:Drivers/STM32F0xx_HAL_Driver/Src/stm32f0xx_hal_rcc.c **** 
1130:Drivers/STM32F0xx_HAL_Driver/Src/stm32f0xx_hal_rcc.c **** /**
ARM GAS  /tmp/ccD6GDME.s 			page 59


1131:Drivers/STM32F0xx_HAL_Driver/Src/stm32f0xx_hal_rcc.c ****   * @brief  Returns the HCLK frequency     
1132:Drivers/STM32F0xx_HAL_Driver/Src/stm32f0xx_hal_rcc.c ****   * @note   Each time HCLK changes, this function must be called to update the
1133:Drivers/STM32F0xx_HAL_Driver/Src/stm32f0xx_hal_rcc.c ****   *         right HCLK value. Otherwise, any configuration based on this function will be incorrect
1134:Drivers/STM32F0xx_HAL_Driver/Src/stm32f0xx_hal_rcc.c ****   * 
1135:Drivers/STM32F0xx_HAL_Driver/Src/stm32f0xx_hal_rcc.c ****   * @note   The SystemCoreClock CMSIS variable is used to store System Clock Frequency 
1136:Drivers/STM32F0xx_HAL_Driver/Src/stm32f0xx_hal_rcc.c ****   *         and updated within this function
1137:Drivers/STM32F0xx_HAL_Driver/Src/stm32f0xx_hal_rcc.c ****   * @retval HCLK frequency
1138:Drivers/STM32F0xx_HAL_Driver/Src/stm32f0xx_hal_rcc.c ****   */
1139:Drivers/STM32F0xx_HAL_Driver/Src/stm32f0xx_hal_rcc.c **** uint32_t HAL_RCC_GetHCLKFreq(void)
1140:Drivers/STM32F0xx_HAL_Driver/Src/stm32f0xx_hal_rcc.c **** {
 1892              		.loc 1 1140 1 is_stmt 1 view -0
 1893              		.cfi_startproc
 1894              		@ args = 0, pretend = 0, frame = 0
 1895              		@ frame_needed = 0, uses_anonymous_args = 0
 1896              		@ link register save eliminated.
1141:Drivers/STM32F0xx_HAL_Driver/Src/stm32f0xx_hal_rcc.c ****   return SystemCoreClock;
 1897              		.loc 1 1141 3 view .LVU526
 1898              		.loc 1 1141 10 is_stmt 0 view .LVU527
 1899 0000 014B     		ldr	r3, .L172
 1900 0002 1868     		ldr	r0, [r3]
1142:Drivers/STM32F0xx_HAL_Driver/Src/stm32f0xx_hal_rcc.c **** }
 1901              		.loc 1 1142 1 view .LVU528
 1902              		@ sp needed
 1903 0004 7047     		bx	lr
 1904              	.L173:
 1905 0006 C046     		.align	2
 1906              	.L172:
 1907 0008 00000000 		.word	SystemCoreClock
 1908              		.cfi_endproc
 1909              	.LFE44:
 1911              		.section	.text.HAL_RCC_GetPCLK1Freq,"ax",%progbits
 1912              		.align	1
 1913              		.global	HAL_RCC_GetPCLK1Freq
 1914              		.syntax unified
 1915              		.code	16
 1916              		.thumb_func
 1917              		.fpu softvfp
 1919              	HAL_RCC_GetPCLK1Freq:
 1920              	.LFB45:
1143:Drivers/STM32F0xx_HAL_Driver/Src/stm32f0xx_hal_rcc.c **** 
1144:Drivers/STM32F0xx_HAL_Driver/Src/stm32f0xx_hal_rcc.c **** /**
1145:Drivers/STM32F0xx_HAL_Driver/Src/stm32f0xx_hal_rcc.c ****   * @brief  Returns the PCLK1 frequency     
1146:Drivers/STM32F0xx_HAL_Driver/Src/stm32f0xx_hal_rcc.c ****   * @note   Each time PCLK1 changes, this function must be called to update the
1147:Drivers/STM32F0xx_HAL_Driver/Src/stm32f0xx_hal_rcc.c ****   *         right PCLK1 value. Otherwise, any configuration based on this function will be incorrec
1148:Drivers/STM32F0xx_HAL_Driver/Src/stm32f0xx_hal_rcc.c ****   * @retval PCLK1 frequency
1149:Drivers/STM32F0xx_HAL_Driver/Src/stm32f0xx_hal_rcc.c ****   */
1150:Drivers/STM32F0xx_HAL_Driver/Src/stm32f0xx_hal_rcc.c **** uint32_t HAL_RCC_GetPCLK1Freq(void)
1151:Drivers/STM32F0xx_HAL_Driver/Src/stm32f0xx_hal_rcc.c **** {
 1921              		.loc 1 1151 1 is_stmt 1 view -0
 1922              		.cfi_startproc
 1923              		@ args = 0, pretend = 0, frame = 0
 1924              		@ frame_needed = 0, uses_anonymous_args = 0
 1925 0000 10B5     		push	{r4, lr}
 1926              	.LCFI7:
 1927              		.cfi_def_cfa_offset 8
 1928              		.cfi_offset 4, -8
 1929              		.cfi_offset 14, -4
ARM GAS  /tmp/ccD6GDME.s 			page 60


1152:Drivers/STM32F0xx_HAL_Driver/Src/stm32f0xx_hal_rcc.c ****   /* Get HCLK source and Compute PCLK1 frequency ---------------------------*/
1153:Drivers/STM32F0xx_HAL_Driver/Src/stm32f0xx_hal_rcc.c ****   return (HAL_RCC_GetHCLKFreq() >> APBPrescTable[(RCC->CFGR & RCC_CFGR_PPRE) >> RCC_CFGR_PPRE_BITNU
 1930              		.loc 1 1153 3 view .LVU530
 1931              		.loc 1 1153 11 is_stmt 0 view .LVU531
 1932 0002 FFF7FEFF 		bl	HAL_RCC_GetHCLKFreq
 1933              	.LVL127:
 1934              		.loc 1 1153 54 view .LVU532
 1935 0006 044B     		ldr	r3, .L175
 1936 0008 5A68     		ldr	r2, [r3, #4]
 1937              		.loc 1 1153 78 view .LVU533
 1938 000a 120A     		lsrs	r2, r2, #8
 1939 000c 0723     		movs	r3, #7
 1940 000e 1340     		ands	r3, r2
 1941              		.loc 1 1153 49 view .LVU534
 1942 0010 024A     		ldr	r2, .L175+4
 1943 0012 D35C     		ldrb	r3, [r2, r3]
 1944              		.loc 1 1153 33 view .LVU535
 1945 0014 D840     		lsrs	r0, r0, r3
1154:Drivers/STM32F0xx_HAL_Driver/Src/stm32f0xx_hal_rcc.c **** }    
 1946              		.loc 1 1154 1 view .LVU536
 1947              		@ sp needed
 1948 0016 10BD     		pop	{r4, pc}
 1949              	.L176:
 1950              		.align	2
 1951              	.L175:
 1952 0018 00100240 		.word	1073876992
 1953 001c 00000000 		.word	APBPrescTable
 1954              		.cfi_endproc
 1955              	.LFE45:
 1957              		.section	.text.HAL_RCC_GetOscConfig,"ax",%progbits
 1958              		.align	1
 1959              		.global	HAL_RCC_GetOscConfig
 1960              		.syntax unified
 1961              		.code	16
 1962              		.thumb_func
 1963              		.fpu softvfp
 1965              	HAL_RCC_GetOscConfig:
 1966              	.LVL128:
 1967              	.LFB46:
1155:Drivers/STM32F0xx_HAL_Driver/Src/stm32f0xx_hal_rcc.c **** 
1156:Drivers/STM32F0xx_HAL_Driver/Src/stm32f0xx_hal_rcc.c **** /**
1157:Drivers/STM32F0xx_HAL_Driver/Src/stm32f0xx_hal_rcc.c ****   * @brief  Configures the RCC_OscInitStruct according to the internal 
1158:Drivers/STM32F0xx_HAL_Driver/Src/stm32f0xx_hal_rcc.c ****   * RCC configuration registers.
1159:Drivers/STM32F0xx_HAL_Driver/Src/stm32f0xx_hal_rcc.c ****   * @param  RCC_OscInitStruct pointer to an RCC_OscInitTypeDef structure that 
1160:Drivers/STM32F0xx_HAL_Driver/Src/stm32f0xx_hal_rcc.c ****   * will be configured.
1161:Drivers/STM32F0xx_HAL_Driver/Src/stm32f0xx_hal_rcc.c ****   * @retval None
1162:Drivers/STM32F0xx_HAL_Driver/Src/stm32f0xx_hal_rcc.c ****   */
1163:Drivers/STM32F0xx_HAL_Driver/Src/stm32f0xx_hal_rcc.c **** void HAL_RCC_GetOscConfig(RCC_OscInitTypeDef  *RCC_OscInitStruct)
1164:Drivers/STM32F0xx_HAL_Driver/Src/stm32f0xx_hal_rcc.c **** {
 1968              		.loc 1 1164 1 is_stmt 1 view -0
 1969              		.cfi_startproc
 1970              		@ args = 0, pretend = 0, frame = 0
 1971              		@ frame_needed = 0, uses_anonymous_args = 0
 1972              		@ link register save eliminated.
1165:Drivers/STM32F0xx_HAL_Driver/Src/stm32f0xx_hal_rcc.c ****   /* Check the parameters */
1166:Drivers/STM32F0xx_HAL_Driver/Src/stm32f0xx_hal_rcc.c ****   assert_param(RCC_OscInitStruct != NULL);
 1973              		.loc 1 1166 3 view .LVU538
ARM GAS  /tmp/ccD6GDME.s 			page 61


1167:Drivers/STM32F0xx_HAL_Driver/Src/stm32f0xx_hal_rcc.c **** 
1168:Drivers/STM32F0xx_HAL_Driver/Src/stm32f0xx_hal_rcc.c ****   /* Set all possible values for the Oscillator type parameter ---------------*/
1169:Drivers/STM32F0xx_HAL_Driver/Src/stm32f0xx_hal_rcc.c ****   RCC_OscInitStruct->OscillatorType = RCC_OSCILLATORTYPE_HSE | RCC_OSCILLATORTYPE_HSI  \
 1974              		.loc 1 1169 3 view .LVU539
1170:Drivers/STM32F0xx_HAL_Driver/Src/stm32f0xx_hal_rcc.c ****                   | RCC_OSCILLATORTYPE_LSE | RCC_OSCILLATORTYPE_LSI | RCC_OSCILLATORTYPE_HSI14;
1171:Drivers/STM32F0xx_HAL_Driver/Src/stm32f0xx_hal_rcc.c **** #if defined(RCC_HSI48_SUPPORT)
1172:Drivers/STM32F0xx_HAL_Driver/Src/stm32f0xx_hal_rcc.c ****   RCC_OscInitStruct->OscillatorType |= RCC_OSCILLATORTYPE_HSI48;
 1975              		.loc 1 1172 3 view .LVU540
 1976              		.loc 1 1172 37 is_stmt 0 view .LVU541
 1977 0000 3F23     		movs	r3, #63
 1978 0002 0360     		str	r3, [r0]
1173:Drivers/STM32F0xx_HAL_Driver/Src/stm32f0xx_hal_rcc.c **** #endif /* RCC_HSI48_SUPPORT */
1174:Drivers/STM32F0xx_HAL_Driver/Src/stm32f0xx_hal_rcc.c **** 
1175:Drivers/STM32F0xx_HAL_Driver/Src/stm32f0xx_hal_rcc.c **** 
1176:Drivers/STM32F0xx_HAL_Driver/Src/stm32f0xx_hal_rcc.c ****   /* Get the HSE configuration -----------------------------------------------*/
1177:Drivers/STM32F0xx_HAL_Driver/Src/stm32f0xx_hal_rcc.c ****   if((RCC->CR &RCC_CR_HSEBYP) == RCC_CR_HSEBYP)
 1979              		.loc 1 1177 3 is_stmt 1 view .LVU542
 1980              		.loc 1 1177 10 is_stmt 0 view .LVU543
 1981 0004 324B     		ldr	r3, .L192
 1982 0006 1B68     		ldr	r3, [r3]
 1983              		.loc 1 1177 5 view .LVU544
 1984 0008 5B03     		lsls	r3, r3, #13
 1985 000a 40D5     		bpl	.L178
1178:Drivers/STM32F0xx_HAL_Driver/Src/stm32f0xx_hal_rcc.c ****   {
1179:Drivers/STM32F0xx_HAL_Driver/Src/stm32f0xx_hal_rcc.c ****     RCC_OscInitStruct->HSEState = RCC_HSE_BYPASS;
 1986              		.loc 1 1179 5 is_stmt 1 view .LVU545
 1987              		.loc 1 1179 33 is_stmt 0 view .LVU546
 1988 000c 0523     		movs	r3, #5
 1989 000e 4360     		str	r3, [r0, #4]
 1990              	.L179:
1180:Drivers/STM32F0xx_HAL_Driver/Src/stm32f0xx_hal_rcc.c ****   }
1181:Drivers/STM32F0xx_HAL_Driver/Src/stm32f0xx_hal_rcc.c ****   else if((RCC->CR &RCC_CR_HSEON) == RCC_CR_HSEON)
1182:Drivers/STM32F0xx_HAL_Driver/Src/stm32f0xx_hal_rcc.c ****   {
1183:Drivers/STM32F0xx_HAL_Driver/Src/stm32f0xx_hal_rcc.c ****     RCC_OscInitStruct->HSEState = RCC_HSE_ON;
1184:Drivers/STM32F0xx_HAL_Driver/Src/stm32f0xx_hal_rcc.c ****   }
1185:Drivers/STM32F0xx_HAL_Driver/Src/stm32f0xx_hal_rcc.c ****   else
1186:Drivers/STM32F0xx_HAL_Driver/Src/stm32f0xx_hal_rcc.c ****   {
1187:Drivers/STM32F0xx_HAL_Driver/Src/stm32f0xx_hal_rcc.c ****     RCC_OscInitStruct->HSEState = RCC_HSE_OFF;
1188:Drivers/STM32F0xx_HAL_Driver/Src/stm32f0xx_hal_rcc.c ****   }
1189:Drivers/STM32F0xx_HAL_Driver/Src/stm32f0xx_hal_rcc.c **** 
1190:Drivers/STM32F0xx_HAL_Driver/Src/stm32f0xx_hal_rcc.c ****   /* Get the HSI configuration -----------------------------------------------*/
1191:Drivers/STM32F0xx_HAL_Driver/Src/stm32f0xx_hal_rcc.c ****   if((RCC->CR &RCC_CR_HSION) == RCC_CR_HSION)
 1991              		.loc 1 1191 3 is_stmt 1 view .LVU547
 1992              		.loc 1 1191 10 is_stmt 0 view .LVU548
 1993 0010 2F4B     		ldr	r3, .L192
 1994 0012 1B68     		ldr	r3, [r3]
 1995              		.loc 1 1191 5 view .LVU549
 1996 0014 DB07     		lsls	r3, r3, #31
 1997 0016 44D5     		bpl	.L181
1192:Drivers/STM32F0xx_HAL_Driver/Src/stm32f0xx_hal_rcc.c ****   {
1193:Drivers/STM32F0xx_HAL_Driver/Src/stm32f0xx_hal_rcc.c ****     RCC_OscInitStruct->HSIState = RCC_HSI_ON;
 1998              		.loc 1 1193 5 is_stmt 1 view .LVU550
 1999              		.loc 1 1193 33 is_stmt 0 view .LVU551
 2000 0018 0123     		movs	r3, #1
 2001 001a C360     		str	r3, [r0, #12]
 2002              	.L182:
1194:Drivers/STM32F0xx_HAL_Driver/Src/stm32f0xx_hal_rcc.c ****   }
ARM GAS  /tmp/ccD6GDME.s 			page 62


1195:Drivers/STM32F0xx_HAL_Driver/Src/stm32f0xx_hal_rcc.c ****   else
1196:Drivers/STM32F0xx_HAL_Driver/Src/stm32f0xx_hal_rcc.c ****   {
1197:Drivers/STM32F0xx_HAL_Driver/Src/stm32f0xx_hal_rcc.c ****     RCC_OscInitStruct->HSIState = RCC_HSI_OFF;
1198:Drivers/STM32F0xx_HAL_Driver/Src/stm32f0xx_hal_rcc.c ****   }
1199:Drivers/STM32F0xx_HAL_Driver/Src/stm32f0xx_hal_rcc.c ****   
1200:Drivers/STM32F0xx_HAL_Driver/Src/stm32f0xx_hal_rcc.c ****   RCC_OscInitStruct->HSICalibrationValue = (uint32_t)((RCC->CR &RCC_CR_HSITRIM) >> RCC_CR_HSITRIM_B
 2003              		.loc 1 1200 3 is_stmt 1 view .LVU552
 2004              		.loc 1 1200 59 is_stmt 0 view .LVU553
 2005 001c 2C49     		ldr	r1, .L192
 2006 001e 0A68     		ldr	r2, [r1]
 2007              		.loc 1 1200 44 view .LVU554
 2008 0020 D208     		lsrs	r2, r2, #3
 2009 0022 1F23     		movs	r3, #31
 2010 0024 1340     		ands	r3, r2
 2011              		.loc 1 1200 42 view .LVU555
 2012 0026 0361     		str	r3, [r0, #16]
1201:Drivers/STM32F0xx_HAL_Driver/Src/stm32f0xx_hal_rcc.c ****   
1202:Drivers/STM32F0xx_HAL_Driver/Src/stm32f0xx_hal_rcc.c ****   /* Get the LSE configuration -----------------------------------------------*/
1203:Drivers/STM32F0xx_HAL_Driver/Src/stm32f0xx_hal_rcc.c ****   if((RCC->BDCR &RCC_BDCR_LSEBYP) == RCC_BDCR_LSEBYP)
 2013              		.loc 1 1203 3 is_stmt 1 view .LVU556
 2014              		.loc 1 1203 10 is_stmt 0 view .LVU557
 2015 0028 0B6A     		ldr	r3, [r1, #32]
 2016              		.loc 1 1203 5 view .LVU558
 2017 002a 5B07     		lsls	r3, r3, #29
 2018 002c 3CD5     		bpl	.L183
1204:Drivers/STM32F0xx_HAL_Driver/Src/stm32f0xx_hal_rcc.c ****   {
1205:Drivers/STM32F0xx_HAL_Driver/Src/stm32f0xx_hal_rcc.c ****     RCC_OscInitStruct->LSEState = RCC_LSE_BYPASS;
 2019              		.loc 1 1205 5 is_stmt 1 view .LVU559
 2020              		.loc 1 1205 33 is_stmt 0 view .LVU560
 2021 002e 0523     		movs	r3, #5
 2022 0030 8360     		str	r3, [r0, #8]
 2023              	.L184:
1206:Drivers/STM32F0xx_HAL_Driver/Src/stm32f0xx_hal_rcc.c ****   }
1207:Drivers/STM32F0xx_HAL_Driver/Src/stm32f0xx_hal_rcc.c ****   else if((RCC->BDCR &RCC_BDCR_LSEON) == RCC_BDCR_LSEON)
1208:Drivers/STM32F0xx_HAL_Driver/Src/stm32f0xx_hal_rcc.c ****   {
1209:Drivers/STM32F0xx_HAL_Driver/Src/stm32f0xx_hal_rcc.c ****     RCC_OscInitStruct->LSEState = RCC_LSE_ON;
1210:Drivers/STM32F0xx_HAL_Driver/Src/stm32f0xx_hal_rcc.c ****   }
1211:Drivers/STM32F0xx_HAL_Driver/Src/stm32f0xx_hal_rcc.c ****   else
1212:Drivers/STM32F0xx_HAL_Driver/Src/stm32f0xx_hal_rcc.c ****   {
1213:Drivers/STM32F0xx_HAL_Driver/Src/stm32f0xx_hal_rcc.c ****     RCC_OscInitStruct->LSEState = RCC_LSE_OFF;
1214:Drivers/STM32F0xx_HAL_Driver/Src/stm32f0xx_hal_rcc.c ****   }
1215:Drivers/STM32F0xx_HAL_Driver/Src/stm32f0xx_hal_rcc.c ****   
1216:Drivers/STM32F0xx_HAL_Driver/Src/stm32f0xx_hal_rcc.c ****   /* Get the LSI configuration -----------------------------------------------*/
1217:Drivers/STM32F0xx_HAL_Driver/Src/stm32f0xx_hal_rcc.c ****   if((RCC->CSR &RCC_CSR_LSION) == RCC_CSR_LSION)
 2024              		.loc 1 1217 3 is_stmt 1 view .LVU561
 2025              		.loc 1 1217 10 is_stmt 0 view .LVU562
 2026 0032 274B     		ldr	r3, .L192
 2027 0034 5B6A     		ldr	r3, [r3, #36]
 2028              		.loc 1 1217 5 view .LVU563
 2029 0036 DB07     		lsls	r3, r3, #31
 2030 0038 40D5     		bpl	.L186
1218:Drivers/STM32F0xx_HAL_Driver/Src/stm32f0xx_hal_rcc.c ****   {
1219:Drivers/STM32F0xx_HAL_Driver/Src/stm32f0xx_hal_rcc.c ****     RCC_OscInitStruct->LSIState = RCC_LSI_ON;
 2031              		.loc 1 1219 5 is_stmt 1 view .LVU564
 2032              		.loc 1 1219 33 is_stmt 0 view .LVU565
 2033 003a 0123     		movs	r3, #1
 2034 003c C361     		str	r3, [r0, #28]
ARM GAS  /tmp/ccD6GDME.s 			page 63


 2035              	.L187:
1220:Drivers/STM32F0xx_HAL_Driver/Src/stm32f0xx_hal_rcc.c ****   }
1221:Drivers/STM32F0xx_HAL_Driver/Src/stm32f0xx_hal_rcc.c ****   else
1222:Drivers/STM32F0xx_HAL_Driver/Src/stm32f0xx_hal_rcc.c ****   {
1223:Drivers/STM32F0xx_HAL_Driver/Src/stm32f0xx_hal_rcc.c ****     RCC_OscInitStruct->LSIState = RCC_LSI_OFF;
1224:Drivers/STM32F0xx_HAL_Driver/Src/stm32f0xx_hal_rcc.c ****   }
1225:Drivers/STM32F0xx_HAL_Driver/Src/stm32f0xx_hal_rcc.c ****   
1226:Drivers/STM32F0xx_HAL_Driver/Src/stm32f0xx_hal_rcc.c ****   /* Get the HSI14 configuration -----------------------------------------------*/
1227:Drivers/STM32F0xx_HAL_Driver/Src/stm32f0xx_hal_rcc.c ****   if((RCC->CR2 & RCC_CR2_HSI14ON) == RCC_CR2_HSI14ON)
 2036              		.loc 1 1227 3 is_stmt 1 view .LVU566
 2037              		.loc 1 1227 10 is_stmt 0 view .LVU567
 2038 003e 244B     		ldr	r3, .L192
 2039 0040 5B6B     		ldr	r3, [r3, #52]
 2040              		.loc 1 1227 5 view .LVU568
 2041 0042 DB07     		lsls	r3, r3, #31
 2042 0044 3DD5     		bpl	.L188
1228:Drivers/STM32F0xx_HAL_Driver/Src/stm32f0xx_hal_rcc.c ****   {
1229:Drivers/STM32F0xx_HAL_Driver/Src/stm32f0xx_hal_rcc.c ****     RCC_OscInitStruct->HSI14State = RCC_HSI_ON;
 2043              		.loc 1 1229 5 is_stmt 1 view .LVU569
 2044              		.loc 1 1229 35 is_stmt 0 view .LVU570
 2045 0046 0123     		movs	r3, #1
 2046 0048 4361     		str	r3, [r0, #20]
 2047              	.L189:
1230:Drivers/STM32F0xx_HAL_Driver/Src/stm32f0xx_hal_rcc.c ****   }
1231:Drivers/STM32F0xx_HAL_Driver/Src/stm32f0xx_hal_rcc.c ****   else
1232:Drivers/STM32F0xx_HAL_Driver/Src/stm32f0xx_hal_rcc.c ****   {
1233:Drivers/STM32F0xx_HAL_Driver/Src/stm32f0xx_hal_rcc.c ****     RCC_OscInitStruct->HSI14State = RCC_HSI_OFF;
1234:Drivers/STM32F0xx_HAL_Driver/Src/stm32f0xx_hal_rcc.c ****   }
1235:Drivers/STM32F0xx_HAL_Driver/Src/stm32f0xx_hal_rcc.c **** 
1236:Drivers/STM32F0xx_HAL_Driver/Src/stm32f0xx_hal_rcc.c ****   RCC_OscInitStruct->HSI14CalibrationValue = (uint32_t)((RCC->CR2 & RCC_CR2_HSI14TRIM) >> RCC_HSI14
 2048              		.loc 1 1236 3 is_stmt 1 view .LVU571
 2049              		.loc 1 1236 61 is_stmt 0 view .LVU572
 2050 004a 214A     		ldr	r2, .L192
 2051 004c 516B     		ldr	r1, [r2, #52]
 2052              		.loc 1 1236 46 view .LVU573
 2053 004e C908     		lsrs	r1, r1, #3
 2054 0050 1F23     		movs	r3, #31
 2055 0052 0B40     		ands	r3, r1
 2056              		.loc 1 1236 44 view .LVU574
 2057 0054 8361     		str	r3, [r0, #24]
1237:Drivers/STM32F0xx_HAL_Driver/Src/stm32f0xx_hal_rcc.c ****   
1238:Drivers/STM32F0xx_HAL_Driver/Src/stm32f0xx_hal_rcc.c **** #if defined(RCC_HSI48_SUPPORT)
1239:Drivers/STM32F0xx_HAL_Driver/Src/stm32f0xx_hal_rcc.c ****   /* Get the HSI48 configuration if any-----------------------------------------*/
1240:Drivers/STM32F0xx_HAL_Driver/Src/stm32f0xx_hal_rcc.c ****   RCC_OscInitStruct->HSI48State = __HAL_RCC_GET_HSI48_STATE();
 2058              		.loc 1 1240 3 is_stmt 1 view .LVU575
 2059              		.loc 1 1240 35 is_stmt 0 view .LVU576
 2060 0056 536B     		ldr	r3, [r2, #52]
 2061 0058 8021     		movs	r1, #128
 2062 005a 4902     		lsls	r1, r1, #9
 2063 005c 0B40     		ands	r3, r1
 2064 005e 591E     		subs	r1, r3, #1
 2065 0060 8B41     		sbcs	r3, r3, r1
 2066              		.loc 1 1240 33 view .LVU577
 2067 0062 0362     		str	r3, [r0, #32]
1241:Drivers/STM32F0xx_HAL_Driver/Src/stm32f0xx_hal_rcc.c **** #endif /* RCC_HSI48_SUPPORT */
1242:Drivers/STM32F0xx_HAL_Driver/Src/stm32f0xx_hal_rcc.c **** 
1243:Drivers/STM32F0xx_HAL_Driver/Src/stm32f0xx_hal_rcc.c ****   /* Get the PLL configuration -----------------------------------------------*/
ARM GAS  /tmp/ccD6GDME.s 			page 64


1244:Drivers/STM32F0xx_HAL_Driver/Src/stm32f0xx_hal_rcc.c ****   if((RCC->CR &RCC_CR_PLLON) == RCC_CR_PLLON)
 2068              		.loc 1 1244 3 is_stmt 1 view .LVU578
 2069              		.loc 1 1244 10 is_stmt 0 view .LVU579
 2070 0064 1368     		ldr	r3, [r2]
 2071              		.loc 1 1244 5 view .LVU580
 2072 0066 DB01     		lsls	r3, r3, #7
 2073 0068 2ED5     		bpl	.L190
1245:Drivers/STM32F0xx_HAL_Driver/Src/stm32f0xx_hal_rcc.c ****   {
1246:Drivers/STM32F0xx_HAL_Driver/Src/stm32f0xx_hal_rcc.c ****     RCC_OscInitStruct->PLL.PLLState = RCC_PLL_ON;
 2074              		.loc 1 1246 5 is_stmt 1 view .LVU581
 2075              		.loc 1 1246 37 is_stmt 0 view .LVU582
 2076 006a 0223     		movs	r3, #2
 2077 006c 4362     		str	r3, [r0, #36]
 2078              	.L191:
1247:Drivers/STM32F0xx_HAL_Driver/Src/stm32f0xx_hal_rcc.c ****   }
1248:Drivers/STM32F0xx_HAL_Driver/Src/stm32f0xx_hal_rcc.c ****   else
1249:Drivers/STM32F0xx_HAL_Driver/Src/stm32f0xx_hal_rcc.c ****   {
1250:Drivers/STM32F0xx_HAL_Driver/Src/stm32f0xx_hal_rcc.c ****     RCC_OscInitStruct->PLL.PLLState = RCC_PLL_OFF;
1251:Drivers/STM32F0xx_HAL_Driver/Src/stm32f0xx_hal_rcc.c ****   }
1252:Drivers/STM32F0xx_HAL_Driver/Src/stm32f0xx_hal_rcc.c ****   RCC_OscInitStruct->PLL.PLLSource = (uint32_t)(RCC->CFGR & RCC_CFGR_PLLSRC);
 2079              		.loc 1 1252 3 is_stmt 1 view .LVU583
 2080              		.loc 1 1252 52 is_stmt 0 view .LVU584
 2081 006e 184B     		ldr	r3, .L192
 2082 0070 5A68     		ldr	r2, [r3, #4]
 2083              		.loc 1 1252 38 view .LVU585
 2084 0072 C021     		movs	r1, #192
 2085 0074 4902     		lsls	r1, r1, #9
 2086 0076 0A40     		ands	r2, r1
 2087              		.loc 1 1252 36 view .LVU586
 2088 0078 8262     		str	r2, [r0, #40]
1253:Drivers/STM32F0xx_HAL_Driver/Src/stm32f0xx_hal_rcc.c ****   RCC_OscInitStruct->PLL.PLLMUL = (uint32_t)(RCC->CFGR & RCC_CFGR_PLLMUL);
 2089              		.loc 1 1253 3 is_stmt 1 view .LVU587
 2090              		.loc 1 1253 49 is_stmt 0 view .LVU588
 2091 007a 5A68     		ldr	r2, [r3, #4]
 2092              		.loc 1 1253 35 view .LVU589
 2093 007c F021     		movs	r1, #240
 2094 007e 8903     		lsls	r1, r1, #14
 2095 0080 0A40     		ands	r2, r1
 2096              		.loc 1 1253 33 view .LVU590
 2097 0082 C262     		str	r2, [r0, #44]
1254:Drivers/STM32F0xx_HAL_Driver/Src/stm32f0xx_hal_rcc.c ****   RCC_OscInitStruct->PLL.PREDIV = (uint32_t)(RCC->CFGR2 & RCC_CFGR2_PREDIV);
 2098              		.loc 1 1254 3 is_stmt 1 view .LVU591
 2099              		.loc 1 1254 49 is_stmt 0 view .LVU592
 2100 0084 DA6A     		ldr	r2, [r3, #44]
 2101              		.loc 1 1254 35 view .LVU593
 2102 0086 0F23     		movs	r3, #15
 2103 0088 1340     		ands	r3, r2
 2104              		.loc 1 1254 33 view .LVU594
 2105 008a 0363     		str	r3, [r0, #48]
1255:Drivers/STM32F0xx_HAL_Driver/Src/stm32f0xx_hal_rcc.c **** }
 2106              		.loc 1 1255 1 view .LVU595
 2107              		@ sp needed
 2108 008c 7047     		bx	lr
 2109              	.L178:
1181:Drivers/STM32F0xx_HAL_Driver/Src/stm32f0xx_hal_rcc.c ****   {
 2110              		.loc 1 1181 8 is_stmt 1 view .LVU596
1181:Drivers/STM32F0xx_HAL_Driver/Src/stm32f0xx_hal_rcc.c ****   {
ARM GAS  /tmp/ccD6GDME.s 			page 65


 2111              		.loc 1 1181 15 is_stmt 0 view .LVU597
 2112 008e 104B     		ldr	r3, .L192
 2113 0090 1B68     		ldr	r3, [r3]
1181:Drivers/STM32F0xx_HAL_Driver/Src/stm32f0xx_hal_rcc.c ****   {
 2114              		.loc 1 1181 10 view .LVU598
 2115 0092 DB03     		lsls	r3, r3, #15
 2116 0094 02D5     		bpl	.L180
1183:Drivers/STM32F0xx_HAL_Driver/Src/stm32f0xx_hal_rcc.c ****   }
 2117              		.loc 1 1183 5 is_stmt 1 view .LVU599
1183:Drivers/STM32F0xx_HAL_Driver/Src/stm32f0xx_hal_rcc.c ****   }
 2118              		.loc 1 1183 33 is_stmt 0 view .LVU600
 2119 0096 0123     		movs	r3, #1
 2120 0098 4360     		str	r3, [r0, #4]
 2121 009a B9E7     		b	.L179
 2122              	.L180:
1187:Drivers/STM32F0xx_HAL_Driver/Src/stm32f0xx_hal_rcc.c ****   }
 2123              		.loc 1 1187 5 is_stmt 1 view .LVU601
1187:Drivers/STM32F0xx_HAL_Driver/Src/stm32f0xx_hal_rcc.c ****   }
 2124              		.loc 1 1187 33 is_stmt 0 view .LVU602
 2125 009c 0023     		movs	r3, #0
 2126 009e 4360     		str	r3, [r0, #4]
 2127 00a0 B6E7     		b	.L179
 2128              	.L181:
1197:Drivers/STM32F0xx_HAL_Driver/Src/stm32f0xx_hal_rcc.c ****   }
 2129              		.loc 1 1197 5 is_stmt 1 view .LVU603
1197:Drivers/STM32F0xx_HAL_Driver/Src/stm32f0xx_hal_rcc.c ****   }
 2130              		.loc 1 1197 33 is_stmt 0 view .LVU604
 2131 00a2 0023     		movs	r3, #0
 2132 00a4 C360     		str	r3, [r0, #12]
 2133 00a6 B9E7     		b	.L182
 2134              	.L183:
1207:Drivers/STM32F0xx_HAL_Driver/Src/stm32f0xx_hal_rcc.c ****   {
 2135              		.loc 1 1207 8 is_stmt 1 view .LVU605
1207:Drivers/STM32F0xx_HAL_Driver/Src/stm32f0xx_hal_rcc.c ****   {
 2136              		.loc 1 1207 15 is_stmt 0 view .LVU606
 2137 00a8 094B     		ldr	r3, .L192
 2138 00aa 1B6A     		ldr	r3, [r3, #32]
1207:Drivers/STM32F0xx_HAL_Driver/Src/stm32f0xx_hal_rcc.c ****   {
 2139              		.loc 1 1207 10 view .LVU607
 2140 00ac DB07     		lsls	r3, r3, #31
 2141 00ae 02D5     		bpl	.L185
1209:Drivers/STM32F0xx_HAL_Driver/Src/stm32f0xx_hal_rcc.c ****   }
 2142              		.loc 1 1209 5 is_stmt 1 view .LVU608
1209:Drivers/STM32F0xx_HAL_Driver/Src/stm32f0xx_hal_rcc.c ****   }
 2143              		.loc 1 1209 33 is_stmt 0 view .LVU609
 2144 00b0 0123     		movs	r3, #1
 2145 00b2 8360     		str	r3, [r0, #8]
 2146 00b4 BDE7     		b	.L184
 2147              	.L185:
1213:Drivers/STM32F0xx_HAL_Driver/Src/stm32f0xx_hal_rcc.c ****   }
 2148              		.loc 1 1213 5 is_stmt 1 view .LVU610
1213:Drivers/STM32F0xx_HAL_Driver/Src/stm32f0xx_hal_rcc.c ****   }
 2149              		.loc 1 1213 33 is_stmt 0 view .LVU611
 2150 00b6 0023     		movs	r3, #0
 2151 00b8 8360     		str	r3, [r0, #8]
 2152 00ba BAE7     		b	.L184
 2153              	.L186:
ARM GAS  /tmp/ccD6GDME.s 			page 66


1223:Drivers/STM32F0xx_HAL_Driver/Src/stm32f0xx_hal_rcc.c ****   }
 2154              		.loc 1 1223 5 is_stmt 1 view .LVU612
1223:Drivers/STM32F0xx_HAL_Driver/Src/stm32f0xx_hal_rcc.c ****   }
 2155              		.loc 1 1223 33 is_stmt 0 view .LVU613
 2156 00bc 0023     		movs	r3, #0
 2157 00be C361     		str	r3, [r0, #28]
 2158 00c0 BDE7     		b	.L187
 2159              	.L188:
1233:Drivers/STM32F0xx_HAL_Driver/Src/stm32f0xx_hal_rcc.c ****   }
 2160              		.loc 1 1233 5 is_stmt 1 view .LVU614
1233:Drivers/STM32F0xx_HAL_Driver/Src/stm32f0xx_hal_rcc.c ****   }
 2161              		.loc 1 1233 35 is_stmt 0 view .LVU615
 2162 00c2 0023     		movs	r3, #0
 2163 00c4 4361     		str	r3, [r0, #20]
 2164 00c6 C0E7     		b	.L189
 2165              	.L190:
1250:Drivers/STM32F0xx_HAL_Driver/Src/stm32f0xx_hal_rcc.c ****   }
 2166              		.loc 1 1250 5 is_stmt 1 view .LVU616
1250:Drivers/STM32F0xx_HAL_Driver/Src/stm32f0xx_hal_rcc.c ****   }
 2167              		.loc 1 1250 37 is_stmt 0 view .LVU617
 2168 00c8 0123     		movs	r3, #1
 2169 00ca 4362     		str	r3, [r0, #36]
 2170 00cc CFE7     		b	.L191
 2171              	.L193:
 2172 00ce C046     		.align	2
 2173              	.L192:
 2174 00d0 00100240 		.word	1073876992
 2175              		.cfi_endproc
 2176              	.LFE46:
 2178              		.section	.text.HAL_RCC_GetClockConfig,"ax",%progbits
 2179              		.align	1
 2180              		.global	HAL_RCC_GetClockConfig
 2181              		.syntax unified
 2182              		.code	16
 2183              		.thumb_func
 2184              		.fpu softvfp
 2186              	HAL_RCC_GetClockConfig:
 2187              	.LVL129:
 2188              	.LFB47:
1256:Drivers/STM32F0xx_HAL_Driver/Src/stm32f0xx_hal_rcc.c **** 
1257:Drivers/STM32F0xx_HAL_Driver/Src/stm32f0xx_hal_rcc.c **** /**
1258:Drivers/STM32F0xx_HAL_Driver/Src/stm32f0xx_hal_rcc.c ****   * @brief  Get the RCC_ClkInitStruct according to the internal 
1259:Drivers/STM32F0xx_HAL_Driver/Src/stm32f0xx_hal_rcc.c ****   * RCC configuration registers.
1260:Drivers/STM32F0xx_HAL_Driver/Src/stm32f0xx_hal_rcc.c ****   * @param  RCC_ClkInitStruct pointer to an RCC_ClkInitTypeDef structure that 
1261:Drivers/STM32F0xx_HAL_Driver/Src/stm32f0xx_hal_rcc.c ****   * contains the current clock configuration.
1262:Drivers/STM32F0xx_HAL_Driver/Src/stm32f0xx_hal_rcc.c ****   * @param  pFLatency Pointer on the Flash Latency.
1263:Drivers/STM32F0xx_HAL_Driver/Src/stm32f0xx_hal_rcc.c ****   * @retval None
1264:Drivers/STM32F0xx_HAL_Driver/Src/stm32f0xx_hal_rcc.c ****   */
1265:Drivers/STM32F0xx_HAL_Driver/Src/stm32f0xx_hal_rcc.c **** void HAL_RCC_GetClockConfig(RCC_ClkInitTypeDef  *RCC_ClkInitStruct, uint32_t *pFLatency)
1266:Drivers/STM32F0xx_HAL_Driver/Src/stm32f0xx_hal_rcc.c **** {
 2189              		.loc 1 1266 1 is_stmt 1 view -0
 2190              		.cfi_startproc
 2191              		@ args = 0, pretend = 0, frame = 0
 2192              		@ frame_needed = 0, uses_anonymous_args = 0
 2193              		.loc 1 1266 1 is_stmt 0 view .LVU619
 2194 0000 10B5     		push	{r4, lr}
 2195              	.LCFI8:
ARM GAS  /tmp/ccD6GDME.s 			page 67


 2196              		.cfi_def_cfa_offset 8
 2197              		.cfi_offset 4, -8
 2198              		.cfi_offset 14, -4
1267:Drivers/STM32F0xx_HAL_Driver/Src/stm32f0xx_hal_rcc.c ****   /* Check the parameters */
1268:Drivers/STM32F0xx_HAL_Driver/Src/stm32f0xx_hal_rcc.c ****   assert_param(RCC_ClkInitStruct != NULL);
 2199              		.loc 1 1268 3 is_stmt 1 view .LVU620
1269:Drivers/STM32F0xx_HAL_Driver/Src/stm32f0xx_hal_rcc.c ****   assert_param(pFLatency != NULL);
 2200              		.loc 1 1269 3 view .LVU621
1270:Drivers/STM32F0xx_HAL_Driver/Src/stm32f0xx_hal_rcc.c **** 
1271:Drivers/STM32F0xx_HAL_Driver/Src/stm32f0xx_hal_rcc.c ****   /* Set all possible values for the Clock type parameter --------------------*/
1272:Drivers/STM32F0xx_HAL_Driver/Src/stm32f0xx_hal_rcc.c ****   RCC_ClkInitStruct->ClockType = RCC_CLOCKTYPE_SYSCLK | RCC_CLOCKTYPE_HCLK | RCC_CLOCKTYPE_PCLK1;
 2201              		.loc 1 1272 3 view .LVU622
 2202              		.loc 1 1272 32 is_stmt 0 view .LVU623
 2203 0002 0723     		movs	r3, #7
 2204 0004 0360     		str	r3, [r0]
1273:Drivers/STM32F0xx_HAL_Driver/Src/stm32f0xx_hal_rcc.c ****   
1274:Drivers/STM32F0xx_HAL_Driver/Src/stm32f0xx_hal_rcc.c ****   /* Get the SYSCLK configuration --------------------------------------------*/ 
1275:Drivers/STM32F0xx_HAL_Driver/Src/stm32f0xx_hal_rcc.c ****   RCC_ClkInitStruct->SYSCLKSource = (uint32_t)(RCC->CFGR & RCC_CFGR_SW);
 2205              		.loc 1 1275 3 is_stmt 1 view .LVU624
 2206              		.loc 1 1275 51 is_stmt 0 view .LVU625
 2207 0006 0A4B     		ldr	r3, .L195
 2208 0008 5C68     		ldr	r4, [r3, #4]
 2209              		.loc 1 1275 37 view .LVU626
 2210 000a 0322     		movs	r2, #3
 2211 000c 2240     		ands	r2, r4
 2212              		.loc 1 1275 35 view .LVU627
 2213 000e 4260     		str	r2, [r0, #4]
1276:Drivers/STM32F0xx_HAL_Driver/Src/stm32f0xx_hal_rcc.c ****   
1277:Drivers/STM32F0xx_HAL_Driver/Src/stm32f0xx_hal_rcc.c ****   /* Get the HCLK configuration ----------------------------------------------*/ 
1278:Drivers/STM32F0xx_HAL_Driver/Src/stm32f0xx_hal_rcc.c ****   RCC_ClkInitStruct->AHBCLKDivider = (uint32_t)(RCC->CFGR & RCC_CFGR_HPRE); 
 2214              		.loc 1 1278 3 is_stmt 1 view .LVU628
 2215              		.loc 1 1278 52 is_stmt 0 view .LVU629
 2216 0010 5C68     		ldr	r4, [r3, #4]
 2217              		.loc 1 1278 38 view .LVU630
 2218 0012 F022     		movs	r2, #240
 2219 0014 2240     		ands	r2, r4
 2220              		.loc 1 1278 36 view .LVU631
 2221 0016 8260     		str	r2, [r0, #8]
1279:Drivers/STM32F0xx_HAL_Driver/Src/stm32f0xx_hal_rcc.c ****   
1280:Drivers/STM32F0xx_HAL_Driver/Src/stm32f0xx_hal_rcc.c ****   /* Get the APB1 configuration ----------------------------------------------*/ 
1281:Drivers/STM32F0xx_HAL_Driver/Src/stm32f0xx_hal_rcc.c ****   RCC_ClkInitStruct->APB1CLKDivider = (uint32_t)(RCC->CFGR & RCC_CFGR_PPRE);   
 2222              		.loc 1 1281 3 is_stmt 1 view .LVU632
 2223              		.loc 1 1281 53 is_stmt 0 view .LVU633
 2224 0018 5B68     		ldr	r3, [r3, #4]
 2225              		.loc 1 1281 39 view .LVU634
 2226 001a E022     		movs	r2, #224
 2227 001c D200     		lsls	r2, r2, #3
 2228 001e 1340     		ands	r3, r2
 2229              		.loc 1 1281 37 view .LVU635
 2230 0020 C360     		str	r3, [r0, #12]
1282:Drivers/STM32F0xx_HAL_Driver/Src/stm32f0xx_hal_rcc.c ****   /* Get the Flash Wait State (Latency) configuration ------------------------*/   
1283:Drivers/STM32F0xx_HAL_Driver/Src/stm32f0xx_hal_rcc.c ****   *pFLatency = (uint32_t)(FLASH->ACR & FLASH_ACR_LATENCY); 
 2231              		.loc 1 1283 3 is_stmt 1 view .LVU636
 2232              		.loc 1 1283 32 is_stmt 0 view .LVU637
 2233 0022 044B     		ldr	r3, .L195+4
 2234 0024 1A68     		ldr	r2, [r3]
 2235              		.loc 1 1283 16 view .LVU638
ARM GAS  /tmp/ccD6GDME.s 			page 68


 2236 0026 0123     		movs	r3, #1
 2237 0028 1340     		ands	r3, r2
 2238              		.loc 1 1283 14 view .LVU639
 2239 002a 0B60     		str	r3, [r1]
1284:Drivers/STM32F0xx_HAL_Driver/Src/stm32f0xx_hal_rcc.c **** }
 2240              		.loc 1 1284 1 view .LVU640
 2241              		@ sp needed
 2242 002c 10BD     		pop	{r4, pc}
 2243              	.L196:
 2244 002e C046     		.align	2
 2245              	.L195:
 2246 0030 00100240 		.word	1073876992
 2247 0034 00200240 		.word	1073881088
 2248              		.cfi_endproc
 2249              	.LFE47:
 2251              		.section	.text.HAL_RCC_CSSCallback,"ax",%progbits
 2252              		.align	1
 2253              		.weak	HAL_RCC_CSSCallback
 2254              		.syntax unified
 2255              		.code	16
 2256              		.thumb_func
 2257              		.fpu softvfp
 2259              	HAL_RCC_CSSCallback:
 2260              	.LFB49:
1285:Drivers/STM32F0xx_HAL_Driver/Src/stm32f0xx_hal_rcc.c **** 
1286:Drivers/STM32F0xx_HAL_Driver/Src/stm32f0xx_hal_rcc.c **** /**
1287:Drivers/STM32F0xx_HAL_Driver/Src/stm32f0xx_hal_rcc.c ****   * @brief This function handles the RCC CSS interrupt request.
1288:Drivers/STM32F0xx_HAL_Driver/Src/stm32f0xx_hal_rcc.c ****   * @note This API should be called under the NMI_Handler().
1289:Drivers/STM32F0xx_HAL_Driver/Src/stm32f0xx_hal_rcc.c ****   * @retval None
1290:Drivers/STM32F0xx_HAL_Driver/Src/stm32f0xx_hal_rcc.c ****   */
1291:Drivers/STM32F0xx_HAL_Driver/Src/stm32f0xx_hal_rcc.c **** void HAL_RCC_NMI_IRQHandler(void)
1292:Drivers/STM32F0xx_HAL_Driver/Src/stm32f0xx_hal_rcc.c **** {
1293:Drivers/STM32F0xx_HAL_Driver/Src/stm32f0xx_hal_rcc.c ****   /* Check RCC CSSF flag  */
1294:Drivers/STM32F0xx_HAL_Driver/Src/stm32f0xx_hal_rcc.c ****   if(__HAL_RCC_GET_IT(RCC_IT_CSS))
1295:Drivers/STM32F0xx_HAL_Driver/Src/stm32f0xx_hal_rcc.c ****   {
1296:Drivers/STM32F0xx_HAL_Driver/Src/stm32f0xx_hal_rcc.c ****     /* RCC Clock Security System interrupt user callback */
1297:Drivers/STM32F0xx_HAL_Driver/Src/stm32f0xx_hal_rcc.c ****     HAL_RCC_CSSCallback();
1298:Drivers/STM32F0xx_HAL_Driver/Src/stm32f0xx_hal_rcc.c ****     
1299:Drivers/STM32F0xx_HAL_Driver/Src/stm32f0xx_hal_rcc.c ****     /* Clear RCC CSS pending bit */
1300:Drivers/STM32F0xx_HAL_Driver/Src/stm32f0xx_hal_rcc.c ****     __HAL_RCC_CLEAR_IT(RCC_IT_CSS);
1301:Drivers/STM32F0xx_HAL_Driver/Src/stm32f0xx_hal_rcc.c ****   }
1302:Drivers/STM32F0xx_HAL_Driver/Src/stm32f0xx_hal_rcc.c **** }
1303:Drivers/STM32F0xx_HAL_Driver/Src/stm32f0xx_hal_rcc.c **** 
1304:Drivers/STM32F0xx_HAL_Driver/Src/stm32f0xx_hal_rcc.c **** /**
1305:Drivers/STM32F0xx_HAL_Driver/Src/stm32f0xx_hal_rcc.c ****   * @brief  RCC Clock Security System interrupt callback
1306:Drivers/STM32F0xx_HAL_Driver/Src/stm32f0xx_hal_rcc.c ****   * @retval none
1307:Drivers/STM32F0xx_HAL_Driver/Src/stm32f0xx_hal_rcc.c ****   */
1308:Drivers/STM32F0xx_HAL_Driver/Src/stm32f0xx_hal_rcc.c **** __weak void HAL_RCC_CSSCallback(void)
1309:Drivers/STM32F0xx_HAL_Driver/Src/stm32f0xx_hal_rcc.c **** {
 2261              		.loc 1 1309 1 is_stmt 1 view -0
 2262              		.cfi_startproc
 2263              		@ args = 0, pretend = 0, frame = 0
 2264              		@ frame_needed = 0, uses_anonymous_args = 0
 2265              		@ link register save eliminated.
1310:Drivers/STM32F0xx_HAL_Driver/Src/stm32f0xx_hal_rcc.c ****   /* NOTE : This function Should not be modified, when the callback is needed,
1311:Drivers/STM32F0xx_HAL_Driver/Src/stm32f0xx_hal_rcc.c ****     the HAL_RCC_CSSCallback could be implemented in the user file
1312:Drivers/STM32F0xx_HAL_Driver/Src/stm32f0xx_hal_rcc.c ****     */ 
ARM GAS  /tmp/ccD6GDME.s 			page 69


1313:Drivers/STM32F0xx_HAL_Driver/Src/stm32f0xx_hal_rcc.c **** }
 2266              		.loc 1 1313 1 view .LVU642
 2267              		@ sp needed
 2268 0000 7047     		bx	lr
 2269              		.cfi_endproc
 2270              	.LFE49:
 2272              		.section	.text.HAL_RCC_NMI_IRQHandler,"ax",%progbits
 2273              		.align	1
 2274              		.global	HAL_RCC_NMI_IRQHandler
 2275              		.syntax unified
 2276              		.code	16
 2277              		.thumb_func
 2278              		.fpu softvfp
 2280              	HAL_RCC_NMI_IRQHandler:
 2281              	.LFB48:
1292:Drivers/STM32F0xx_HAL_Driver/Src/stm32f0xx_hal_rcc.c ****   /* Check RCC CSSF flag  */
 2282              		.loc 1 1292 1 view -0
 2283              		.cfi_startproc
 2284              		@ args = 0, pretend = 0, frame = 0
 2285              		@ frame_needed = 0, uses_anonymous_args = 0
 2286 0000 10B5     		push	{r4, lr}
 2287              	.LCFI9:
 2288              		.cfi_def_cfa_offset 8
 2289              		.cfi_offset 4, -8
 2290              		.cfi_offset 14, -4
1294:Drivers/STM32F0xx_HAL_Driver/Src/stm32f0xx_hal_rcc.c ****   {
 2291              		.loc 1 1294 3 view .LVU644
1294:Drivers/STM32F0xx_HAL_Driver/Src/stm32f0xx_hal_rcc.c ****   {
 2292              		.loc 1 1294 6 is_stmt 0 view .LVU645
 2293 0002 054B     		ldr	r3, .L201
 2294 0004 9B68     		ldr	r3, [r3, #8]
1294:Drivers/STM32F0xx_HAL_Driver/Src/stm32f0xx_hal_rcc.c ****   {
 2295              		.loc 1 1294 5 view .LVU646
 2296 0006 1B06     		lsls	r3, r3, #24
 2297 0008 00D4     		bmi	.L200
 2298              	.L198:
1302:Drivers/STM32F0xx_HAL_Driver/Src/stm32f0xx_hal_rcc.c **** 
 2299              		.loc 1 1302 1 view .LVU647
 2300              		@ sp needed
 2301 000a 10BD     		pop	{r4, pc}
 2302              	.L200:
1297:Drivers/STM32F0xx_HAL_Driver/Src/stm32f0xx_hal_rcc.c ****     
 2303              		.loc 1 1297 5 is_stmt 1 view .LVU648
 2304 000c FFF7FEFF 		bl	HAL_RCC_CSSCallback
 2305              	.LVL130:
1300:Drivers/STM32F0xx_HAL_Driver/Src/stm32f0xx_hal_rcc.c ****   }
 2306              		.loc 1 1300 5 view .LVU649
 2307 0010 024B     		ldr	r3, .L201+4
 2308 0012 8022     		movs	r2, #128
 2309 0014 1A70     		strb	r2, [r3]
