ARM GAS  /tmp/ccMLnPi5.s 			page 1


   1              		.cpu cortex-m0
   2              		.eabi_attribute 20, 1
   3              		.eabi_attribute 21, 1
   4              		.eabi_attribute 23, 3
   5              		.eabi_attribute 24, 1
   6              		.eabi_attribute 25, 1
   7              		.eabi_attribute 26, 1
   8              		.eabi_attribute 30, 1
   9              		.eabi_attribute 34, 0
  10              		.eabi_attribute 18, 4
  11              		.file	"stm32f0xx_hal_pcd.c"
  12              		.text
  13              	.Ltext0:
  14              		.cfi_sections	.debug_frame
  15              		.section	.text.HAL_PCD_MspInit,"ax",%progbits
  16              		.align	1
  17              		.weak	HAL_PCD_MspInit
  18              		.syntax unified
  19              		.code	16
  20              		.thumb_func
  21              		.fpu softvfp
  23              	HAL_PCD_MspInit:
  24              	.LFB39:
  25              		.file 1 "Drivers/STM32F0xx_HAL_Driver/Src/stm32f0xx_hal_pcd.c"
   1:Drivers/STM32F0xx_HAL_Driver/Src/stm32f0xx_hal_pcd.c **** /**
   2:Drivers/STM32F0xx_HAL_Driver/Src/stm32f0xx_hal_pcd.c ****   ******************************************************************************
   3:Drivers/STM32F0xx_HAL_Driver/Src/stm32f0xx_hal_pcd.c ****   * @file    stm32f0xx_hal_pcd.c
   4:Drivers/STM32F0xx_HAL_Driver/Src/stm32f0xx_hal_pcd.c ****   * @author  MCD Application Team
   5:Drivers/STM32F0xx_HAL_Driver/Src/stm32f0xx_hal_pcd.c ****   * @brief   PCD HAL module driver.
   6:Drivers/STM32F0xx_HAL_Driver/Src/stm32f0xx_hal_pcd.c ****   *          This file provides firmware functions to manage the following 
   7:Drivers/STM32F0xx_HAL_Driver/Src/stm32f0xx_hal_pcd.c ****   *          functionalities of the USB Peripheral Controller:
   8:Drivers/STM32F0xx_HAL_Driver/Src/stm32f0xx_hal_pcd.c ****   *           + Initialization and de-initialization functions
   9:Drivers/STM32F0xx_HAL_Driver/Src/stm32f0xx_hal_pcd.c ****   *           + IO operation functions
  10:Drivers/STM32F0xx_HAL_Driver/Src/stm32f0xx_hal_pcd.c ****   *           + Peripheral Control functions 
  11:Drivers/STM32F0xx_HAL_Driver/Src/stm32f0xx_hal_pcd.c ****   *           + Peripheral State functions
  12:Drivers/STM32F0xx_HAL_Driver/Src/stm32f0xx_hal_pcd.c ****   *         
  13:Drivers/STM32F0xx_HAL_Driver/Src/stm32f0xx_hal_pcd.c ****   @verbatim
  14:Drivers/STM32F0xx_HAL_Driver/Src/stm32f0xx_hal_pcd.c ****   ==============================================================================
  15:Drivers/STM32F0xx_HAL_Driver/Src/stm32f0xx_hal_pcd.c ****                     ##### How to use this driver #####
  16:Drivers/STM32F0xx_HAL_Driver/Src/stm32f0xx_hal_pcd.c ****   ==============================================================================
  17:Drivers/STM32F0xx_HAL_Driver/Src/stm32f0xx_hal_pcd.c ****     [..]
  18:Drivers/STM32F0xx_HAL_Driver/Src/stm32f0xx_hal_pcd.c ****       The PCD HAL driver can be used as follows:
  19:Drivers/STM32F0xx_HAL_Driver/Src/stm32f0xx_hal_pcd.c **** 
  20:Drivers/STM32F0xx_HAL_Driver/Src/stm32f0xx_hal_pcd.c ****      (#) Declare a PCD_HandleTypeDef handle structure, for example:
  21:Drivers/STM32F0xx_HAL_Driver/Src/stm32f0xx_hal_pcd.c ****          PCD_HandleTypeDef  hpcd;
  22:Drivers/STM32F0xx_HAL_Driver/Src/stm32f0xx_hal_pcd.c ****         
  23:Drivers/STM32F0xx_HAL_Driver/Src/stm32f0xx_hal_pcd.c ****      (#) Fill parameters of Init structure in HCD handle
  24:Drivers/STM32F0xx_HAL_Driver/Src/stm32f0xx_hal_pcd.c ****   
  25:Drivers/STM32F0xx_HAL_Driver/Src/stm32f0xx_hal_pcd.c ****      (#) Call HAL_PCD_Init() API to initialize the HCD peripheral (Core, Device core, ...) 
  26:Drivers/STM32F0xx_HAL_Driver/Src/stm32f0xx_hal_pcd.c **** 
  27:Drivers/STM32F0xx_HAL_Driver/Src/stm32f0xx_hal_pcd.c ****      (#) Initialize the PCD low level resources through the HAL_PCD_MspInit() API:
  28:Drivers/STM32F0xx_HAL_Driver/Src/stm32f0xx_hal_pcd.c ****          (##) Enable the PCD/USB Low Level interface clock using 
  29:Drivers/STM32F0xx_HAL_Driver/Src/stm32f0xx_hal_pcd.c ****               (+++) __HAL_RCC_USB_CLK_ENABLE);
  30:Drivers/STM32F0xx_HAL_Driver/Src/stm32f0xx_hal_pcd.c ****            
  31:Drivers/STM32F0xx_HAL_Driver/Src/stm32f0xx_hal_pcd.c ****          (##) Initialize the related GPIO clocks
  32:Drivers/STM32F0xx_HAL_Driver/Src/stm32f0xx_hal_pcd.c ****          (##) Configure PCD pin-out
  33:Drivers/STM32F0xx_HAL_Driver/Src/stm32f0xx_hal_pcd.c ****          (##) Configure PCD NVIC interrupt
ARM GAS  /tmp/ccMLnPi5.s 			page 2


  34:Drivers/STM32F0xx_HAL_Driver/Src/stm32f0xx_hal_pcd.c ****     
  35:Drivers/STM32F0xx_HAL_Driver/Src/stm32f0xx_hal_pcd.c ****      (#)Associate the Upper USB device stack to the HAL PCD Driver:
  36:Drivers/STM32F0xx_HAL_Driver/Src/stm32f0xx_hal_pcd.c ****          (##) hpcd.pData = pdev;
  37:Drivers/STM32F0xx_HAL_Driver/Src/stm32f0xx_hal_pcd.c **** 
  38:Drivers/STM32F0xx_HAL_Driver/Src/stm32f0xx_hal_pcd.c ****      (#)Enable HCD transmission and reception:
  39:Drivers/STM32F0xx_HAL_Driver/Src/stm32f0xx_hal_pcd.c ****          (##) HAL_PCD_Start();
  40:Drivers/STM32F0xx_HAL_Driver/Src/stm32f0xx_hal_pcd.c **** 
  41:Drivers/STM32F0xx_HAL_Driver/Src/stm32f0xx_hal_pcd.c ****   @endverbatim
  42:Drivers/STM32F0xx_HAL_Driver/Src/stm32f0xx_hal_pcd.c ****   ******************************************************************************
  43:Drivers/STM32F0xx_HAL_Driver/Src/stm32f0xx_hal_pcd.c ****   * @attention
  44:Drivers/STM32F0xx_HAL_Driver/Src/stm32f0xx_hal_pcd.c ****   *
  45:Drivers/STM32F0xx_HAL_Driver/Src/stm32f0xx_hal_pcd.c ****   * <h2><center>&copy; COPYRIGHT(c) 2016 STMicroelectronics</center></h2>
  46:Drivers/STM32F0xx_HAL_Driver/Src/stm32f0xx_hal_pcd.c ****   *
  47:Drivers/STM32F0xx_HAL_Driver/Src/stm32f0xx_hal_pcd.c ****   * Redistribution and use in source and binary forms, with or without modification,
  48:Drivers/STM32F0xx_HAL_Driver/Src/stm32f0xx_hal_pcd.c ****   * are permitted provided that the following conditions are met:
  49:Drivers/STM32F0xx_HAL_Driver/Src/stm32f0xx_hal_pcd.c ****   *   1. Redistributions of source code must retain the above copyright notice,
  50:Drivers/STM32F0xx_HAL_Driver/Src/stm32f0xx_hal_pcd.c ****   *      this list of conditions and the following disclaimer.
  51:Drivers/STM32F0xx_HAL_Driver/Src/stm32f0xx_hal_pcd.c ****   *   2. Redistributions in binary form must reproduce the above copyright notice,
  52:Drivers/STM32F0xx_HAL_Driver/Src/stm32f0xx_hal_pcd.c ****   *      this list of conditions and the following disclaimer in the documentation
  53:Drivers/STM32F0xx_HAL_Driver/Src/stm32f0xx_hal_pcd.c ****   *      and/or other materials provided with the distribution.
  54:Drivers/STM32F0xx_HAL_Driver/Src/stm32f0xx_hal_pcd.c ****   *   3. Neither the name of STMicroelectronics nor the names of its contributors
  55:Drivers/STM32F0xx_HAL_Driver/Src/stm32f0xx_hal_pcd.c ****   *      may be used to endorse or promote products derived from this software
  56:Drivers/STM32F0xx_HAL_Driver/Src/stm32f0xx_hal_pcd.c ****   *      without specific prior written permission.
  57:Drivers/STM32F0xx_HAL_Driver/Src/stm32f0xx_hal_pcd.c ****   *
  58:Drivers/STM32F0xx_HAL_Driver/Src/stm32f0xx_hal_pcd.c ****   * THIS SOFTWARE IS PROVIDED BY THE COPYRIGHT HOLDERS AND CONTRIBUTORS "AS IS"
  59:Drivers/STM32F0xx_HAL_Driver/Src/stm32f0xx_hal_pcd.c ****   * AND ANY EXPRESS OR IMPLIED WARRANTIES, INCLUDING, BUT NOT LIMITED TO, THE
  60:Drivers/STM32F0xx_HAL_Driver/Src/stm32f0xx_hal_pcd.c ****   * IMPLIED WARRANTIES OF MERCHANTABILITY AND FITNESS FOR A PARTICULAR PURPOSE ARE
  61:Drivers/STM32F0xx_HAL_Driver/Src/stm32f0xx_hal_pcd.c ****   * DISCLAIMED. IN NO EVENT SHALL THE COPYRIGHT HOLDER OR CONTRIBUTORS BE LIABLE
  62:Drivers/STM32F0xx_HAL_Driver/Src/stm32f0xx_hal_pcd.c ****   * FOR ANY DIRECT, INDIRECT, INCIDENTAL, SPECIAL, EXEMPLARY, OR CONSEQUENTIAL
  63:Drivers/STM32F0xx_HAL_Driver/Src/stm32f0xx_hal_pcd.c ****   * DAMAGES (INCLUDING, BUT NOT LIMITED TO, PROCUREMENT OF SUBSTITUTE GOODS OR
  64:Drivers/STM32F0xx_HAL_Driver/Src/stm32f0xx_hal_pcd.c ****   * SERVICES; LOSS OF USE, DATA, OR PROFITS; OR BUSINESS INTERRUPTION) HOWEVER
  65:Drivers/STM32F0xx_HAL_Driver/Src/stm32f0xx_hal_pcd.c ****   * CAUSED AND ON ANY THEORY OF LIABILITY, WHETHER IN CONTRACT, STRICT LIABILITY,
  66:Drivers/STM32F0xx_HAL_Driver/Src/stm32f0xx_hal_pcd.c ****   * OR TORT (INCLUDING NEGLIGENCE OR OTHERWISE) ARISING IN ANY WAY OUT OF THE USE
  67:Drivers/STM32F0xx_HAL_Driver/Src/stm32f0xx_hal_pcd.c ****   * OF THIS SOFTWARE, EVEN IF ADVISED OF THE POSSIBILITY OF SUCH DAMAGE.
  68:Drivers/STM32F0xx_HAL_Driver/Src/stm32f0xx_hal_pcd.c ****   *
  69:Drivers/STM32F0xx_HAL_Driver/Src/stm32f0xx_hal_pcd.c ****   ******************************************************************************
  70:Drivers/STM32F0xx_HAL_Driver/Src/stm32f0xx_hal_pcd.c ****   */
  71:Drivers/STM32F0xx_HAL_Driver/Src/stm32f0xx_hal_pcd.c **** 
  72:Drivers/STM32F0xx_HAL_Driver/Src/stm32f0xx_hal_pcd.c **** /* Includes ------------------------------------------------------------------*/
  73:Drivers/STM32F0xx_HAL_Driver/Src/stm32f0xx_hal_pcd.c **** #include "stm32f0xx_hal.h"
  74:Drivers/STM32F0xx_HAL_Driver/Src/stm32f0xx_hal_pcd.c **** 
  75:Drivers/STM32F0xx_HAL_Driver/Src/stm32f0xx_hal_pcd.c **** /** @addtogroup STM32F0xx_HAL_Driver
  76:Drivers/STM32F0xx_HAL_Driver/Src/stm32f0xx_hal_pcd.c ****   * @{
  77:Drivers/STM32F0xx_HAL_Driver/Src/stm32f0xx_hal_pcd.c ****   */
  78:Drivers/STM32F0xx_HAL_Driver/Src/stm32f0xx_hal_pcd.c **** 
  79:Drivers/STM32F0xx_HAL_Driver/Src/stm32f0xx_hal_pcd.c **** #ifdef HAL_PCD_MODULE_ENABLED
  80:Drivers/STM32F0xx_HAL_Driver/Src/stm32f0xx_hal_pcd.c **** 
  81:Drivers/STM32F0xx_HAL_Driver/Src/stm32f0xx_hal_pcd.c **** #if defined(STM32F042x6) || defined(STM32F048xx) || defined(STM32F072xB) || defined(STM32F078xx) ||
  82:Drivers/STM32F0xx_HAL_Driver/Src/stm32f0xx_hal_pcd.c **** 
  83:Drivers/STM32F0xx_HAL_Driver/Src/stm32f0xx_hal_pcd.c **** /** @defgroup PCD PCD
  84:Drivers/STM32F0xx_HAL_Driver/Src/stm32f0xx_hal_pcd.c ****   * @brief PCD HAL module driver
  85:Drivers/STM32F0xx_HAL_Driver/Src/stm32f0xx_hal_pcd.c ****   * @{
  86:Drivers/STM32F0xx_HAL_Driver/Src/stm32f0xx_hal_pcd.c ****   */
  87:Drivers/STM32F0xx_HAL_Driver/Src/stm32f0xx_hal_pcd.c **** 
  88:Drivers/STM32F0xx_HAL_Driver/Src/stm32f0xx_hal_pcd.c **** /* Private typedef -----------------------------------------------------------*/
  89:Drivers/STM32F0xx_HAL_Driver/Src/stm32f0xx_hal_pcd.c **** /* Private define ------------------------------------------------------------*/
  90:Drivers/STM32F0xx_HAL_Driver/Src/stm32f0xx_hal_pcd.c **** 
ARM GAS  /tmp/ccMLnPi5.s 			page 3


  91:Drivers/STM32F0xx_HAL_Driver/Src/stm32f0xx_hal_pcd.c **** /** @defgroup PCD_Private_Define PCD Private Define
  92:Drivers/STM32F0xx_HAL_Driver/Src/stm32f0xx_hal_pcd.c ****   * @{
  93:Drivers/STM32F0xx_HAL_Driver/Src/stm32f0xx_hal_pcd.c ****   */
  94:Drivers/STM32F0xx_HAL_Driver/Src/stm32f0xx_hal_pcd.c **** #define BTABLE_ADDRESS                  (0x000)  
  95:Drivers/STM32F0xx_HAL_Driver/Src/stm32f0xx_hal_pcd.c **** /**
  96:Drivers/STM32F0xx_HAL_Driver/Src/stm32f0xx_hal_pcd.c ****   * @}
  97:Drivers/STM32F0xx_HAL_Driver/Src/stm32f0xx_hal_pcd.c ****   */ 
  98:Drivers/STM32F0xx_HAL_Driver/Src/stm32f0xx_hal_pcd.c ****   
  99:Drivers/STM32F0xx_HAL_Driver/Src/stm32f0xx_hal_pcd.c **** /* Private macro -------------------------------------------------------------*/
 100:Drivers/STM32F0xx_HAL_Driver/Src/stm32f0xx_hal_pcd.c **** /* Private variables ---------------------------------------------------------*/
 101:Drivers/STM32F0xx_HAL_Driver/Src/stm32f0xx_hal_pcd.c **** /* Private function prototypes -----------------------------------------------*/
 102:Drivers/STM32F0xx_HAL_Driver/Src/stm32f0xx_hal_pcd.c **** /** @defgroup PCD_Private_Functions PCD Private Functions
 103:Drivers/STM32F0xx_HAL_Driver/Src/stm32f0xx_hal_pcd.c ****   * @{
 104:Drivers/STM32F0xx_HAL_Driver/Src/stm32f0xx_hal_pcd.c ****   */
 105:Drivers/STM32F0xx_HAL_Driver/Src/stm32f0xx_hal_pcd.c **** static HAL_StatusTypeDef PCD_EP_ISR_Handler(PCD_HandleTypeDef *hpcd);
 106:Drivers/STM32F0xx_HAL_Driver/Src/stm32f0xx_hal_pcd.c **** void PCD_WritePMA(USB_TypeDef  *USBx, uint8_t *pbUsrBuf, uint16_t wPMABufAddr, uint16_t wNBytes);
 107:Drivers/STM32F0xx_HAL_Driver/Src/stm32f0xx_hal_pcd.c **** void PCD_ReadPMA(USB_TypeDef  *USBx, uint8_t *pbUsrBuf, uint16_t wPMABufAddr, uint16_t wNBytes);
 108:Drivers/STM32F0xx_HAL_Driver/Src/stm32f0xx_hal_pcd.c **** /**
 109:Drivers/STM32F0xx_HAL_Driver/Src/stm32f0xx_hal_pcd.c ****   * @}
 110:Drivers/STM32F0xx_HAL_Driver/Src/stm32f0xx_hal_pcd.c ****   */ 
 111:Drivers/STM32F0xx_HAL_Driver/Src/stm32f0xx_hal_pcd.c **** 
 112:Drivers/STM32F0xx_HAL_Driver/Src/stm32f0xx_hal_pcd.c **** /* Exported functions --------------------------------------------------------*/
 113:Drivers/STM32F0xx_HAL_Driver/Src/stm32f0xx_hal_pcd.c **** /** @defgroup PCD_Exported_Functions PCD Exported Functions
 114:Drivers/STM32F0xx_HAL_Driver/Src/stm32f0xx_hal_pcd.c ****   * @{
 115:Drivers/STM32F0xx_HAL_Driver/Src/stm32f0xx_hal_pcd.c ****   */
 116:Drivers/STM32F0xx_HAL_Driver/Src/stm32f0xx_hal_pcd.c **** 
 117:Drivers/STM32F0xx_HAL_Driver/Src/stm32f0xx_hal_pcd.c **** /** @defgroup PCD_Exported_Functions_Group1 Initialization and de-initialization functions 
 118:Drivers/STM32F0xx_HAL_Driver/Src/stm32f0xx_hal_pcd.c ****  *  @brief    Initialization and Configuration functions 
 119:Drivers/STM32F0xx_HAL_Driver/Src/stm32f0xx_hal_pcd.c ****  *
 120:Drivers/STM32F0xx_HAL_Driver/Src/stm32f0xx_hal_pcd.c **** @verbatim
 121:Drivers/STM32F0xx_HAL_Driver/Src/stm32f0xx_hal_pcd.c ****  ===============================================================================
 122:Drivers/STM32F0xx_HAL_Driver/Src/stm32f0xx_hal_pcd.c ****             ##### Initialization and de-initialization functions #####
 123:Drivers/STM32F0xx_HAL_Driver/Src/stm32f0xx_hal_pcd.c ****  ===============================================================================
 124:Drivers/STM32F0xx_HAL_Driver/Src/stm32f0xx_hal_pcd.c ****     [..]  This section provides functions allowing to:
 125:Drivers/STM32F0xx_HAL_Driver/Src/stm32f0xx_hal_pcd.c ****  
 126:Drivers/STM32F0xx_HAL_Driver/Src/stm32f0xx_hal_pcd.c **** @endverbatim
 127:Drivers/STM32F0xx_HAL_Driver/Src/stm32f0xx_hal_pcd.c ****   * @{
 128:Drivers/STM32F0xx_HAL_Driver/Src/stm32f0xx_hal_pcd.c ****   */
 129:Drivers/STM32F0xx_HAL_Driver/Src/stm32f0xx_hal_pcd.c **** 
 130:Drivers/STM32F0xx_HAL_Driver/Src/stm32f0xx_hal_pcd.c **** /**
 131:Drivers/STM32F0xx_HAL_Driver/Src/stm32f0xx_hal_pcd.c ****   * @brief  Initializes the PCD according to the specified
 132:Drivers/STM32F0xx_HAL_Driver/Src/stm32f0xx_hal_pcd.c ****   *         parameters in the PCD_InitTypeDef and create the associated handle.
 133:Drivers/STM32F0xx_HAL_Driver/Src/stm32f0xx_hal_pcd.c ****   * @param  hpcd PCD handle
 134:Drivers/STM32F0xx_HAL_Driver/Src/stm32f0xx_hal_pcd.c ****   * @retval HAL status
 135:Drivers/STM32F0xx_HAL_Driver/Src/stm32f0xx_hal_pcd.c ****   */
 136:Drivers/STM32F0xx_HAL_Driver/Src/stm32f0xx_hal_pcd.c **** HAL_StatusTypeDef HAL_PCD_Init(PCD_HandleTypeDef *hpcd)
 137:Drivers/STM32F0xx_HAL_Driver/Src/stm32f0xx_hal_pcd.c **** { 
 138:Drivers/STM32F0xx_HAL_Driver/Src/stm32f0xx_hal_pcd.c ****   uint32_t i = 0U;
 139:Drivers/STM32F0xx_HAL_Driver/Src/stm32f0xx_hal_pcd.c **** 
 140:Drivers/STM32F0xx_HAL_Driver/Src/stm32f0xx_hal_pcd.c ****   uint32_t wInterrupt_Mask = 0U;
 141:Drivers/STM32F0xx_HAL_Driver/Src/stm32f0xx_hal_pcd.c ****   
 142:Drivers/STM32F0xx_HAL_Driver/Src/stm32f0xx_hal_pcd.c ****   /* Check the PCD handle allocation */
 143:Drivers/STM32F0xx_HAL_Driver/Src/stm32f0xx_hal_pcd.c ****   if(hpcd == NULL)
 144:Drivers/STM32F0xx_HAL_Driver/Src/stm32f0xx_hal_pcd.c ****   {
 145:Drivers/STM32F0xx_HAL_Driver/Src/stm32f0xx_hal_pcd.c ****     return HAL_ERROR;
 146:Drivers/STM32F0xx_HAL_Driver/Src/stm32f0xx_hal_pcd.c ****   }
 147:Drivers/STM32F0xx_HAL_Driver/Src/stm32f0xx_hal_pcd.c ****   
ARM GAS  /tmp/ccMLnPi5.s 			page 4


 148:Drivers/STM32F0xx_HAL_Driver/Src/stm32f0xx_hal_pcd.c ****   /* Check the parameters */
 149:Drivers/STM32F0xx_HAL_Driver/Src/stm32f0xx_hal_pcd.c ****   assert_param(IS_PCD_ALL_INSTANCE(hpcd->Instance));
 150:Drivers/STM32F0xx_HAL_Driver/Src/stm32f0xx_hal_pcd.c **** 
 151:Drivers/STM32F0xx_HAL_Driver/Src/stm32f0xx_hal_pcd.c ****   if(hpcd->State == HAL_PCD_STATE_RESET)
 152:Drivers/STM32F0xx_HAL_Driver/Src/stm32f0xx_hal_pcd.c ****   {  
 153:Drivers/STM32F0xx_HAL_Driver/Src/stm32f0xx_hal_pcd.c ****     /* Allocate lock resource and initialize it */
 154:Drivers/STM32F0xx_HAL_Driver/Src/stm32f0xx_hal_pcd.c ****     hpcd->Lock = HAL_UNLOCKED;
 155:Drivers/STM32F0xx_HAL_Driver/Src/stm32f0xx_hal_pcd.c ****   
 156:Drivers/STM32F0xx_HAL_Driver/Src/stm32f0xx_hal_pcd.c ****     /* Init the low level hardware : GPIO, CLOCK, NVIC... */
 157:Drivers/STM32F0xx_HAL_Driver/Src/stm32f0xx_hal_pcd.c ****     HAL_PCD_MspInit(hpcd);
 158:Drivers/STM32F0xx_HAL_Driver/Src/stm32f0xx_hal_pcd.c ****   }
 159:Drivers/STM32F0xx_HAL_Driver/Src/stm32f0xx_hal_pcd.c **** 
 160:Drivers/STM32F0xx_HAL_Driver/Src/stm32f0xx_hal_pcd.c ****   hpcd->State = HAL_PCD_STATE_BUSY;
 161:Drivers/STM32F0xx_HAL_Driver/Src/stm32f0xx_hal_pcd.c ****  
 162:Drivers/STM32F0xx_HAL_Driver/Src/stm32f0xx_hal_pcd.c ****  /* Init endpoints structures */
 163:Drivers/STM32F0xx_HAL_Driver/Src/stm32f0xx_hal_pcd.c ****  for (i = 0U; i < hpcd->Init.dev_endpoints ; i++)
 164:Drivers/STM32F0xx_HAL_Driver/Src/stm32f0xx_hal_pcd.c ****  {
 165:Drivers/STM32F0xx_HAL_Driver/Src/stm32f0xx_hal_pcd.c ****    /* Init ep structure */
 166:Drivers/STM32F0xx_HAL_Driver/Src/stm32f0xx_hal_pcd.c ****    hpcd->IN_ep[i].is_in = 1U;
 167:Drivers/STM32F0xx_HAL_Driver/Src/stm32f0xx_hal_pcd.c ****    hpcd->IN_ep[i].num = i;
 168:Drivers/STM32F0xx_HAL_Driver/Src/stm32f0xx_hal_pcd.c ****    /* Control until ep is actvated */
 169:Drivers/STM32F0xx_HAL_Driver/Src/stm32f0xx_hal_pcd.c ****    hpcd->IN_ep[i].type = PCD_EP_TYPE_CTRL;
 170:Drivers/STM32F0xx_HAL_Driver/Src/stm32f0xx_hal_pcd.c ****    hpcd->IN_ep[i].maxpacket =  0U;
 171:Drivers/STM32F0xx_HAL_Driver/Src/stm32f0xx_hal_pcd.c ****    hpcd->IN_ep[i].xfer_buff = 0U;
 172:Drivers/STM32F0xx_HAL_Driver/Src/stm32f0xx_hal_pcd.c ****    hpcd->IN_ep[i].xfer_len = 0U;
 173:Drivers/STM32F0xx_HAL_Driver/Src/stm32f0xx_hal_pcd.c ****  }
 174:Drivers/STM32F0xx_HAL_Driver/Src/stm32f0xx_hal_pcd.c ****  
 175:Drivers/STM32F0xx_HAL_Driver/Src/stm32f0xx_hal_pcd.c ****  for (i = 0U; i < hpcd->Init.dev_endpoints ; i++)
 176:Drivers/STM32F0xx_HAL_Driver/Src/stm32f0xx_hal_pcd.c ****  {
 177:Drivers/STM32F0xx_HAL_Driver/Src/stm32f0xx_hal_pcd.c ****    hpcd->OUT_ep[i].is_in = 0U;
 178:Drivers/STM32F0xx_HAL_Driver/Src/stm32f0xx_hal_pcd.c ****    hpcd->OUT_ep[i].num = i;
 179:Drivers/STM32F0xx_HAL_Driver/Src/stm32f0xx_hal_pcd.c ****    /* Control until ep is activated */
 180:Drivers/STM32F0xx_HAL_Driver/Src/stm32f0xx_hal_pcd.c ****    hpcd->OUT_ep[i].type = PCD_EP_TYPE_CTRL;
 181:Drivers/STM32F0xx_HAL_Driver/Src/stm32f0xx_hal_pcd.c ****    hpcd->OUT_ep[i].maxpacket = 0U;
 182:Drivers/STM32F0xx_HAL_Driver/Src/stm32f0xx_hal_pcd.c ****    hpcd->OUT_ep[i].xfer_buff = 0U;
 183:Drivers/STM32F0xx_HAL_Driver/Src/stm32f0xx_hal_pcd.c ****    hpcd->OUT_ep[i].xfer_len = 0U;
 184:Drivers/STM32F0xx_HAL_Driver/Src/stm32f0xx_hal_pcd.c ****  }
 185:Drivers/STM32F0xx_HAL_Driver/Src/stm32f0xx_hal_pcd.c ****   
 186:Drivers/STM32F0xx_HAL_Driver/Src/stm32f0xx_hal_pcd.c ****  /* Init Device */
 187:Drivers/STM32F0xx_HAL_Driver/Src/stm32f0xx_hal_pcd.c ****  /*CNTR_FRES = 1*/
 188:Drivers/STM32F0xx_HAL_Driver/Src/stm32f0xx_hal_pcd.c ****  hpcd->Instance->CNTR = USB_CNTR_FRES;
 189:Drivers/STM32F0xx_HAL_Driver/Src/stm32f0xx_hal_pcd.c ****  
 190:Drivers/STM32F0xx_HAL_Driver/Src/stm32f0xx_hal_pcd.c ****  /*CNTR_FRES = 0*/
 191:Drivers/STM32F0xx_HAL_Driver/Src/stm32f0xx_hal_pcd.c ****  hpcd->Instance->CNTR = 0;
 192:Drivers/STM32F0xx_HAL_Driver/Src/stm32f0xx_hal_pcd.c ****  
 193:Drivers/STM32F0xx_HAL_Driver/Src/stm32f0xx_hal_pcd.c ****  /*Clear pending interrupts*/
 194:Drivers/STM32F0xx_HAL_Driver/Src/stm32f0xx_hal_pcd.c ****  hpcd->Instance->ISTR = 0;
 195:Drivers/STM32F0xx_HAL_Driver/Src/stm32f0xx_hal_pcd.c ****  
 196:Drivers/STM32F0xx_HAL_Driver/Src/stm32f0xx_hal_pcd.c ****   /*Set Btable Adress*/
 197:Drivers/STM32F0xx_HAL_Driver/Src/stm32f0xx_hal_pcd.c ****  hpcd->Instance->BTABLE = BTABLE_ADDRESS;
 198:Drivers/STM32F0xx_HAL_Driver/Src/stm32f0xx_hal_pcd.c ****   
 199:Drivers/STM32F0xx_HAL_Driver/Src/stm32f0xx_hal_pcd.c ****   /*set wInterrupt_Mask global variable*/
 200:Drivers/STM32F0xx_HAL_Driver/Src/stm32f0xx_hal_pcd.c ****  wInterrupt_Mask = USB_CNTR_CTRM  | USB_CNTR_WKUPM | USB_CNTR_SUSPM | USB_CNTR_ERRM \
 201:Drivers/STM32F0xx_HAL_Driver/Src/stm32f0xx_hal_pcd.c ****    | USB_CNTR_SOFM | USB_CNTR_ESOFM | USB_CNTR_RESETM;
 202:Drivers/STM32F0xx_HAL_Driver/Src/stm32f0xx_hal_pcd.c ****   
 203:Drivers/STM32F0xx_HAL_Driver/Src/stm32f0xx_hal_pcd.c ****   /*Set interrupt mask*/
 204:Drivers/STM32F0xx_HAL_Driver/Src/stm32f0xx_hal_pcd.c ****   hpcd->Instance->CNTR = wInterrupt_Mask;
ARM GAS  /tmp/ccMLnPi5.s 			page 5


 205:Drivers/STM32F0xx_HAL_Driver/Src/stm32f0xx_hal_pcd.c ****   
 206:Drivers/STM32F0xx_HAL_Driver/Src/stm32f0xx_hal_pcd.c ****   hpcd->USB_Address = 0U;
 207:Drivers/STM32F0xx_HAL_Driver/Src/stm32f0xx_hal_pcd.c ****   hpcd->State= HAL_PCD_STATE_READY;
 208:Drivers/STM32F0xx_HAL_Driver/Src/stm32f0xx_hal_pcd.c **** 
 209:Drivers/STM32F0xx_HAL_Driver/Src/stm32f0xx_hal_pcd.c ****  return HAL_OK;
 210:Drivers/STM32F0xx_HAL_Driver/Src/stm32f0xx_hal_pcd.c **** }
 211:Drivers/STM32F0xx_HAL_Driver/Src/stm32f0xx_hal_pcd.c **** 
 212:Drivers/STM32F0xx_HAL_Driver/Src/stm32f0xx_hal_pcd.c **** /**
 213:Drivers/STM32F0xx_HAL_Driver/Src/stm32f0xx_hal_pcd.c ****   * @brief  DeInitializes the PCD peripheral 
 214:Drivers/STM32F0xx_HAL_Driver/Src/stm32f0xx_hal_pcd.c ****   * @param  hpcd PCD handle
 215:Drivers/STM32F0xx_HAL_Driver/Src/stm32f0xx_hal_pcd.c ****   * @retval HAL status
 216:Drivers/STM32F0xx_HAL_Driver/Src/stm32f0xx_hal_pcd.c ****   */
 217:Drivers/STM32F0xx_HAL_Driver/Src/stm32f0xx_hal_pcd.c **** HAL_StatusTypeDef HAL_PCD_DeInit(PCD_HandleTypeDef *hpcd)
 218:Drivers/STM32F0xx_HAL_Driver/Src/stm32f0xx_hal_pcd.c **** {
 219:Drivers/STM32F0xx_HAL_Driver/Src/stm32f0xx_hal_pcd.c ****   /* Check the PCD handle allocation */
 220:Drivers/STM32F0xx_HAL_Driver/Src/stm32f0xx_hal_pcd.c ****   if(hpcd == NULL)
 221:Drivers/STM32F0xx_HAL_Driver/Src/stm32f0xx_hal_pcd.c ****   {
 222:Drivers/STM32F0xx_HAL_Driver/Src/stm32f0xx_hal_pcd.c ****     return HAL_ERROR;
 223:Drivers/STM32F0xx_HAL_Driver/Src/stm32f0xx_hal_pcd.c ****   }
 224:Drivers/STM32F0xx_HAL_Driver/Src/stm32f0xx_hal_pcd.c **** 
 225:Drivers/STM32F0xx_HAL_Driver/Src/stm32f0xx_hal_pcd.c ****   hpcd->State = HAL_PCD_STATE_BUSY;
 226:Drivers/STM32F0xx_HAL_Driver/Src/stm32f0xx_hal_pcd.c ****   
 227:Drivers/STM32F0xx_HAL_Driver/Src/stm32f0xx_hal_pcd.c ****   /* Stop Device */
 228:Drivers/STM32F0xx_HAL_Driver/Src/stm32f0xx_hal_pcd.c ****   HAL_PCD_Stop(hpcd);
 229:Drivers/STM32F0xx_HAL_Driver/Src/stm32f0xx_hal_pcd.c ****     
 230:Drivers/STM32F0xx_HAL_Driver/Src/stm32f0xx_hal_pcd.c ****   /* DeInit the low level hardware */
 231:Drivers/STM32F0xx_HAL_Driver/Src/stm32f0xx_hal_pcd.c ****   HAL_PCD_MspDeInit(hpcd);
 232:Drivers/STM32F0xx_HAL_Driver/Src/stm32f0xx_hal_pcd.c ****   
 233:Drivers/STM32F0xx_HAL_Driver/Src/stm32f0xx_hal_pcd.c ****   hpcd->State = HAL_PCD_STATE_RESET; 
 234:Drivers/STM32F0xx_HAL_Driver/Src/stm32f0xx_hal_pcd.c ****   
 235:Drivers/STM32F0xx_HAL_Driver/Src/stm32f0xx_hal_pcd.c ****   return HAL_OK;
 236:Drivers/STM32F0xx_HAL_Driver/Src/stm32f0xx_hal_pcd.c **** }
 237:Drivers/STM32F0xx_HAL_Driver/Src/stm32f0xx_hal_pcd.c **** 
 238:Drivers/STM32F0xx_HAL_Driver/Src/stm32f0xx_hal_pcd.c **** /**
 239:Drivers/STM32F0xx_HAL_Driver/Src/stm32f0xx_hal_pcd.c ****   * @brief  Initializes the PCD MSP.
 240:Drivers/STM32F0xx_HAL_Driver/Src/stm32f0xx_hal_pcd.c ****   * @param  hpcd PCD handle
 241:Drivers/STM32F0xx_HAL_Driver/Src/stm32f0xx_hal_pcd.c ****   * @retval None
 242:Drivers/STM32F0xx_HAL_Driver/Src/stm32f0xx_hal_pcd.c ****   */
 243:Drivers/STM32F0xx_HAL_Driver/Src/stm32f0xx_hal_pcd.c **** __weak void HAL_PCD_MspInit(PCD_HandleTypeDef *hpcd)
 244:Drivers/STM32F0xx_HAL_Driver/Src/stm32f0xx_hal_pcd.c **** {
  26              		.loc 1 244 0
  27              		.cfi_startproc
  28              		@ args = 0, pretend = 0, frame = 0
  29              		@ frame_needed = 0, uses_anonymous_args = 0
  30              		@ link register save eliminated.
  31              	.LVL0:
 245:Drivers/STM32F0xx_HAL_Driver/Src/stm32f0xx_hal_pcd.c ****   /* Prevent unused argument(s) compilation warning */
 246:Drivers/STM32F0xx_HAL_Driver/Src/stm32f0xx_hal_pcd.c ****   UNUSED(hpcd);
 247:Drivers/STM32F0xx_HAL_Driver/Src/stm32f0xx_hal_pcd.c **** 
 248:Drivers/STM32F0xx_HAL_Driver/Src/stm32f0xx_hal_pcd.c ****   /* NOTE : This function Should not be modified, when the callback is needed,
 249:Drivers/STM32F0xx_HAL_Driver/Src/stm32f0xx_hal_pcd.c ****             the HAL_PCD_MspInit could be implemented in the user file
 250:Drivers/STM32F0xx_HAL_Driver/Src/stm32f0xx_hal_pcd.c ****    */
 251:Drivers/STM32F0xx_HAL_Driver/Src/stm32f0xx_hal_pcd.c **** }
  32              		.loc 1 251 0
  33              		@ sp needed
  34 0000 7047     		bx	lr
  35              		.cfi_endproc
ARM GAS  /tmp/ccMLnPi5.s 			page 6


  36              	.LFE39:
  38              		.section	.text.HAL_PCD_Init,"ax",%progbits
  39              		.align	1
  40              		.global	HAL_PCD_Init
  41              		.syntax unified
  42              		.code	16
  43              		.thumb_func
  44              		.fpu softvfp
  46              	HAL_PCD_Init:
  47              	.LFB37:
 137:Drivers/STM32F0xx_HAL_Driver/Src/stm32f0xx_hal_pcd.c ****   uint32_t i = 0U;
  48              		.loc 1 137 0
  49              		.cfi_startproc
  50              		@ args = 0, pretend = 0, frame = 0
  51              		@ frame_needed = 0, uses_anonymous_args = 0
  52              	.LVL1:
  53 0000 70B5     		push	{r4, r5, r6, lr}
  54              	.LCFI0:
  55              		.cfi_def_cfa_offset 16
  56              		.cfi_offset 4, -16
  57              		.cfi_offset 5, -12
  58              		.cfi_offset 6, -8
  59              		.cfi_offset 14, -4
  60 0002 041E     		subs	r4, r0, #0
  61              	.LVL2:
 143:Drivers/STM32F0xx_HAL_Driver/Src/stm32f0xx_hal_pcd.c ****   {
  62              		.loc 1 143 0
  63 0004 58D0     		beq	.L9
 151:Drivers/STM32F0xx_HAL_Driver/Src/stm32f0xx_hal_pcd.c ****   {  
  64              		.loc 1 151 0
  65 0006 EA23     		movs	r3, #234
  66 0008 FF33     		adds	r3, r3, #255
  67 000a C35C     		ldrb	r3, [r0, r3]
  68 000c 002B     		cmp	r3, #0
  69 000e 05D0     		beq	.L10
  70              	.LVL3:
  71              	.L4:
 160:Drivers/STM32F0xx_HAL_Driver/Src/stm32f0xx_hal_pcd.c ****  
  72              		.loc 1 160 0
  73 0010 EA23     		movs	r3, #234
  74 0012 FF33     		adds	r3, r3, #255
  75 0014 0322     		movs	r2, #3
  76 0016 E254     		strb	r2, [r4, r3]
 163:Drivers/STM32F0xx_HAL_Driver/Src/stm32f0xx_hal_pcd.c ****  {
  77              		.loc 1 163 0
  78 0018 0022     		movs	r2, #0
  79 001a 18E0     		b	.L5
  80              	.LVL4:
  81              	.L10:
 154:Drivers/STM32F0xx_HAL_Driver/Src/stm32f0xx_hal_pcd.c ****   
  82              		.loc 1 154 0
  83 001c E933     		adds	r3, r3, #233
  84 001e FF33     		adds	r3, r3, #255
  85 0020 0022     		movs	r2, #0
  86 0022 C254     		strb	r2, [r0, r3]
 157:Drivers/STM32F0xx_HAL_Driver/Src/stm32f0xx_hal_pcd.c ****   }
  87              		.loc 1 157 0
ARM GAS  /tmp/ccMLnPi5.s 			page 7


  88 0024 FFF7FEFF 		bl	HAL_PCD_MspInit
  89              	.LVL5:
  90 0028 F2E7     		b	.L4
  91              	.LVL6:
  92              	.L6:
 166:Drivers/STM32F0xx_HAL_Driver/Src/stm32f0xx_hal_pcd.c ****    hpcd->IN_ep[i].num = i;
  93              		.loc 1 166 0 discriminator 3
  94 002a D100     		lsls	r1, r2, #3
  95 002c 891A     		subs	r1, r1, r2
  96 002e 8B00     		lsls	r3, r1, #2
  97 0030 E318     		adds	r3, r4, r3
  98 0032 1900     		movs	r1, r3
  99 0034 2931     		adds	r1, r1, #41
 100 0036 0120     		movs	r0, #1
 101 0038 0870     		strb	r0, [r1]
 167:Drivers/STM32F0xx_HAL_Driver/Src/stm32f0xx_hal_pcd.c ****    /* Control until ep is actvated */
 102              		.loc 1 167 0 discriminator 3
 103 003a 0139     		subs	r1, r1, #1
 104 003c 0A70     		strb	r2, [r1]
 169:Drivers/STM32F0xx_HAL_Driver/Src/stm32f0xx_hal_pcd.c ****    hpcd->IN_ep[i].maxpacket =  0U;
 105              		.loc 1 169 0 discriminator 3
 106 003e 1800     		movs	r0, r3
 107 0040 2B30     		adds	r0, r0, #43
 108 0042 0021     		movs	r1, #0
 109 0044 0170     		strb	r1, [r0]
 170:Drivers/STM32F0xx_HAL_Driver/Src/stm32f0xx_hal_pcd.c ****    hpcd->IN_ep[i].xfer_buff = 0U;
 110              		.loc 1 170 0 discriminator 3
 111 0046 5963     		str	r1, [r3, #52]
 171:Drivers/STM32F0xx_HAL_Driver/Src/stm32f0xx_hal_pcd.c ****    hpcd->IN_ep[i].xfer_len = 0U;
 112              		.loc 1 171 0 discriminator 3
 113 0048 9963     		str	r1, [r3, #56]
 172:Drivers/STM32F0xx_HAL_Driver/Src/stm32f0xx_hal_pcd.c ****  }
 114              		.loc 1 172 0 discriminator 3
 115 004a D963     		str	r1, [r3, #60]
 163:Drivers/STM32F0xx_HAL_Driver/Src/stm32f0xx_hal_pcd.c ****  {
 116              		.loc 1 163 0 discriminator 3
 117 004c 0132     		adds	r2, r2, #1
 118              	.LVL7:
 119              	.L5:
 163:Drivers/STM32F0xx_HAL_Driver/Src/stm32f0xx_hal_pcd.c ****  {
 120              		.loc 1 163 0 is_stmt 0 discriminator 1
 121 004e 6068     		ldr	r0, [r4, #4]
 122 0050 9042     		cmp	r0, r2
 123 0052 EAD8     		bhi	.L6
 175:Drivers/STM32F0xx_HAL_Driver/Src/stm32f0xx_hal_pcd.c ****  {
 124              		.loc 1 175 0 is_stmt 1
 125 0054 0022     		movs	r2, #0
 126              	.LVL8:
 127 0056 14E0     		b	.L7
 128              	.LVL9:
 129              	.L8:
 177:Drivers/STM32F0xx_HAL_Driver/Src/stm32f0xx_hal_pcd.c ****    hpcd->OUT_ep[i].num = i;
 130              		.loc 1 177 0 discriminator 3
 131 0058 D100     		lsls	r1, r2, #3
 132 005a 891A     		subs	r1, r1, r2
 133 005c 8B00     		lsls	r3, r1, #2
 134 005e E318     		adds	r3, r4, r3
ARM GAS  /tmp/ccMLnPi5.s 			page 8


 135 0060 1D00     		movs	r5, r3
 136 0062 0A35     		adds	r5, r5, #10
 137 0064 FF35     		adds	r5, r5, #255
 138 0066 0021     		movs	r1, #0
 139 0068 2970     		strb	r1, [r5]
 178:Drivers/STM32F0xx_HAL_Driver/Src/stm32f0xx_hal_pcd.c ****    /* Control until ep is activated */
 140              		.loc 1 178 0 discriminator 3
 141 006a 013D     		subs	r5, r5, #1
 142 006c 2A70     		strb	r2, [r5]
 180:Drivers/STM32F0xx_HAL_Driver/Src/stm32f0xx_hal_pcd.c ****    hpcd->OUT_ep[i].maxpacket = 0U;
 143              		.loc 1 180 0 discriminator 3
 144 006e 0335     		adds	r5, r5, #3
 145 0070 2970     		strb	r1, [r5]
 181:Drivers/STM32F0xx_HAL_Driver/Src/stm32f0xx_hal_pcd.c ****    hpcd->OUT_ep[i].xfer_buff = 0U;
 146              		.loc 1 181 0 discriminator 3
 147 0072 0935     		adds	r5, r5, #9
 148 0074 2960     		str	r1, [r5]
 182:Drivers/STM32F0xx_HAL_Driver/Src/stm32f0xx_hal_pcd.c ****    hpcd->OUT_ep[i].xfer_len = 0U;
 149              		.loc 1 182 0 discriminator 3
 150 0076 0435     		adds	r5, r5, #4
 151 0078 2960     		str	r1, [r5]
 183:Drivers/STM32F0xx_HAL_Driver/Src/stm32f0xx_hal_pcd.c ****  }
 152              		.loc 1 183 0 discriminator 3
 153 007a 1D33     		adds	r3, r3, #29
 154 007c FF33     		adds	r3, r3, #255
 155 007e 1960     		str	r1, [r3]
 175:Drivers/STM32F0xx_HAL_Driver/Src/stm32f0xx_hal_pcd.c ****  {
 156              		.loc 1 175 0 discriminator 3
 157 0080 0132     		adds	r2, r2, #1
 158              	.LVL10:
 159              	.L7:
 175:Drivers/STM32F0xx_HAL_Driver/Src/stm32f0xx_hal_pcd.c ****  {
 160              		.loc 1 175 0 is_stmt 0 discriminator 1
 161 0082 9042     		cmp	r0, r2
 162 0084 E8D8     		bhi	.L8
 188:Drivers/STM32F0xx_HAL_Driver/Src/stm32f0xx_hal_pcd.c ****  
 163              		.loc 1 188 0 is_stmt 1
 164 0086 4023     		movs	r3, #64
 165 0088 0122     		movs	r2, #1
 166              	.LVL11:
 167 008a 2168     		ldr	r1, [r4]
 168 008c CA52     		strh	r2, [r1, r3]
 191:Drivers/STM32F0xx_HAL_Driver/Src/stm32f0xx_hal_pcd.c ****  
 169              		.loc 1 191 0
 170 008e 0022     		movs	r2, #0
 171 0090 2168     		ldr	r1, [r4]
 172 0092 CA52     		strh	r2, [r1, r3]
 194:Drivers/STM32F0xx_HAL_Driver/Src/stm32f0xx_hal_pcd.c ****  
 173              		.loc 1 194 0
 174 0094 4421     		movs	r1, #68
 175 0096 2068     		ldr	r0, [r4]
 176 0098 4252     		strh	r2, [r0, r1]
 197:Drivers/STM32F0xx_HAL_Driver/Src/stm32f0xx_hal_pcd.c ****   
 177              		.loc 1 197 0
 178 009a 0C31     		adds	r1, r1, #12
 179 009c 2068     		ldr	r0, [r4]
 180 009e 4252     		strh	r2, [r0, r1]
ARM GAS  /tmp/ccMLnPi5.s 			page 9


 181              	.LVL12:
 204:Drivers/STM32F0xx_HAL_Driver/Src/stm32f0xx_hal_pcd.c ****   
 182              		.loc 1 204 0
 183 00a0 064A     		ldr	r2, .L11
 184 00a2 2168     		ldr	r1, [r4]
 185 00a4 CA52     		strh	r2, [r1, r3]
 206:Drivers/STM32F0xx_HAL_Driver/Src/stm32f0xx_hal_pcd.c ****   hpcd->State= HAL_PCD_STATE_READY;
 186              		.loc 1 206 0
 187 00a6 0022     		movs	r2, #0
 188 00a8 1C3B     		subs	r3, r3, #28
 189 00aa E254     		strb	r2, [r4, r3]
 207:Drivers/STM32F0xx_HAL_Driver/Src/stm32f0xx_hal_pcd.c **** 
 190              		.loc 1 207 0
 191 00ac 0122     		movs	r2, #1
 192 00ae EA23     		movs	r3, #234
 193 00b0 FF33     		adds	r3, r3, #255
 194 00b2 E254     		strb	r2, [r4, r3]
 209:Drivers/STM32F0xx_HAL_Driver/Src/stm32f0xx_hal_pcd.c **** }
 195              		.loc 1 209 0
 196 00b4 0020     		movs	r0, #0
 197              	.LVL13:
 198              	.L3:
 210:Drivers/STM32F0xx_HAL_Driver/Src/stm32f0xx_hal_pcd.c **** 
 199              		.loc 1 210 0
 200              		@ sp needed
 201              	.LVL14:
 202 00b6 70BD     		pop	{r4, r5, r6, pc}
 203              	.LVL15:
 204              	.L9:
 145:Drivers/STM32F0xx_HAL_Driver/Src/stm32f0xx_hal_pcd.c ****   }
 205              		.loc 1 145 0
 206 00b8 0120     		movs	r0, #1
 207              	.LVL16:
 208 00ba FCE7     		b	.L3
 209              	.L12:
 210              		.align	2
 211              	.L11:
 212 00bc 00BFFFFF 		.word	-16640
 213              		.cfi_endproc
 214              	.LFE37:
 216              		.section	.text.HAL_PCD_MspDeInit,"ax",%progbits
 217              		.align	1
 218              		.weak	HAL_PCD_MspDeInit
 219              		.syntax unified
 220              		.code	16
 221              		.thumb_func
 222              		.fpu softvfp
 224              	HAL_PCD_MspDeInit:
 225              	.LFB40:
 252:Drivers/STM32F0xx_HAL_Driver/Src/stm32f0xx_hal_pcd.c **** 
 253:Drivers/STM32F0xx_HAL_Driver/Src/stm32f0xx_hal_pcd.c **** /**
 254:Drivers/STM32F0xx_HAL_Driver/Src/stm32f0xx_hal_pcd.c ****   * @brief  DeInitializes PCD MSP.
 255:Drivers/STM32F0xx_HAL_Driver/Src/stm32f0xx_hal_pcd.c ****   * @param  hpcd PCD handle
 256:Drivers/STM32F0xx_HAL_Driver/Src/stm32f0xx_hal_pcd.c ****   * @retval None
 257:Drivers/STM32F0xx_HAL_Driver/Src/stm32f0xx_hal_pcd.c ****   */
 258:Drivers/STM32F0xx_HAL_Driver/Src/stm32f0xx_hal_pcd.c **** __weak void HAL_PCD_MspDeInit(PCD_HandleTypeDef *hpcd)
 259:Drivers/STM32F0xx_HAL_Driver/Src/stm32f0xx_hal_pcd.c **** {
ARM GAS  /tmp/ccMLnPi5.s 			page 10


 226              		.loc 1 259 0
 227              		.cfi_startproc
 228              		@ args = 0, pretend = 0, frame = 0
 229              		@ frame_needed = 0, uses_anonymous_args = 0
 230              		@ link register save eliminated.
 231              	.LVL17:
 260:Drivers/STM32F0xx_HAL_Driver/Src/stm32f0xx_hal_pcd.c ****   /* Prevent unused argument(s) compilation warning */
 261:Drivers/STM32F0xx_HAL_Driver/Src/stm32f0xx_hal_pcd.c ****   UNUSED(hpcd);
 262:Drivers/STM32F0xx_HAL_Driver/Src/stm32f0xx_hal_pcd.c **** 
 263:Drivers/STM32F0xx_HAL_Driver/Src/stm32f0xx_hal_pcd.c ****   /* NOTE : This function Should not be modified, when the callback is needed,
 264:Drivers/STM32F0xx_HAL_Driver/Src/stm32f0xx_hal_pcd.c ****             the HAL_PCD_MspDeInit could be implemented in the user file
 265:Drivers/STM32F0xx_HAL_Driver/Src/stm32f0xx_hal_pcd.c ****    */
 266:Drivers/STM32F0xx_HAL_Driver/Src/stm32f0xx_hal_pcd.c **** }
 232              		.loc 1 266 0
 233              		@ sp needed
 234 0000 7047     		bx	lr
 235              		.cfi_endproc
 236              	.LFE40:
 238              		.section	.text.HAL_PCD_Start,"ax",%progbits
 239              		.align	1
 240              		.global	HAL_PCD_Start
 241              		.syntax unified
 242              		.code	16
 243              		.thumb_func
 244              		.fpu softvfp
 246              	HAL_PCD_Start:
 247              	.LFB41:
 267:Drivers/STM32F0xx_HAL_Driver/Src/stm32f0xx_hal_pcd.c **** 
 268:Drivers/STM32F0xx_HAL_Driver/Src/stm32f0xx_hal_pcd.c **** /**
 269:Drivers/STM32F0xx_HAL_Driver/Src/stm32f0xx_hal_pcd.c ****   * @}
 270:Drivers/STM32F0xx_HAL_Driver/Src/stm32f0xx_hal_pcd.c ****   */
 271:Drivers/STM32F0xx_HAL_Driver/Src/stm32f0xx_hal_pcd.c **** 
 272:Drivers/STM32F0xx_HAL_Driver/Src/stm32f0xx_hal_pcd.c **** /** @defgroup PCD_Exported_Functions_Group2 IO operation functions 
 273:Drivers/STM32F0xx_HAL_Driver/Src/stm32f0xx_hal_pcd.c ****  *  @brief   Data transfers functions 
 274:Drivers/STM32F0xx_HAL_Driver/Src/stm32f0xx_hal_pcd.c ****  *
 275:Drivers/STM32F0xx_HAL_Driver/Src/stm32f0xx_hal_pcd.c **** @verbatim   
 276:Drivers/STM32F0xx_HAL_Driver/Src/stm32f0xx_hal_pcd.c ****  ===============================================================================
 277:Drivers/STM32F0xx_HAL_Driver/Src/stm32f0xx_hal_pcd.c ****                       ##### IO operation functions #####
 278:Drivers/STM32F0xx_HAL_Driver/Src/stm32f0xx_hal_pcd.c ****  ===============================================================================  
 279:Drivers/STM32F0xx_HAL_Driver/Src/stm32f0xx_hal_pcd.c ****     [..]
 280:Drivers/STM32F0xx_HAL_Driver/Src/stm32f0xx_hal_pcd.c ****     This subsection provides a set of functions allowing to manage the PCD data 
 281:Drivers/STM32F0xx_HAL_Driver/Src/stm32f0xx_hal_pcd.c ****     transfers.
 282:Drivers/STM32F0xx_HAL_Driver/Src/stm32f0xx_hal_pcd.c **** 
 283:Drivers/STM32F0xx_HAL_Driver/Src/stm32f0xx_hal_pcd.c **** @endverbatim
 284:Drivers/STM32F0xx_HAL_Driver/Src/stm32f0xx_hal_pcd.c ****   * @{
 285:Drivers/STM32F0xx_HAL_Driver/Src/stm32f0xx_hal_pcd.c ****   */
 286:Drivers/STM32F0xx_HAL_Driver/Src/stm32f0xx_hal_pcd.c ****   
 287:Drivers/STM32F0xx_HAL_Driver/Src/stm32f0xx_hal_pcd.c **** /**
 288:Drivers/STM32F0xx_HAL_Driver/Src/stm32f0xx_hal_pcd.c ****   * @brief  Start the USB device.
 289:Drivers/STM32F0xx_HAL_Driver/Src/stm32f0xx_hal_pcd.c ****   * @param  hpcd PCD handle
 290:Drivers/STM32F0xx_HAL_Driver/Src/stm32f0xx_hal_pcd.c ****   * @retval HAL status
 291:Drivers/STM32F0xx_HAL_Driver/Src/stm32f0xx_hal_pcd.c ****   */
 292:Drivers/STM32F0xx_HAL_Driver/Src/stm32f0xx_hal_pcd.c **** HAL_StatusTypeDef HAL_PCD_Start(PCD_HandleTypeDef *hpcd)
 293:Drivers/STM32F0xx_HAL_Driver/Src/stm32f0xx_hal_pcd.c **** { 
 248              		.loc 1 293 0
 249              		.cfi_startproc
 250              		@ args = 0, pretend = 0, frame = 0
ARM GAS  /tmp/ccMLnPi5.s 			page 11


 251              		@ frame_needed = 0, uses_anonymous_args = 0
 252              		@ link register save eliminated.
 253              	.LVL18:
 294:Drivers/STM32F0xx_HAL_Driver/Src/stm32f0xx_hal_pcd.c ****   /* Enabling DP Pull-Down bit to Connect internal pull-up on USB DP line */
 295:Drivers/STM32F0xx_HAL_Driver/Src/stm32f0xx_hal_pcd.c ****   hpcd->Instance->BCDR |= USB_BCDR_DPPU;
 254              		.loc 1 295 0
 255 0000 0168     		ldr	r1, [r0]
 256 0002 5822     		movs	r2, #88
 257 0004 8B5A     		ldrh	r3, [r1, r2]
 258 0006 0348     		ldr	r0, .L15
 259              	.LVL19:
 260 0008 0343     		orrs	r3, r0
 261 000a 9BB2     		uxth	r3, r3
 262 000c 8B52     		strh	r3, [r1, r2]
 296:Drivers/STM32F0xx_HAL_Driver/Src/stm32f0xx_hal_pcd.c ****   
 297:Drivers/STM32F0xx_HAL_Driver/Src/stm32f0xx_hal_pcd.c ****   return HAL_OK;
 298:Drivers/STM32F0xx_HAL_Driver/Src/stm32f0xx_hal_pcd.c **** }
 263              		.loc 1 298 0
 264 000e 0020     		movs	r0, #0
 265              		@ sp needed
 266 0010 7047     		bx	lr
 267              	.L16:
 268 0012 C046     		.align	2
 269              	.L15:
 270 0014 0080FFFF 		.word	-32768
 271              		.cfi_endproc
 272              	.LFE41:
 274              		.section	.text.HAL_PCD_Stop,"ax",%progbits
 275              		.align	1
 276              		.global	HAL_PCD_Stop
 277              		.syntax unified
 278              		.code	16
 279              		.thumb_func
 280              		.fpu softvfp
 282              	HAL_PCD_Stop:
 283              	.LFB42:
 299:Drivers/STM32F0xx_HAL_Driver/Src/stm32f0xx_hal_pcd.c **** 
 300:Drivers/STM32F0xx_HAL_Driver/Src/stm32f0xx_hal_pcd.c **** /**
 301:Drivers/STM32F0xx_HAL_Driver/Src/stm32f0xx_hal_pcd.c ****   * @brief  Stop the USB device.
 302:Drivers/STM32F0xx_HAL_Driver/Src/stm32f0xx_hal_pcd.c ****   * @param  hpcd PCD handle
 303:Drivers/STM32F0xx_HAL_Driver/Src/stm32f0xx_hal_pcd.c ****   * @retval HAL status
 304:Drivers/STM32F0xx_HAL_Driver/Src/stm32f0xx_hal_pcd.c ****   */
 305:Drivers/STM32F0xx_HAL_Driver/Src/stm32f0xx_hal_pcd.c **** HAL_StatusTypeDef HAL_PCD_Stop(PCD_HandleTypeDef *hpcd)
 306:Drivers/STM32F0xx_HAL_Driver/Src/stm32f0xx_hal_pcd.c **** { 
 284              		.loc 1 306 0
 285              		.cfi_startproc
 286              		@ args = 0, pretend = 0, frame = 0
 287              		@ frame_needed = 0, uses_anonymous_args = 0
 288              	.LVL20:
 289 0000 10B5     		push	{r4, lr}
 290              	.LCFI1:
 291              		.cfi_def_cfa_offset 8
 292              		.cfi_offset 4, -8
 293              		.cfi_offset 14, -4
 307:Drivers/STM32F0xx_HAL_Driver/Src/stm32f0xx_hal_pcd.c ****   __HAL_LOCK(hpcd); 
 294              		.loc 1 307 0
 295 0002 F423     		movs	r3, #244
ARM GAS  /tmp/ccMLnPi5.s 			page 12


 296 0004 5B00     		lsls	r3, r3, #1
 297 0006 C35C     		ldrb	r3, [r0, r3]
 298 0008 012B     		cmp	r3, #1
 299 000a 10D0     		beq	.L19
 308:Drivers/STM32F0xx_HAL_Driver/Src/stm32f0xx_hal_pcd.c ****   
 309:Drivers/STM32F0xx_HAL_Driver/Src/stm32f0xx_hal_pcd.c ****     /* disable all interrupts and force USB reset */
 310:Drivers/STM32F0xx_HAL_Driver/Src/stm32f0xx_hal_pcd.c ****   hpcd->Instance->CNTR = USB_CNTR_FRES;
 300              		.loc 1 310 0 discriminator 2
 301 000c 4023     		movs	r3, #64
 302 000e 0122     		movs	r2, #1
 303 0010 0168     		ldr	r1, [r0]
 304 0012 CA52     		strh	r2, [r1, r3]
 311:Drivers/STM32F0xx_HAL_Driver/Src/stm32f0xx_hal_pcd.c ****   
 312:Drivers/STM32F0xx_HAL_Driver/Src/stm32f0xx_hal_pcd.c ****   /* clear interrupt status register */
 313:Drivers/STM32F0xx_HAL_Driver/Src/stm32f0xx_hal_pcd.c ****   hpcd->Instance->ISTR = 0;
 305              		.loc 1 313 0 discriminator 2
 306 0014 4332     		adds	r2, r2, #67
 307 0016 0021     		movs	r1, #0
 308 0018 0468     		ldr	r4, [r0]
 309 001a A152     		strh	r1, [r4, r2]
 314:Drivers/STM32F0xx_HAL_Driver/Src/stm32f0xx_hal_pcd.c ****   
 315:Drivers/STM32F0xx_HAL_Driver/Src/stm32f0xx_hal_pcd.c ****   /* switch-off device */
 316:Drivers/STM32F0xx_HAL_Driver/Src/stm32f0xx_hal_pcd.c ****   hpcd->Instance->CNTR = (USB_CNTR_FRES | USB_CNTR_PDWN);
 310              		.loc 1 316 0 discriminator 2
 311 001c 413A     		subs	r2, r2, #65
 312 001e 0168     		ldr	r1, [r0]
 313 0020 CA52     		strh	r2, [r1, r3]
 317:Drivers/STM32F0xx_HAL_Driver/Src/stm32f0xx_hal_pcd.c ****   
 318:Drivers/STM32F0xx_HAL_Driver/Src/stm32f0xx_hal_pcd.c ****   __HAL_UNLOCK(hpcd); 
 314              		.loc 1 318 0 discriminator 2
 315 0022 0022     		movs	r2, #0
 316 0024 A933     		adds	r3, r3, #169
 317 0026 FF33     		adds	r3, r3, #255
 318 0028 C254     		strb	r2, [r0, r3]
 319:Drivers/STM32F0xx_HAL_Driver/Src/stm32f0xx_hal_pcd.c ****   return HAL_OK;
 319              		.loc 1 319 0 discriminator 2
 320 002a 0020     		movs	r0, #0
 321              	.LVL21:
 322              	.L18:
 320:Drivers/STM32F0xx_HAL_Driver/Src/stm32f0xx_hal_pcd.c **** }
 323              		.loc 1 320 0
 324              		@ sp needed
 325 002c 10BD     		pop	{r4, pc}
 326              	.LVL22:
 327              	.L19:
 307:Drivers/STM32F0xx_HAL_Driver/Src/stm32f0xx_hal_pcd.c ****   
 328              		.loc 1 307 0
 329 002e 0220     		movs	r0, #2
 330              	.LVL23:
 331 0030 FCE7     		b	.L18
 332              		.cfi_endproc
 333              	.LFE42:
 335              		.section	.text.HAL_PCD_DeInit,"ax",%progbits
 336              		.align	1
 337              		.global	HAL_PCD_DeInit
 338              		.syntax unified
 339              		.code	16
ARM GAS  /tmp/ccMLnPi5.s 			page 13


 340              		.thumb_func
 341              		.fpu softvfp
 343              	HAL_PCD_DeInit:
 344              	.LFB38:
 218:Drivers/STM32F0xx_HAL_Driver/Src/stm32f0xx_hal_pcd.c ****   /* Check the PCD handle allocation */
 345              		.loc 1 218 0
 346              		.cfi_startproc
 347              		@ args = 0, pretend = 0, frame = 0
 348              		@ frame_needed = 0, uses_anonymous_args = 0
 349              	.LVL24:
 350 0000 70B5     		push	{r4, r5, r6, lr}
 351              	.LCFI2:
 352              		.cfi_def_cfa_offset 16
 353              		.cfi_offset 4, -16
 354              		.cfi_offset 5, -12
 355              		.cfi_offset 6, -8
 356              		.cfi_offset 14, -4
 357 0002 041E     		subs	r4, r0, #0
 220:Drivers/STM32F0xx_HAL_Driver/Src/stm32f0xx_hal_pcd.c ****   {
 358              		.loc 1 220 0
 359 0004 0CD0     		beq	.L22
 225:Drivers/STM32F0xx_HAL_Driver/Src/stm32f0xx_hal_pcd.c ****   
 360              		.loc 1 225 0
 361 0006 EA25     		movs	r5, #234
 362 0008 FF35     		adds	r5, r5, #255
 363 000a 0323     		movs	r3, #3
 364 000c 4355     		strb	r3, [r0, r5]
 228:Drivers/STM32F0xx_HAL_Driver/Src/stm32f0xx_hal_pcd.c ****     
 365              		.loc 1 228 0
 366 000e FFF7FEFF 		bl	HAL_PCD_Stop
 367              	.LVL25:
 231:Drivers/STM32F0xx_HAL_Driver/Src/stm32f0xx_hal_pcd.c ****   
 368              		.loc 1 231 0
 369 0012 2000     		movs	r0, r4
 370 0014 FFF7FEFF 		bl	HAL_PCD_MspDeInit
 371              	.LVL26:
 233:Drivers/STM32F0xx_HAL_Driver/Src/stm32f0xx_hal_pcd.c ****   
 372              		.loc 1 233 0
 373 0018 0023     		movs	r3, #0
 374 001a 6355     		strb	r3, [r4, r5]
 235:Drivers/STM32F0xx_HAL_Driver/Src/stm32f0xx_hal_pcd.c **** }
 375              		.loc 1 235 0
 376 001c 0020     		movs	r0, #0
 377              	.L21:
 236:Drivers/STM32F0xx_HAL_Driver/Src/stm32f0xx_hal_pcd.c **** 
 378              		.loc 1 236 0
 379              		@ sp needed
 380              	.LVL27:
 381 001e 70BD     		pop	{r4, r5, r6, pc}
 382              	.LVL28:
 383              	.L22:
 222:Drivers/STM32F0xx_HAL_Driver/Src/stm32f0xx_hal_pcd.c ****   }
 384              		.loc 1 222 0
 385 0020 0120     		movs	r0, #1
 386              	.LVL29:
 387 0022 FCE7     		b	.L21
 388              		.cfi_endproc
ARM GAS  /tmp/ccMLnPi5.s 			page 14


 389              	.LFE38:
 391              		.section	.text.HAL_PCD_DataOutStageCallback,"ax",%progbits
 392              		.align	1
 393              		.weak	HAL_PCD_DataOutStageCallback
 394              		.syntax unified
 395              		.code	16
 396              		.thumb_func
 397              		.fpu softvfp
 399              	HAL_PCD_DataOutStageCallback:
 400              	.LFB44:
 321:Drivers/STM32F0xx_HAL_Driver/Src/stm32f0xx_hal_pcd.c **** 
 322:Drivers/STM32F0xx_HAL_Driver/Src/stm32f0xx_hal_pcd.c **** /**
 323:Drivers/STM32F0xx_HAL_Driver/Src/stm32f0xx_hal_pcd.c ****   * @brief  This function handles PCD interrupt request.
 324:Drivers/STM32F0xx_HAL_Driver/Src/stm32f0xx_hal_pcd.c ****   * @param  hpcd PCD handle
 325:Drivers/STM32F0xx_HAL_Driver/Src/stm32f0xx_hal_pcd.c ****   * @retval HAL status
 326:Drivers/STM32F0xx_HAL_Driver/Src/stm32f0xx_hal_pcd.c ****   */
 327:Drivers/STM32F0xx_HAL_Driver/Src/stm32f0xx_hal_pcd.c **** void HAL_PCD_IRQHandler(PCD_HandleTypeDef *hpcd)
 328:Drivers/STM32F0xx_HAL_Driver/Src/stm32f0xx_hal_pcd.c **** {
 329:Drivers/STM32F0xx_HAL_Driver/Src/stm32f0xx_hal_pcd.c ****   uint32_t wInterrupt_Mask = 0U;
 330:Drivers/STM32F0xx_HAL_Driver/Src/stm32f0xx_hal_pcd.c ****   
 331:Drivers/STM32F0xx_HAL_Driver/Src/stm32f0xx_hal_pcd.c ****   if (__HAL_PCD_GET_FLAG (hpcd, USB_ISTR_CTR))
 332:Drivers/STM32F0xx_HAL_Driver/Src/stm32f0xx_hal_pcd.c ****   {
 333:Drivers/STM32F0xx_HAL_Driver/Src/stm32f0xx_hal_pcd.c ****     /* servicing of the endpoint correct transfer interrupt */
 334:Drivers/STM32F0xx_HAL_Driver/Src/stm32f0xx_hal_pcd.c ****     /* clear of the CTR flag into the sub */
 335:Drivers/STM32F0xx_HAL_Driver/Src/stm32f0xx_hal_pcd.c ****     PCD_EP_ISR_Handler(hpcd);
 336:Drivers/STM32F0xx_HAL_Driver/Src/stm32f0xx_hal_pcd.c ****   }
 337:Drivers/STM32F0xx_HAL_Driver/Src/stm32f0xx_hal_pcd.c **** 
 338:Drivers/STM32F0xx_HAL_Driver/Src/stm32f0xx_hal_pcd.c ****   if (__HAL_PCD_GET_FLAG (hpcd, USB_ISTR_RESET))
 339:Drivers/STM32F0xx_HAL_Driver/Src/stm32f0xx_hal_pcd.c ****   {
 340:Drivers/STM32F0xx_HAL_Driver/Src/stm32f0xx_hal_pcd.c ****     __HAL_PCD_CLEAR_FLAG(hpcd, USB_ISTR_RESET);
 341:Drivers/STM32F0xx_HAL_Driver/Src/stm32f0xx_hal_pcd.c ****     HAL_PCD_ResetCallback(hpcd);
 342:Drivers/STM32F0xx_HAL_Driver/Src/stm32f0xx_hal_pcd.c ****     HAL_PCD_SetAddress(hpcd, 0U);
 343:Drivers/STM32F0xx_HAL_Driver/Src/stm32f0xx_hal_pcd.c ****   }
 344:Drivers/STM32F0xx_HAL_Driver/Src/stm32f0xx_hal_pcd.c **** 
 345:Drivers/STM32F0xx_HAL_Driver/Src/stm32f0xx_hal_pcd.c ****   if (__HAL_PCD_GET_FLAG (hpcd, USB_ISTR_PMAOVR))
 346:Drivers/STM32F0xx_HAL_Driver/Src/stm32f0xx_hal_pcd.c ****   {
 347:Drivers/STM32F0xx_HAL_Driver/Src/stm32f0xx_hal_pcd.c ****     __HAL_PCD_CLEAR_FLAG(hpcd, USB_ISTR_PMAOVR);    
 348:Drivers/STM32F0xx_HAL_Driver/Src/stm32f0xx_hal_pcd.c ****   }
 349:Drivers/STM32F0xx_HAL_Driver/Src/stm32f0xx_hal_pcd.c **** 
 350:Drivers/STM32F0xx_HAL_Driver/Src/stm32f0xx_hal_pcd.c ****   if (__HAL_PCD_GET_FLAG (hpcd, USB_ISTR_ERR))
 351:Drivers/STM32F0xx_HAL_Driver/Src/stm32f0xx_hal_pcd.c ****   {
 352:Drivers/STM32F0xx_HAL_Driver/Src/stm32f0xx_hal_pcd.c ****     __HAL_PCD_CLEAR_FLAG(hpcd, USB_ISTR_ERR); 
 353:Drivers/STM32F0xx_HAL_Driver/Src/stm32f0xx_hal_pcd.c ****   }
 354:Drivers/STM32F0xx_HAL_Driver/Src/stm32f0xx_hal_pcd.c **** 
 355:Drivers/STM32F0xx_HAL_Driver/Src/stm32f0xx_hal_pcd.c ****   if (__HAL_PCD_GET_FLAG (hpcd, USB_ISTR_WKUP))
 356:Drivers/STM32F0xx_HAL_Driver/Src/stm32f0xx_hal_pcd.c ****   {
 357:Drivers/STM32F0xx_HAL_Driver/Src/stm32f0xx_hal_pcd.c ****     
 358:Drivers/STM32F0xx_HAL_Driver/Src/stm32f0xx_hal_pcd.c ****     hpcd->Instance->CNTR &= (uint16_t)(~(USB_CNTR_LPMODE));
 359:Drivers/STM32F0xx_HAL_Driver/Src/stm32f0xx_hal_pcd.c **** 
 360:Drivers/STM32F0xx_HAL_Driver/Src/stm32f0xx_hal_pcd.c ****     /*set wInterrupt_Mask global variable*/
 361:Drivers/STM32F0xx_HAL_Driver/Src/stm32f0xx_hal_pcd.c ****     wInterrupt_Mask = USB_CNTR_CTRM  | USB_CNTR_WKUPM | USB_CNTR_SUSPM | USB_CNTR_ERRM \
 362:Drivers/STM32F0xx_HAL_Driver/Src/stm32f0xx_hal_pcd.c ****       | USB_CNTR_ESOFM | USB_CNTR_RESETM;
 363:Drivers/STM32F0xx_HAL_Driver/Src/stm32f0xx_hal_pcd.c ****     
 364:Drivers/STM32F0xx_HAL_Driver/Src/stm32f0xx_hal_pcd.c ****     /*Set interrupt mask*/
 365:Drivers/STM32F0xx_HAL_Driver/Src/stm32f0xx_hal_pcd.c ****     hpcd->Instance->CNTR = wInterrupt_Mask;
 366:Drivers/STM32F0xx_HAL_Driver/Src/stm32f0xx_hal_pcd.c ****     
 367:Drivers/STM32F0xx_HAL_Driver/Src/stm32f0xx_hal_pcd.c ****     HAL_PCD_ResumeCallback(hpcd);
ARM GAS  /tmp/ccMLnPi5.s 			page 15


 368:Drivers/STM32F0xx_HAL_Driver/Src/stm32f0xx_hal_pcd.c ****     
 369:Drivers/STM32F0xx_HAL_Driver/Src/stm32f0xx_hal_pcd.c ****     __HAL_PCD_CLEAR_FLAG(hpcd, USB_ISTR_WKUP);     
 370:Drivers/STM32F0xx_HAL_Driver/Src/stm32f0xx_hal_pcd.c ****   }
 371:Drivers/STM32F0xx_HAL_Driver/Src/stm32f0xx_hal_pcd.c **** 
 372:Drivers/STM32F0xx_HAL_Driver/Src/stm32f0xx_hal_pcd.c ****   if (__HAL_PCD_GET_FLAG (hpcd, USB_ISTR_SUSP))
 373:Drivers/STM32F0xx_HAL_Driver/Src/stm32f0xx_hal_pcd.c ****   {    
 374:Drivers/STM32F0xx_HAL_Driver/Src/stm32f0xx_hal_pcd.c ****     /* clear of the ISTR bit must be done after setting of CNTR_FSUSP */
 375:Drivers/STM32F0xx_HAL_Driver/Src/stm32f0xx_hal_pcd.c ****     __HAL_PCD_CLEAR_FLAG(hpcd, USB_ISTR_SUSP);  
 376:Drivers/STM32F0xx_HAL_Driver/Src/stm32f0xx_hal_pcd.c ****     
 377:Drivers/STM32F0xx_HAL_Driver/Src/stm32f0xx_hal_pcd.c ****     /* Force low-power mode in the macrocell */
 378:Drivers/STM32F0xx_HAL_Driver/Src/stm32f0xx_hal_pcd.c ****     hpcd->Instance->CNTR |= USB_CNTR_FSUSP;
 379:Drivers/STM32F0xx_HAL_Driver/Src/stm32f0xx_hal_pcd.c ****     hpcd->Instance->CNTR |= USB_CNTR_LPMODE;
 380:Drivers/STM32F0xx_HAL_Driver/Src/stm32f0xx_hal_pcd.c **** 
 381:Drivers/STM32F0xx_HAL_Driver/Src/stm32f0xx_hal_pcd.c ****     if (__HAL_PCD_GET_FLAG (hpcd, USB_ISTR_WKUP) == 0)
 382:Drivers/STM32F0xx_HAL_Driver/Src/stm32f0xx_hal_pcd.c ****     {
 383:Drivers/STM32F0xx_HAL_Driver/Src/stm32f0xx_hal_pcd.c ****       HAL_PCD_SuspendCallback(hpcd);
 384:Drivers/STM32F0xx_HAL_Driver/Src/stm32f0xx_hal_pcd.c ****     }
 385:Drivers/STM32F0xx_HAL_Driver/Src/stm32f0xx_hal_pcd.c ****   }
 386:Drivers/STM32F0xx_HAL_Driver/Src/stm32f0xx_hal_pcd.c **** 
 387:Drivers/STM32F0xx_HAL_Driver/Src/stm32f0xx_hal_pcd.c ****   if (__HAL_PCD_GET_FLAG (hpcd, USB_ISTR_SOF))
 388:Drivers/STM32F0xx_HAL_Driver/Src/stm32f0xx_hal_pcd.c ****   {
 389:Drivers/STM32F0xx_HAL_Driver/Src/stm32f0xx_hal_pcd.c ****     __HAL_PCD_CLEAR_FLAG(hpcd, USB_ISTR_SOF); 
 390:Drivers/STM32F0xx_HAL_Driver/Src/stm32f0xx_hal_pcd.c ****     HAL_PCD_SOFCallback(hpcd);
 391:Drivers/STM32F0xx_HAL_Driver/Src/stm32f0xx_hal_pcd.c ****   }
 392:Drivers/STM32F0xx_HAL_Driver/Src/stm32f0xx_hal_pcd.c **** 
 393:Drivers/STM32F0xx_HAL_Driver/Src/stm32f0xx_hal_pcd.c ****   if (__HAL_PCD_GET_FLAG (hpcd, USB_ISTR_ESOF))
 394:Drivers/STM32F0xx_HAL_Driver/Src/stm32f0xx_hal_pcd.c ****   {
 395:Drivers/STM32F0xx_HAL_Driver/Src/stm32f0xx_hal_pcd.c ****     /* clear ESOF flag in ISTR */
 396:Drivers/STM32F0xx_HAL_Driver/Src/stm32f0xx_hal_pcd.c ****     __HAL_PCD_CLEAR_FLAG(hpcd, USB_ISTR_ESOF); 
 397:Drivers/STM32F0xx_HAL_Driver/Src/stm32f0xx_hal_pcd.c ****   }
 398:Drivers/STM32F0xx_HAL_Driver/Src/stm32f0xx_hal_pcd.c **** }
 399:Drivers/STM32F0xx_HAL_Driver/Src/stm32f0xx_hal_pcd.c **** 
 400:Drivers/STM32F0xx_HAL_Driver/Src/stm32f0xx_hal_pcd.c **** /**
 401:Drivers/STM32F0xx_HAL_Driver/Src/stm32f0xx_hal_pcd.c ****   * @brief  Data out stage callbacks
 402:Drivers/STM32F0xx_HAL_Driver/Src/stm32f0xx_hal_pcd.c ****   * @param  hpcd PCD handle
 403:Drivers/STM32F0xx_HAL_Driver/Src/stm32f0xx_hal_pcd.c ****   * @param  epnum endpoint number
 404:Drivers/STM32F0xx_HAL_Driver/Src/stm32f0xx_hal_pcd.c ****   * @retval None
 405:Drivers/STM32F0xx_HAL_Driver/Src/stm32f0xx_hal_pcd.c ****   */
 406:Drivers/STM32F0xx_HAL_Driver/Src/stm32f0xx_hal_pcd.c ****  __weak void HAL_PCD_DataOutStageCallback(PCD_HandleTypeDef *hpcd, uint8_t epnum)
 407:Drivers/STM32F0xx_HAL_Driver/Src/stm32f0xx_hal_pcd.c **** {
 401              		.loc 1 407 0
 402              		.cfi_startproc
 403              		@ args = 0, pretend = 0, frame = 0
 404              		@ frame_needed = 0, uses_anonymous_args = 0
 405              		@ link register save eliminated.
 406              	.LVL30:
 408:Drivers/STM32F0xx_HAL_Driver/Src/stm32f0xx_hal_pcd.c ****   /* Prevent unused argument(s) compilation warning */
 409:Drivers/STM32F0xx_HAL_Driver/Src/stm32f0xx_hal_pcd.c ****   UNUSED(hpcd);
 410:Drivers/STM32F0xx_HAL_Driver/Src/stm32f0xx_hal_pcd.c ****   UNUSED(epnum);
 411:Drivers/STM32F0xx_HAL_Driver/Src/stm32f0xx_hal_pcd.c **** 
 412:Drivers/STM32F0xx_HAL_Driver/Src/stm32f0xx_hal_pcd.c ****   /* NOTE : This function Should not be modified, when the callback is needed,
 413:Drivers/STM32F0xx_HAL_Driver/Src/stm32f0xx_hal_pcd.c ****             the HAL_PCD_DataOutStageCallback could be implemented in the user file
 414:Drivers/STM32F0xx_HAL_Driver/Src/stm32f0xx_hal_pcd.c ****    */ 
 415:Drivers/STM32F0xx_HAL_Driver/Src/stm32f0xx_hal_pcd.c **** }
 407              		.loc 1 415 0
 408              		@ sp needed
 409 0000 7047     		bx	lr
ARM GAS  /tmp/ccMLnPi5.s 			page 16


 410              		.cfi_endproc
 411              	.LFE44:
 413              		.section	.text.HAL_PCD_DataInStageCallback,"ax",%progbits
 414              		.align	1
 415              		.weak	HAL_PCD_DataInStageCallback
 416              		.syntax unified
 417              		.code	16
 418              		.thumb_func
 419              		.fpu softvfp
 421              	HAL_PCD_DataInStageCallback:
 422              	.LFB45:
 416:Drivers/STM32F0xx_HAL_Driver/Src/stm32f0xx_hal_pcd.c **** 
 417:Drivers/STM32F0xx_HAL_Driver/Src/stm32f0xx_hal_pcd.c **** /**
 418:Drivers/STM32F0xx_HAL_Driver/Src/stm32f0xx_hal_pcd.c ****   * @brief  Data IN stage callbacks
 419:Drivers/STM32F0xx_HAL_Driver/Src/stm32f0xx_hal_pcd.c ****   * @param  hpcd PCD handle
 420:Drivers/STM32F0xx_HAL_Driver/Src/stm32f0xx_hal_pcd.c ****   * @param  epnum endpoint number
 421:Drivers/STM32F0xx_HAL_Driver/Src/stm32f0xx_hal_pcd.c ****   * @retval None
 422:Drivers/STM32F0xx_HAL_Driver/Src/stm32f0xx_hal_pcd.c ****   */
 423:Drivers/STM32F0xx_HAL_Driver/Src/stm32f0xx_hal_pcd.c ****  __weak void HAL_PCD_DataInStageCallback(PCD_HandleTypeDef *hpcd, uint8_t epnum)
 424:Drivers/STM32F0xx_HAL_Driver/Src/stm32f0xx_hal_pcd.c **** {
 423              		.loc 1 424 0
 424              		.cfi_startproc
 425              		@ args = 0, pretend = 0, frame = 0
 426              		@ frame_needed = 0, uses_anonymous_args = 0
 427              		@ link register save eliminated.
 428              	.LVL31:
 425:Drivers/STM32F0xx_HAL_Driver/Src/stm32f0xx_hal_pcd.c ****   /* Prevent unused argument(s) compilation warning */
 426:Drivers/STM32F0xx_HAL_Driver/Src/stm32f0xx_hal_pcd.c ****   UNUSED(hpcd);
 427:Drivers/STM32F0xx_HAL_Driver/Src/stm32f0xx_hal_pcd.c ****   UNUSED(epnum);
 428:Drivers/STM32F0xx_HAL_Driver/Src/stm32f0xx_hal_pcd.c **** 
 429:Drivers/STM32F0xx_HAL_Driver/Src/stm32f0xx_hal_pcd.c ****   /* NOTE : This function Should not be modified, when the callback is needed,
 430:Drivers/STM32F0xx_HAL_Driver/Src/stm32f0xx_hal_pcd.c ****             the HAL_PCD_DataInStageCallback could be implemented in the user file
 431:Drivers/STM32F0xx_HAL_Driver/Src/stm32f0xx_hal_pcd.c ****    */ 
 432:Drivers/STM32F0xx_HAL_Driver/Src/stm32f0xx_hal_pcd.c **** }
 429              		.loc 1 432 0
 430              		@ sp needed
 431 0000 7047     		bx	lr
 432              		.cfi_endproc
 433              	.LFE45:
 435              		.section	.text.HAL_PCD_SetupStageCallback,"ax",%progbits
 436              		.align	1
 437              		.weak	HAL_PCD_SetupStageCallback
 438              		.syntax unified
 439              		.code	16
 440              		.thumb_func
 441              		.fpu softvfp
 443              	HAL_PCD_SetupStageCallback:
 444              	.LFB46:
 433:Drivers/STM32F0xx_HAL_Driver/Src/stm32f0xx_hal_pcd.c **** /**
 434:Drivers/STM32F0xx_HAL_Driver/Src/stm32f0xx_hal_pcd.c ****   * @brief  Setup stage callback
 435:Drivers/STM32F0xx_HAL_Driver/Src/stm32f0xx_hal_pcd.c ****   * @param  hpcd PCD handle
 436:Drivers/STM32F0xx_HAL_Driver/Src/stm32f0xx_hal_pcd.c ****   * @retval None
 437:Drivers/STM32F0xx_HAL_Driver/Src/stm32f0xx_hal_pcd.c ****   */
 438:Drivers/STM32F0xx_HAL_Driver/Src/stm32f0xx_hal_pcd.c ****  __weak void HAL_PCD_SetupStageCallback(PCD_HandleTypeDef *hpcd)
 439:Drivers/STM32F0xx_HAL_Driver/Src/stm32f0xx_hal_pcd.c **** {
 445              		.loc 1 439 0
 446              		.cfi_startproc
ARM GAS  /tmp/ccMLnPi5.s 			page 17


 447              		@ args = 0, pretend = 0, frame = 0
 448              		@ frame_needed = 0, uses_anonymous_args = 0
 449              		@ link register save eliminated.
 450              	.LVL32:
 440:Drivers/STM32F0xx_HAL_Driver/Src/stm32f0xx_hal_pcd.c ****   /* Prevent unused argument(s) compilation warning */
 441:Drivers/STM32F0xx_HAL_Driver/Src/stm32f0xx_hal_pcd.c ****   UNUSED(hpcd);
 442:Drivers/STM32F0xx_HAL_Driver/Src/stm32f0xx_hal_pcd.c **** 
 443:Drivers/STM32F0xx_HAL_Driver/Src/stm32f0xx_hal_pcd.c ****   /* NOTE : This function Should not be modified, when the callback is needed,
 444:Drivers/STM32F0xx_HAL_Driver/Src/stm32f0xx_hal_pcd.c ****             the HAL_PCD_SetupStageCallback could be implemented in the user file
 445:Drivers/STM32F0xx_HAL_Driver/Src/stm32f0xx_hal_pcd.c ****    */ 
 446:Drivers/STM32F0xx_HAL_Driver/Src/stm32f0xx_hal_pcd.c **** }
 451              		.loc 1 446 0
 452              		@ sp needed
 453 0000 7047     		bx	lr
 454              		.cfi_endproc
 455              	.LFE46:
 457              		.section	.text.HAL_PCD_SOFCallback,"ax",%progbits
 458              		.align	1
 459              		.weak	HAL_PCD_SOFCallback
 460              		.syntax unified
 461              		.code	16
 462              		.thumb_func
 463              		.fpu softvfp
 465              	HAL_PCD_SOFCallback:
 466              	.LFB47:
 447:Drivers/STM32F0xx_HAL_Driver/Src/stm32f0xx_hal_pcd.c **** 
 448:Drivers/STM32F0xx_HAL_Driver/Src/stm32f0xx_hal_pcd.c **** /**
 449:Drivers/STM32F0xx_HAL_Driver/Src/stm32f0xx_hal_pcd.c ****   * @brief  USB Start Of Frame callbacks
 450:Drivers/STM32F0xx_HAL_Driver/Src/stm32f0xx_hal_pcd.c ****   * @param  hpcd PCD handle
 451:Drivers/STM32F0xx_HAL_Driver/Src/stm32f0xx_hal_pcd.c ****   * @retval None
 452:Drivers/STM32F0xx_HAL_Driver/Src/stm32f0xx_hal_pcd.c ****   */
 453:Drivers/STM32F0xx_HAL_Driver/Src/stm32f0xx_hal_pcd.c ****  __weak void HAL_PCD_SOFCallback(PCD_HandleTypeDef *hpcd)
 454:Drivers/STM32F0xx_HAL_Driver/Src/stm32f0xx_hal_pcd.c **** {
 467              		.loc 1 454 0
 468              		.cfi_startproc
 469              		@ args = 0, pretend = 0, frame = 0
 470              		@ frame_needed = 0, uses_anonymous_args = 0
 471              		@ link register save eliminated.
 472              	.LVL33:
 455:Drivers/STM32F0xx_HAL_Driver/Src/stm32f0xx_hal_pcd.c ****   /* Prevent unused argument(s) compilation warning */
 456:Drivers/STM32F0xx_HAL_Driver/Src/stm32f0xx_hal_pcd.c ****   UNUSED(hpcd);
 457:Drivers/STM32F0xx_HAL_Driver/Src/stm32f0xx_hal_pcd.c **** 
 458:Drivers/STM32F0xx_HAL_Driver/Src/stm32f0xx_hal_pcd.c ****   /* NOTE : This function Should not be modified, when the callback is needed,
 459:Drivers/STM32F0xx_HAL_Driver/Src/stm32f0xx_hal_pcd.c ****             the HAL_PCD_SOFCallback could be implemented in the user file
 460:Drivers/STM32F0xx_HAL_Driver/Src/stm32f0xx_hal_pcd.c ****    */ 
 461:Drivers/STM32F0xx_HAL_Driver/Src/stm32f0xx_hal_pcd.c **** }
 473              		.loc 1 461 0
 474              		@ sp needed
 475 0000 7047     		bx	lr
 476              		.cfi_endproc
 477              	.LFE47:
 479              		.section	.text.HAL_PCD_ResetCallback,"ax",%progbits
 480              		.align	1
 481              		.weak	HAL_PCD_ResetCallback
 482              		.syntax unified
 483              		.code	16
 484              		.thumb_func
ARM GAS  /tmp/ccMLnPi5.s 			page 18


 485              		.fpu softvfp
 487              	HAL_PCD_ResetCallback:
 488              	.LFB48:
 462:Drivers/STM32F0xx_HAL_Driver/Src/stm32f0xx_hal_pcd.c **** 
 463:Drivers/STM32F0xx_HAL_Driver/Src/stm32f0xx_hal_pcd.c **** /**
 464:Drivers/STM32F0xx_HAL_Driver/Src/stm32f0xx_hal_pcd.c ****   * @brief  USB Reset callbacks
 465:Drivers/STM32F0xx_HAL_Driver/Src/stm32f0xx_hal_pcd.c ****   * @param  hpcd PCD handle
 466:Drivers/STM32F0xx_HAL_Driver/Src/stm32f0xx_hal_pcd.c ****   * @retval None
 467:Drivers/STM32F0xx_HAL_Driver/Src/stm32f0xx_hal_pcd.c ****   */
 468:Drivers/STM32F0xx_HAL_Driver/Src/stm32f0xx_hal_pcd.c ****  __weak void HAL_PCD_ResetCallback(PCD_HandleTypeDef *hpcd)
 469:Drivers/STM32F0xx_HAL_Driver/Src/stm32f0xx_hal_pcd.c **** {
 489              		.loc 1 469 0
 490              		.cfi_startproc
 491              		@ args = 0, pretend = 0, frame = 0
 492              		@ frame_needed = 0, uses_anonymous_args = 0
 493              		@ link register save eliminated.
 494              	.LVL34:
 470:Drivers/STM32F0xx_HAL_Driver/Src/stm32f0xx_hal_pcd.c ****   /* Prevent unused argument(s) compilation warning */
 471:Drivers/STM32F0xx_HAL_Driver/Src/stm32f0xx_hal_pcd.c ****   UNUSED(hpcd);
 472:Drivers/STM32F0xx_HAL_Driver/Src/stm32f0xx_hal_pcd.c **** 
 473:Drivers/STM32F0xx_HAL_Driver/Src/stm32f0xx_hal_pcd.c ****   /* NOTE : This function Should not be modified, when the callback is needed,
 474:Drivers/STM32F0xx_HAL_Driver/Src/stm32f0xx_hal_pcd.c ****             the HAL_PCD_ResetCallback could be implemented in the user file
 475:Drivers/STM32F0xx_HAL_Driver/Src/stm32f0xx_hal_pcd.c ****    */ 
 476:Drivers/STM32F0xx_HAL_Driver/Src/stm32f0xx_hal_pcd.c **** }
 495              		.loc 1 476 0
 496              		@ sp needed
 497 0000 7047     		bx	lr
 498              		.cfi_endproc
 499              	.LFE48:
 501              		.section	.text.HAL_PCD_SuspendCallback,"ax",%progbits
 502              		.align	1
 503              		.weak	HAL_PCD_SuspendCallback
 504              		.syntax unified
 505              		.code	16
 506              		.thumb_func
 507              		.fpu softvfp
 509              	HAL_PCD_SuspendCallback:
 510              	.LFB49:
 477:Drivers/STM32F0xx_HAL_Driver/Src/stm32f0xx_hal_pcd.c **** 
 478:Drivers/STM32F0xx_HAL_Driver/Src/stm32f0xx_hal_pcd.c **** /**
 479:Drivers/STM32F0xx_HAL_Driver/Src/stm32f0xx_hal_pcd.c ****   * @brief  Suspend event callbacks
 480:Drivers/STM32F0xx_HAL_Driver/Src/stm32f0xx_hal_pcd.c ****   * @param  hpcd PCD handle
 481:Drivers/STM32F0xx_HAL_Driver/Src/stm32f0xx_hal_pcd.c ****   * @retval None
 482:Drivers/STM32F0xx_HAL_Driver/Src/stm32f0xx_hal_pcd.c ****   */
 483:Drivers/STM32F0xx_HAL_Driver/Src/stm32f0xx_hal_pcd.c ****  __weak void HAL_PCD_SuspendCallback(PCD_HandleTypeDef *hpcd)
 484:Drivers/STM32F0xx_HAL_Driver/Src/stm32f0xx_hal_pcd.c **** {
 511              		.loc 1 484 0
 512              		.cfi_startproc
 513              		@ args = 0, pretend = 0, frame = 0
 514              		@ frame_needed = 0, uses_anonymous_args = 0
 515              		@ link register save eliminated.
 516              	.LVL35:
 485:Drivers/STM32F0xx_HAL_Driver/Src/stm32f0xx_hal_pcd.c ****   /* Prevent unused argument(s) compilation warning */
 486:Drivers/STM32F0xx_HAL_Driver/Src/stm32f0xx_hal_pcd.c ****   UNUSED(hpcd);
 487:Drivers/STM32F0xx_HAL_Driver/Src/stm32f0xx_hal_pcd.c **** 
 488:Drivers/STM32F0xx_HAL_Driver/Src/stm32f0xx_hal_pcd.c ****   /* NOTE : This function Should not be modified, when the callback is needed,
 489:Drivers/STM32F0xx_HAL_Driver/Src/stm32f0xx_hal_pcd.c ****             the HAL_PCD_SuspendCallback could be implemented in the user file
ARM GAS  /tmp/ccMLnPi5.s 			page 19


 490:Drivers/STM32F0xx_HAL_Driver/Src/stm32f0xx_hal_pcd.c ****    */ 
 491:Drivers/STM32F0xx_HAL_Driver/Src/stm32f0xx_hal_pcd.c **** }
 517              		.loc 1 491 0
 518              		@ sp needed
 519 0000 7047     		bx	lr
 520              		.cfi_endproc
 521              	.LFE49:
 523              		.section	.text.HAL_PCD_ResumeCallback,"ax",%progbits
 524              		.align	1
 525              		.weak	HAL_PCD_ResumeCallback
 526              		.syntax unified
 527              		.code	16
 528              		.thumb_func
 529              		.fpu softvfp
 531              	HAL_PCD_ResumeCallback:
 532              	.LFB50:
 492:Drivers/STM32F0xx_HAL_Driver/Src/stm32f0xx_hal_pcd.c **** 
 493:Drivers/STM32F0xx_HAL_Driver/Src/stm32f0xx_hal_pcd.c **** /**
 494:Drivers/STM32F0xx_HAL_Driver/Src/stm32f0xx_hal_pcd.c ****   * @brief  Resume event callbacks
 495:Drivers/STM32F0xx_HAL_Driver/Src/stm32f0xx_hal_pcd.c ****   * @param  hpcd PCD handle
 496:Drivers/STM32F0xx_HAL_Driver/Src/stm32f0xx_hal_pcd.c ****   * @retval None
 497:Drivers/STM32F0xx_HAL_Driver/Src/stm32f0xx_hal_pcd.c ****   */
 498:Drivers/STM32F0xx_HAL_Driver/Src/stm32f0xx_hal_pcd.c ****  __weak void HAL_PCD_ResumeCallback(PCD_HandleTypeDef *hpcd)
 499:Drivers/STM32F0xx_HAL_Driver/Src/stm32f0xx_hal_pcd.c **** {
 533              		.loc 1 499 0
 534              		.cfi_startproc
 535              		@ args = 0, pretend = 0, frame = 0
 536              		@ frame_needed = 0, uses_anonymous_args = 0
 537              		@ link register save eliminated.
 538              	.LVL36:
 500:Drivers/STM32F0xx_HAL_Driver/Src/stm32f0xx_hal_pcd.c ****   /* Prevent unused argument(s) compilation warning */
 501:Drivers/STM32F0xx_HAL_Driver/Src/stm32f0xx_hal_pcd.c ****   UNUSED(hpcd);
 502:Drivers/STM32F0xx_HAL_Driver/Src/stm32f0xx_hal_pcd.c **** 
 503:Drivers/STM32F0xx_HAL_Driver/Src/stm32f0xx_hal_pcd.c ****   /* NOTE : This function Should not be modified, when the callback is needed,
 504:Drivers/STM32F0xx_HAL_Driver/Src/stm32f0xx_hal_pcd.c ****             the HAL_PCD_ResumeCallback could be implemented in the user file
 505:Drivers/STM32F0xx_HAL_Driver/Src/stm32f0xx_hal_pcd.c ****    */ 
 506:Drivers/STM32F0xx_HAL_Driver/Src/stm32f0xx_hal_pcd.c **** }
 539              		.loc 1 506 0
 540              		@ sp needed
 541 0000 7047     		bx	lr
 542              		.cfi_endproc
 543              	.LFE50:
 545              		.section	.text.HAL_PCD_ISOOUTIncompleteCallback,"ax",%progbits
 546              		.align	1
 547              		.weak	HAL_PCD_ISOOUTIncompleteCallback
 548              		.syntax unified
 549              		.code	16
 550              		.thumb_func
 551              		.fpu softvfp
 553              	HAL_PCD_ISOOUTIncompleteCallback:
 554              	.LFB51:
 507:Drivers/STM32F0xx_HAL_Driver/Src/stm32f0xx_hal_pcd.c **** 
 508:Drivers/STM32F0xx_HAL_Driver/Src/stm32f0xx_hal_pcd.c **** /**
 509:Drivers/STM32F0xx_HAL_Driver/Src/stm32f0xx_hal_pcd.c ****   * @brief  Incomplete ISO OUT callbacks
 510:Drivers/STM32F0xx_HAL_Driver/Src/stm32f0xx_hal_pcd.c ****   * @param  hpcd PCD handle
 511:Drivers/STM32F0xx_HAL_Driver/Src/stm32f0xx_hal_pcd.c ****   * @param  epnum endpoint number
 512:Drivers/STM32F0xx_HAL_Driver/Src/stm32f0xx_hal_pcd.c ****   * @retval None
ARM GAS  /tmp/ccMLnPi5.s 			page 20


 513:Drivers/STM32F0xx_HAL_Driver/Src/stm32f0xx_hal_pcd.c ****   */
 514:Drivers/STM32F0xx_HAL_Driver/Src/stm32f0xx_hal_pcd.c ****  __weak void HAL_PCD_ISOOUTIncompleteCallback(PCD_HandleTypeDef *hpcd, uint8_t epnum)
 515:Drivers/STM32F0xx_HAL_Driver/Src/stm32f0xx_hal_pcd.c **** {
 555              		.loc 1 515 0
 556              		.cfi_startproc
 557              		@ args = 0, pretend = 0, frame = 0
 558              		@ frame_needed = 0, uses_anonymous_args = 0
 559              		@ link register save eliminated.
 560              	.LVL37:
 516:Drivers/STM32F0xx_HAL_Driver/Src/stm32f0xx_hal_pcd.c ****   /* Prevent unused argument(s) compilation warning */
 517:Drivers/STM32F0xx_HAL_Driver/Src/stm32f0xx_hal_pcd.c ****   UNUSED(hpcd);
 518:Drivers/STM32F0xx_HAL_Driver/Src/stm32f0xx_hal_pcd.c ****   UNUSED(epnum);
 519:Drivers/STM32F0xx_HAL_Driver/Src/stm32f0xx_hal_pcd.c **** 
 520:Drivers/STM32F0xx_HAL_Driver/Src/stm32f0xx_hal_pcd.c ****   /* NOTE : This function Should not be modified, when the callback is needed,
 521:Drivers/STM32F0xx_HAL_Driver/Src/stm32f0xx_hal_pcd.c ****             the HAL_PCD_ISOOUTIncompleteCallback could be implemented in the user file
 522:Drivers/STM32F0xx_HAL_Driver/Src/stm32f0xx_hal_pcd.c ****    */ 
 523:Drivers/STM32F0xx_HAL_Driver/Src/stm32f0xx_hal_pcd.c **** }
 561              		.loc 1 523 0
 562              		@ sp needed
 563 0000 7047     		bx	lr
 564              		.cfi_endproc
 565              	.LFE51:
 567              		.section	.text.HAL_PCD_ISOINIncompleteCallback,"ax",%progbits
 568              		.align	1
 569              		.weak	HAL_PCD_ISOINIncompleteCallback
 570              		.syntax unified
 571              		.code	16
 572              		.thumb_func
 573              		.fpu softvfp
 575              	HAL_PCD_ISOINIncompleteCallback:
 576              	.LFB52:
 524:Drivers/STM32F0xx_HAL_Driver/Src/stm32f0xx_hal_pcd.c **** 
 525:Drivers/STM32F0xx_HAL_Driver/Src/stm32f0xx_hal_pcd.c **** /**
 526:Drivers/STM32F0xx_HAL_Driver/Src/stm32f0xx_hal_pcd.c ****   * @brief  Incomplete ISO IN  callbacks
 527:Drivers/STM32F0xx_HAL_Driver/Src/stm32f0xx_hal_pcd.c ****   * @param  hpcd PCD handle
 528:Drivers/STM32F0xx_HAL_Driver/Src/stm32f0xx_hal_pcd.c ****   * @param  epnum endpoint number
 529:Drivers/STM32F0xx_HAL_Driver/Src/stm32f0xx_hal_pcd.c ****   * @retval None
 530:Drivers/STM32F0xx_HAL_Driver/Src/stm32f0xx_hal_pcd.c ****   */
 531:Drivers/STM32F0xx_HAL_Driver/Src/stm32f0xx_hal_pcd.c ****  __weak void HAL_PCD_ISOINIncompleteCallback(PCD_HandleTypeDef *hpcd, uint8_t epnum)
 532:Drivers/STM32F0xx_HAL_Driver/Src/stm32f0xx_hal_pcd.c **** {
 577              		.loc 1 532 0
 578              		.cfi_startproc
 579              		@ args = 0, pretend = 0, frame = 0
 580              		@ frame_needed = 0, uses_anonymous_args = 0
 581              		@ link register save eliminated.
 582              	.LVL38:
 533:Drivers/STM32F0xx_HAL_Driver/Src/stm32f0xx_hal_pcd.c ****   /* Prevent unused argument(s) compilation warning */
 534:Drivers/STM32F0xx_HAL_Driver/Src/stm32f0xx_hal_pcd.c ****   UNUSED(hpcd);
 535:Drivers/STM32F0xx_HAL_Driver/Src/stm32f0xx_hal_pcd.c ****   UNUSED(epnum);
 536:Drivers/STM32F0xx_HAL_Driver/Src/stm32f0xx_hal_pcd.c **** 
 537:Drivers/STM32F0xx_HAL_Driver/Src/stm32f0xx_hal_pcd.c ****   /* NOTE : This function Should not be modified, when the callback is needed,
 538:Drivers/STM32F0xx_HAL_Driver/Src/stm32f0xx_hal_pcd.c ****             the HAL_PCD_ISOINIncompleteCallback could be implemented in the user file
 539:Drivers/STM32F0xx_HAL_Driver/Src/stm32f0xx_hal_pcd.c ****    */ 
 540:Drivers/STM32F0xx_HAL_Driver/Src/stm32f0xx_hal_pcd.c **** }
 583              		.loc 1 540 0
 584              		@ sp needed
 585 0000 7047     		bx	lr
ARM GAS  /tmp/ccMLnPi5.s 			page 21


 586              		.cfi_endproc
 587              	.LFE52:
 589              		.section	.text.HAL_PCD_ConnectCallback,"ax",%progbits
 590              		.align	1
 591              		.weak	HAL_PCD_ConnectCallback
 592              		.syntax unified
 593              		.code	16
 594              		.thumb_func
 595              		.fpu softvfp
 597              	HAL_PCD_ConnectCallback:
 598              	.LFB53:
 541:Drivers/STM32F0xx_HAL_Driver/Src/stm32f0xx_hal_pcd.c **** 
 542:Drivers/STM32F0xx_HAL_Driver/Src/stm32f0xx_hal_pcd.c **** /**
 543:Drivers/STM32F0xx_HAL_Driver/Src/stm32f0xx_hal_pcd.c ****   * @brief  Connection event callbacks
 544:Drivers/STM32F0xx_HAL_Driver/Src/stm32f0xx_hal_pcd.c ****   * @param  hpcd PCD handle
 545:Drivers/STM32F0xx_HAL_Driver/Src/stm32f0xx_hal_pcd.c ****   * @retval None
 546:Drivers/STM32F0xx_HAL_Driver/Src/stm32f0xx_hal_pcd.c ****   */
 547:Drivers/STM32F0xx_HAL_Driver/Src/stm32f0xx_hal_pcd.c ****  __weak void HAL_PCD_ConnectCallback(PCD_HandleTypeDef *hpcd)
 548:Drivers/STM32F0xx_HAL_Driver/Src/stm32f0xx_hal_pcd.c **** {
 599              		.loc 1 548 0
 600              		.cfi_startproc
 601              		@ args = 0, pretend = 0, frame = 0
 602              		@ frame_needed = 0, uses_anonymous_args = 0
 603              		@ link register save eliminated.
 604              	.LVL39:
 549:Drivers/STM32F0xx_HAL_Driver/Src/stm32f0xx_hal_pcd.c ****   /* Prevent unused argument(s) compilation warning */
 550:Drivers/STM32F0xx_HAL_Driver/Src/stm32f0xx_hal_pcd.c ****   UNUSED(hpcd);
 551:Drivers/STM32F0xx_HAL_Driver/Src/stm32f0xx_hal_pcd.c **** 
 552:Drivers/STM32F0xx_HAL_Driver/Src/stm32f0xx_hal_pcd.c ****   /* NOTE : This function Should not be modified, when the callback is needed,
 553:Drivers/STM32F0xx_HAL_Driver/Src/stm32f0xx_hal_pcd.c ****             the HAL_PCD_ConnectCallback could be implemented in the user file
 554:Drivers/STM32F0xx_HAL_Driver/Src/stm32f0xx_hal_pcd.c ****    */ 
 555:Drivers/STM32F0xx_HAL_Driver/Src/stm32f0xx_hal_pcd.c **** }
 605              		.loc 1 555 0
 606              		@ sp needed
 607 0000 7047     		bx	lr
 608              		.cfi_endproc
 609              	.LFE53:
 611              		.section	.text.HAL_PCD_DisconnectCallback,"ax",%progbits
 612              		.align	1
 613              		.weak	HAL_PCD_DisconnectCallback
 614              		.syntax unified
 615              		.code	16
 616              		.thumb_func
 617              		.fpu softvfp
 619              	HAL_PCD_DisconnectCallback:
 620              	.LFB54:
 556:Drivers/STM32F0xx_HAL_Driver/Src/stm32f0xx_hal_pcd.c **** 
 557:Drivers/STM32F0xx_HAL_Driver/Src/stm32f0xx_hal_pcd.c **** /**
 558:Drivers/STM32F0xx_HAL_Driver/Src/stm32f0xx_hal_pcd.c ****   * @brief  Disconnection event callbacks
 559:Drivers/STM32F0xx_HAL_Driver/Src/stm32f0xx_hal_pcd.c ****   * @param  hpcd PCD handle
 560:Drivers/STM32F0xx_HAL_Driver/Src/stm32f0xx_hal_pcd.c ****   * @retval None
 561:Drivers/STM32F0xx_HAL_Driver/Src/stm32f0xx_hal_pcd.c ****   */
 562:Drivers/STM32F0xx_HAL_Driver/Src/stm32f0xx_hal_pcd.c ****  __weak void HAL_PCD_DisconnectCallback(PCD_HandleTypeDef *hpcd)
 563:Drivers/STM32F0xx_HAL_Driver/Src/stm32f0xx_hal_pcd.c **** {
 621              		.loc 1 563 0
 622              		.cfi_startproc
 623              		@ args = 0, pretend = 0, frame = 0
ARM GAS  /tmp/ccMLnPi5.s 			page 22


 624              		@ frame_needed = 0, uses_anonymous_args = 0
 625              		@ link register save eliminated.
 626              	.LVL40:
 564:Drivers/STM32F0xx_HAL_Driver/Src/stm32f0xx_hal_pcd.c ****   /* Prevent unused argument(s) compilation warning */
 565:Drivers/STM32F0xx_HAL_Driver/Src/stm32f0xx_hal_pcd.c ****   UNUSED(hpcd);
 566:Drivers/STM32F0xx_HAL_Driver/Src/stm32f0xx_hal_pcd.c **** 
 567:Drivers/STM32F0xx_HAL_Driver/Src/stm32f0xx_hal_pcd.c ****   /* NOTE : This function Should not be modified, when the callback is needed,
 568:Drivers/STM32F0xx_HAL_Driver/Src/stm32f0xx_hal_pcd.c ****             the HAL_PCD_DisconnectCallback could be implemented in the user file
 569:Drivers/STM32F0xx_HAL_Driver/Src/stm32f0xx_hal_pcd.c ****    */ 
 570:Drivers/STM32F0xx_HAL_Driver/Src/stm32f0xx_hal_pcd.c **** }
 627              		.loc 1 570 0
 628              		@ sp needed
 629 0000 7047     		bx	lr
 630              		.cfi_endproc
 631              	.LFE54:
 633              		.section	.text.HAL_PCD_DevConnect,"ax",%progbits
 634              		.align	1
 635              		.global	HAL_PCD_DevConnect
 636              		.syntax unified
 637              		.code	16
 638              		.thumb_func
 639              		.fpu softvfp
 641              	HAL_PCD_DevConnect:
 642              	.LFB55:
 571:Drivers/STM32F0xx_HAL_Driver/Src/stm32f0xx_hal_pcd.c **** /**
 572:Drivers/STM32F0xx_HAL_Driver/Src/stm32f0xx_hal_pcd.c ****   * @}
 573:Drivers/STM32F0xx_HAL_Driver/Src/stm32f0xx_hal_pcd.c ****   */
 574:Drivers/STM32F0xx_HAL_Driver/Src/stm32f0xx_hal_pcd.c ****     
 575:Drivers/STM32F0xx_HAL_Driver/Src/stm32f0xx_hal_pcd.c **** /** @defgroup PCD_Exported_Functions_Group3 Peripheral Control functions 
 576:Drivers/STM32F0xx_HAL_Driver/Src/stm32f0xx_hal_pcd.c ****  *  @brief   management functions 
 577:Drivers/STM32F0xx_HAL_Driver/Src/stm32f0xx_hal_pcd.c ****  *
 578:Drivers/STM32F0xx_HAL_Driver/Src/stm32f0xx_hal_pcd.c **** @verbatim   
 579:Drivers/STM32F0xx_HAL_Driver/Src/stm32f0xx_hal_pcd.c ****  ===============================================================================
 580:Drivers/STM32F0xx_HAL_Driver/Src/stm32f0xx_hal_pcd.c ****                       ##### Peripheral Control functions #####
 581:Drivers/STM32F0xx_HAL_Driver/Src/stm32f0xx_hal_pcd.c ****  ===============================================================================  
 582:Drivers/STM32F0xx_HAL_Driver/Src/stm32f0xx_hal_pcd.c ****     [..]
 583:Drivers/STM32F0xx_HAL_Driver/Src/stm32f0xx_hal_pcd.c ****     This subsection provides a set of functions allowing to control the PCD data 
 584:Drivers/STM32F0xx_HAL_Driver/Src/stm32f0xx_hal_pcd.c ****     transfers.
 585:Drivers/STM32F0xx_HAL_Driver/Src/stm32f0xx_hal_pcd.c **** 
 586:Drivers/STM32F0xx_HAL_Driver/Src/stm32f0xx_hal_pcd.c **** @endverbatim
 587:Drivers/STM32F0xx_HAL_Driver/Src/stm32f0xx_hal_pcd.c ****   * @{
 588:Drivers/STM32F0xx_HAL_Driver/Src/stm32f0xx_hal_pcd.c ****   */
 589:Drivers/STM32F0xx_HAL_Driver/Src/stm32f0xx_hal_pcd.c **** 
 590:Drivers/STM32F0xx_HAL_Driver/Src/stm32f0xx_hal_pcd.c **** /**
 591:Drivers/STM32F0xx_HAL_Driver/Src/stm32f0xx_hal_pcd.c ****   * @brief  Connect the USB device 
 592:Drivers/STM32F0xx_HAL_Driver/Src/stm32f0xx_hal_pcd.c ****   * @param  hpcd PCD handle
 593:Drivers/STM32F0xx_HAL_Driver/Src/stm32f0xx_hal_pcd.c ****   * @retval HAL status
 594:Drivers/STM32F0xx_HAL_Driver/Src/stm32f0xx_hal_pcd.c ****   */
 595:Drivers/STM32F0xx_HAL_Driver/Src/stm32f0xx_hal_pcd.c **** HAL_StatusTypeDef HAL_PCD_DevConnect(PCD_HandleTypeDef *hpcd)
 596:Drivers/STM32F0xx_HAL_Driver/Src/stm32f0xx_hal_pcd.c **** {
 643              		.loc 1 596 0
 644              		.cfi_startproc
 645              		@ args = 0, pretend = 0, frame = 0
 646              		@ frame_needed = 0, uses_anonymous_args = 0
 647              	.LVL41:
 648 0000 30B5     		push	{r4, r5, lr}
 649              	.LCFI3:
ARM GAS  /tmp/ccMLnPi5.s 			page 23


 650              		.cfi_def_cfa_offset 12
 651              		.cfi_offset 4, -12
 652              		.cfi_offset 5, -8
 653              		.cfi_offset 14, -4
 597:Drivers/STM32F0xx_HAL_Driver/Src/stm32f0xx_hal_pcd.c ****   __HAL_LOCK(hpcd); 
 654              		.loc 1 597 0
 655 0002 F423     		movs	r3, #244
 656 0004 5B00     		lsls	r3, r3, #1
 657 0006 C35C     		ldrb	r3, [r0, r3]
 658 0008 012B     		cmp	r3, #1
 659 000a 0ED0     		beq	.L36
 660              		.loc 1 597 0 is_stmt 0 discriminator 2
 661 000c F422     		movs	r2, #244
 662 000e 5200     		lsls	r2, r2, #1
 663 0010 0123     		movs	r3, #1
 664 0012 8354     		strb	r3, [r0, r2]
 598:Drivers/STM32F0xx_HAL_Driver/Src/stm32f0xx_hal_pcd.c ****   
 599:Drivers/STM32F0xx_HAL_Driver/Src/stm32f0xx_hal_pcd.c ****   /* Enabling DP Pull-Down bit to Connect internal pull-up on USB DP line */
 600:Drivers/STM32F0xx_HAL_Driver/Src/stm32f0xx_hal_pcd.c ****   hpcd->Instance->BCDR |= USB_BCDR_DPPU;
 665              		.loc 1 600 0 is_stmt 1 discriminator 2
 666 0014 0468     		ldr	r4, [r0]
 667 0016 5821     		movs	r1, #88
 668 0018 635A     		ldrh	r3, [r4, r1]
 669 001a 054D     		ldr	r5, .L37
 670 001c 2B43     		orrs	r3, r5
 671 001e 9BB2     		uxth	r3, r3
 672 0020 6352     		strh	r3, [r4, r1]
 601:Drivers/STM32F0xx_HAL_Driver/Src/stm32f0xx_hal_pcd.c ****   
 602:Drivers/STM32F0xx_HAL_Driver/Src/stm32f0xx_hal_pcd.c ****   __HAL_UNLOCK(hpcd); 
 673              		.loc 1 602 0 discriminator 2
 674 0022 0023     		movs	r3, #0
 675 0024 8354     		strb	r3, [r0, r2]
 603:Drivers/STM32F0xx_HAL_Driver/Src/stm32f0xx_hal_pcd.c ****   return HAL_OK;
 676              		.loc 1 603 0 discriminator 2
 677 0026 0020     		movs	r0, #0
 678              	.LVL42:
 679              	.L35:
 604:Drivers/STM32F0xx_HAL_Driver/Src/stm32f0xx_hal_pcd.c **** }
 680              		.loc 1 604 0
 681              		@ sp needed
 682 0028 30BD     		pop	{r4, r5, pc}
 683              	.LVL43:
 684              	.L36:
 597:Drivers/STM32F0xx_HAL_Driver/Src/stm32f0xx_hal_pcd.c ****   
 685              		.loc 1 597 0
 686 002a 0220     		movs	r0, #2
 687              	.LVL44:
 688 002c FCE7     		b	.L35
 689              	.L38:
 690 002e C046     		.align	2
 691              	.L37:
 692 0030 0080FFFF 		.word	-32768
 693              		.cfi_endproc
 694              	.LFE55:
 696              		.section	.text.HAL_PCD_DevDisconnect,"ax",%progbits
 697              		.align	1
 698              		.global	HAL_PCD_DevDisconnect
ARM GAS  /tmp/ccMLnPi5.s 			page 24


 699              		.syntax unified
 700              		.code	16
 701              		.thumb_func
 702              		.fpu softvfp
 704              	HAL_PCD_DevDisconnect:
 705              	.LFB56:
 605:Drivers/STM32F0xx_HAL_Driver/Src/stm32f0xx_hal_pcd.c **** 
 606:Drivers/STM32F0xx_HAL_Driver/Src/stm32f0xx_hal_pcd.c **** /**
 607:Drivers/STM32F0xx_HAL_Driver/Src/stm32f0xx_hal_pcd.c ****   * @brief  Disconnect the USB device 
 608:Drivers/STM32F0xx_HAL_Driver/Src/stm32f0xx_hal_pcd.c ****   * @param  hpcd PCD handle
 609:Drivers/STM32F0xx_HAL_Driver/Src/stm32f0xx_hal_pcd.c ****   * @retval HAL status
 610:Drivers/STM32F0xx_HAL_Driver/Src/stm32f0xx_hal_pcd.c ****   */
 611:Drivers/STM32F0xx_HAL_Driver/Src/stm32f0xx_hal_pcd.c **** HAL_StatusTypeDef HAL_PCD_DevDisconnect(PCD_HandleTypeDef *hpcd)
 612:Drivers/STM32F0xx_HAL_Driver/Src/stm32f0xx_hal_pcd.c **** {
 706              		.loc 1 612 0
 707              		.cfi_startproc
 708              		@ args = 0, pretend = 0, frame = 0
 709              		@ frame_needed = 0, uses_anonymous_args = 0
 710              	.LVL45:
 711 0000 10B5     		push	{r4, lr}
 712              	.LCFI4:
 713              		.cfi_def_cfa_offset 8
 714              		.cfi_offset 4, -8
 715              		.cfi_offset 14, -4
 613:Drivers/STM32F0xx_HAL_Driver/Src/stm32f0xx_hal_pcd.c ****   __HAL_LOCK(hpcd); 
 716              		.loc 1 613 0
 717 0002 F423     		movs	r3, #244
 718 0004 5B00     		lsls	r3, r3, #1
 719 0006 C35C     		ldrb	r3, [r0, r3]
 720 0008 012B     		cmp	r3, #1
 721 000a 0DD0     		beq	.L41
 722              		.loc 1 613 0 is_stmt 0 discriminator 2
 723 000c F422     		movs	r2, #244
 724 000e 5200     		lsls	r2, r2, #1
 725 0010 0123     		movs	r3, #1
 726 0012 8354     		strb	r3, [r0, r2]
 614:Drivers/STM32F0xx_HAL_Driver/Src/stm32f0xx_hal_pcd.c ****   
 615:Drivers/STM32F0xx_HAL_Driver/Src/stm32f0xx_hal_pcd.c ****   /* Disable DP Pull-Down bit*/
 616:Drivers/STM32F0xx_HAL_Driver/Src/stm32f0xx_hal_pcd.c ****    hpcd->Instance->BCDR &= (uint16_t)(~(USB_BCDR_DPPU));
 727              		.loc 1 616 0 is_stmt 1 discriminator 2
 728 0014 0468     		ldr	r4, [r0]
 729 0016 5821     		movs	r1, #88
 730 0018 635A     		ldrh	r3, [r4, r1]
 731 001a 5B04     		lsls	r3, r3, #17
 732 001c 5B0C     		lsrs	r3, r3, #17
 733 001e 6352     		strh	r3, [r4, r1]
 617:Drivers/STM32F0xx_HAL_Driver/Src/stm32f0xx_hal_pcd.c ****   
 618:Drivers/STM32F0xx_HAL_Driver/Src/stm32f0xx_hal_pcd.c ****   __HAL_UNLOCK(hpcd); 
 734              		.loc 1 618 0 discriminator 2
 735 0020 0023     		movs	r3, #0
 736 0022 8354     		strb	r3, [r0, r2]
 619:Drivers/STM32F0xx_HAL_Driver/Src/stm32f0xx_hal_pcd.c ****   return HAL_OK;
 737              		.loc 1 619 0 discriminator 2
 738 0024 0020     		movs	r0, #0
 739              	.LVL46:
 740              	.L40:
 620:Drivers/STM32F0xx_HAL_Driver/Src/stm32f0xx_hal_pcd.c **** }
ARM GAS  /tmp/ccMLnPi5.s 			page 25


 741              		.loc 1 620 0
 742              		@ sp needed
 743 0026 10BD     		pop	{r4, pc}
 744              	.LVL47:
 745              	.L41:
 613:Drivers/STM32F0xx_HAL_Driver/Src/stm32f0xx_hal_pcd.c ****   
 746              		.loc 1 613 0
 747 0028 0220     		movs	r0, #2
 748              	.LVL48:
 749 002a FCE7     		b	.L40
 750              		.cfi_endproc
 751              	.LFE56:
 753              		.section	.text.HAL_PCD_SetAddress,"ax",%progbits
 754              		.align	1
 755              		.global	HAL_PCD_SetAddress
 756              		.syntax unified
 757              		.code	16
 758              		.thumb_func
 759              		.fpu softvfp
 761              	HAL_PCD_SetAddress:
 762              	.LFB57:
 621:Drivers/STM32F0xx_HAL_Driver/Src/stm32f0xx_hal_pcd.c **** 
 622:Drivers/STM32F0xx_HAL_Driver/Src/stm32f0xx_hal_pcd.c **** /**
 623:Drivers/STM32F0xx_HAL_Driver/Src/stm32f0xx_hal_pcd.c ****   * @brief  Set the USB Device address 
 624:Drivers/STM32F0xx_HAL_Driver/Src/stm32f0xx_hal_pcd.c ****   * @param  hpcd PCD handle
 625:Drivers/STM32F0xx_HAL_Driver/Src/stm32f0xx_hal_pcd.c ****   * @param  address new device address
 626:Drivers/STM32F0xx_HAL_Driver/Src/stm32f0xx_hal_pcd.c ****   * @retval HAL status
 627:Drivers/STM32F0xx_HAL_Driver/Src/stm32f0xx_hal_pcd.c ****   */
 628:Drivers/STM32F0xx_HAL_Driver/Src/stm32f0xx_hal_pcd.c **** HAL_StatusTypeDef HAL_PCD_SetAddress(PCD_HandleTypeDef *hpcd, uint8_t address)
 629:Drivers/STM32F0xx_HAL_Driver/Src/stm32f0xx_hal_pcd.c **** {
 763              		.loc 1 629 0
 764              		.cfi_startproc
 765              		@ args = 0, pretend = 0, frame = 0
 766              		@ frame_needed = 0, uses_anonymous_args = 0
 767              		@ link register save eliminated.
 768              	.LVL49:
 630:Drivers/STM32F0xx_HAL_Driver/Src/stm32f0xx_hal_pcd.c ****    __HAL_LOCK(hpcd); 
 769              		.loc 1 630 0
 770 0000 F423     		movs	r3, #244
 771 0002 5B00     		lsls	r3, r3, #1
 772 0004 C35C     		ldrb	r3, [r0, r3]
 773 0006 012B     		cmp	r3, #1
 774 0008 13D0     		beq	.L46
 775              		.loc 1 630 0 is_stmt 0 discriminator 2
 776 000a F423     		movs	r3, #244
 777 000c 5B00     		lsls	r3, r3, #1
 778 000e 0122     		movs	r2, #1
 779 0010 C254     		strb	r2, [r0, r3]
 631:Drivers/STM32F0xx_HAL_Driver/Src/stm32f0xx_hal_pcd.c **** 
 632:Drivers/STM32F0xx_HAL_Driver/Src/stm32f0xx_hal_pcd.c ****    if(address == 0U) 
 780              		.loc 1 632 0 is_stmt 1 discriminator 2
 781 0012 0029     		cmp	r1, #0
 782 0014 0AD1     		bne	.L44
 633:Drivers/STM32F0xx_HAL_Driver/Src/stm32f0xx_hal_pcd.c ****    {
 634:Drivers/STM32F0xx_HAL_Driver/Src/stm32f0xx_hal_pcd.c ****      /* set device address and enable function */
 635:Drivers/STM32F0xx_HAL_Driver/Src/stm32f0xx_hal_pcd.c ****      hpcd->Instance->DADDR = USB_DADDR_EF;
 783              		.loc 1 635 0
ARM GAS  /tmp/ccMLnPi5.s 			page 26


 784 0016 9D3B     		subs	r3, r3, #157
 785 0018 FF3B     		subs	r3, r3, #255
 786 001a 7F32     		adds	r2, r2, #127
 787 001c 0168     		ldr	r1, [r0]
 788              	.LVL50:
 789 001e CA52     		strh	r2, [r1, r3]
 790              	.L45:
 636:Drivers/STM32F0xx_HAL_Driver/Src/stm32f0xx_hal_pcd.c ****    }
 637:Drivers/STM32F0xx_HAL_Driver/Src/stm32f0xx_hal_pcd.c ****    else /* USB Address will be applied later */
 638:Drivers/STM32F0xx_HAL_Driver/Src/stm32f0xx_hal_pcd.c ****    {
 639:Drivers/STM32F0xx_HAL_Driver/Src/stm32f0xx_hal_pcd.c ****      hpcd->USB_Address = address;
 640:Drivers/STM32F0xx_HAL_Driver/Src/stm32f0xx_hal_pcd.c ****    }
 641:Drivers/STM32F0xx_HAL_Driver/Src/stm32f0xx_hal_pcd.c **** 
 642:Drivers/STM32F0xx_HAL_Driver/Src/stm32f0xx_hal_pcd.c ****   __HAL_UNLOCK(hpcd);   
 791              		.loc 1 642 0
 792 0020 F423     		movs	r3, #244
 793 0022 5B00     		lsls	r3, r3, #1
 794 0024 0022     		movs	r2, #0
 795 0026 C254     		strb	r2, [r0, r3]
 643:Drivers/STM32F0xx_HAL_Driver/Src/stm32f0xx_hal_pcd.c ****   return HAL_OK;
 796              		.loc 1 643 0
 797 0028 0020     		movs	r0, #0
 798              	.LVL51:
 799              	.L43:
 644:Drivers/STM32F0xx_HAL_Driver/Src/stm32f0xx_hal_pcd.c **** }
 800              		.loc 1 644 0
 801              		@ sp needed
 802 002a 7047     		bx	lr
 803              	.LVL52:
 804              	.L44:
 639:Drivers/STM32F0xx_HAL_Driver/Src/stm32f0xx_hal_pcd.c ****    }
 805              		.loc 1 639 0
 806 002c 2423     		movs	r3, #36
 807 002e C154     		strb	r1, [r0, r3]
 808 0030 F6E7     		b	.L45
 809              	.L46:
 630:Drivers/STM32F0xx_HAL_Driver/Src/stm32f0xx_hal_pcd.c **** 
 810              		.loc 1 630 0
 811 0032 0220     		movs	r0, #2
 812              	.LVL53:
 813 0034 F9E7     		b	.L43
 814              		.cfi_endproc
 815              	.LFE57:
 817              		.section	.text.HAL_PCD_EP_Open,"ax",%progbits
 818              		.align	1
 819              		.global	HAL_PCD_EP_Open
 820              		.syntax unified
 821              		.code	16
 822              		.thumb_func
 823              		.fpu softvfp
 825              	HAL_PCD_EP_Open:
 826              	.LFB58:
 645:Drivers/STM32F0xx_HAL_Driver/Src/stm32f0xx_hal_pcd.c **** /**
 646:Drivers/STM32F0xx_HAL_Driver/Src/stm32f0xx_hal_pcd.c ****   * @brief  Open and configure an endpoint
 647:Drivers/STM32F0xx_HAL_Driver/Src/stm32f0xx_hal_pcd.c ****   * @param  hpcd PCD handle
 648:Drivers/STM32F0xx_HAL_Driver/Src/stm32f0xx_hal_pcd.c ****   * @param  ep_addr endpoint address
 649:Drivers/STM32F0xx_HAL_Driver/Src/stm32f0xx_hal_pcd.c ****   * @param  ep_mps endpoint max packert size
ARM GAS  /tmp/ccMLnPi5.s 			page 27


 650:Drivers/STM32F0xx_HAL_Driver/Src/stm32f0xx_hal_pcd.c ****   * @param  ep_type endpoint type   
 651:Drivers/STM32F0xx_HAL_Driver/Src/stm32f0xx_hal_pcd.c ****   * @retval HAL status
 652:Drivers/STM32F0xx_HAL_Driver/Src/stm32f0xx_hal_pcd.c ****   */
 653:Drivers/STM32F0xx_HAL_Driver/Src/stm32f0xx_hal_pcd.c **** HAL_StatusTypeDef HAL_PCD_EP_Open(PCD_HandleTypeDef *hpcd, uint8_t ep_addr, uint16_t ep_mps, uint8_
 654:Drivers/STM32F0xx_HAL_Driver/Src/stm32f0xx_hal_pcd.c **** {
 827              		.loc 1 654 0
 828              		.cfi_startproc
 829              		@ args = 0, pretend = 0, frame = 0
 830              		@ frame_needed = 0, uses_anonymous_args = 0
 831              	.LVL54:
 832 0000 F0B5     		push	{r4, r5, r6, r7, lr}
 833              	.LCFI5:
 834              		.cfi_def_cfa_offset 20
 835              		.cfi_offset 4, -20
 836              		.cfi_offset 5, -16
 837              		.cfi_offset 6, -12
 838              		.cfi_offset 7, -8
 839              		.cfi_offset 14, -4
 840              	.LVL55:
 655:Drivers/STM32F0xx_HAL_Driver/Src/stm32f0xx_hal_pcd.c ****   HAL_StatusTypeDef  ret = HAL_OK;
 656:Drivers/STM32F0xx_HAL_Driver/Src/stm32f0xx_hal_pcd.c ****   PCD_EPTypeDef *ep;
 657:Drivers/STM32F0xx_HAL_Driver/Src/stm32f0xx_hal_pcd.c ****   
 658:Drivers/STM32F0xx_HAL_Driver/Src/stm32f0xx_hal_pcd.c ****   if ((ep_addr & 0x80U) == 0x80U)
 841              		.loc 1 658 0
 842 0002 4DB2     		sxtb	r5, r1
 843 0004 002D     		cmp	r5, #0
 844 0006 00DA     		bge	.LCB638
 845 0008 6AE0     		b	.L71	@long jump
 846              	.LCB638:
 659:Drivers/STM32F0xx_HAL_Driver/Src/stm32f0xx_hal_pcd.c ****   {
 660:Drivers/STM32F0xx_HAL_Driver/Src/stm32f0xx_hal_pcd.c ****     ep = &hpcd->IN_ep[ep_addr & 0x7FU];
 661:Drivers/STM32F0xx_HAL_Driver/Src/stm32f0xx_hal_pcd.c ****   }
 662:Drivers/STM32F0xx_HAL_Driver/Src/stm32f0xx_hal_pcd.c ****   else
 663:Drivers/STM32F0xx_HAL_Driver/Src/stm32f0xx_hal_pcd.c ****   {
 664:Drivers/STM32F0xx_HAL_Driver/Src/stm32f0xx_hal_pcd.c ****     ep = &hpcd->OUT_ep[ep_addr & 0x7FU];
 847              		.loc 1 664 0
 848 000a 7F24     		movs	r4, #127
 849 000c 0C40     		ands	r4, r1
 850 000e E600     		lsls	r6, r4, #3
 851 0010 361B     		subs	r6, r6, r4
 852 0012 B400     		lsls	r4, r6, #2
 853 0014 0934     		adds	r4, r4, #9
 854 0016 FF34     		adds	r4, r4, #255
 855 0018 0419     		adds	r4, r0, r4
 856              	.LVL56:
 857              	.L49:
 665:Drivers/STM32F0xx_HAL_Driver/Src/stm32f0xx_hal_pcd.c ****   }
 666:Drivers/STM32F0xx_HAL_Driver/Src/stm32f0xx_hal_pcd.c ****   ep->num   = ep_addr & 0x7FU;
 858              		.loc 1 666 0
 859 001a 7F26     		movs	r6, #127
 860 001c 3140     		ands	r1, r6
 861              	.LVL57:
 862 001e 2170     		strb	r1, [r4]
 667:Drivers/STM32F0xx_HAL_Driver/Src/stm32f0xx_hal_pcd.c ****   
 668:Drivers/STM32F0xx_HAL_Driver/Src/stm32f0xx_hal_pcd.c ****   ep->is_in = (0x80U & ep_addr) != 0U;
 863              		.loc 1 668 0
 864 0020 ED0F     		lsrs	r5, r5, #31
ARM GAS  /tmp/ccMLnPi5.s 			page 28


 865              	.LVL58:
 866 0022 6570     		strb	r5, [r4, #1]
 669:Drivers/STM32F0xx_HAL_Driver/Src/stm32f0xx_hal_pcd.c ****   ep->maxpacket = ep_mps;
 867              		.loc 1 669 0
 868 0024 E260     		str	r2, [r4, #12]
 670:Drivers/STM32F0xx_HAL_Driver/Src/stm32f0xx_hal_pcd.c ****   ep->type = ep_type;
 869              		.loc 1 670 0
 870 0026 E370     		strb	r3, [r4, #3]
 671:Drivers/STM32F0xx_HAL_Driver/Src/stm32f0xx_hal_pcd.c ****   
 672:Drivers/STM32F0xx_HAL_Driver/Src/stm32f0xx_hal_pcd.c ****   __HAL_LOCK(hpcd); 
 871              		.loc 1 672 0
 872 0028 F423     		movs	r3, #244
 873              	.LVL59:
 874 002a 5B00     		lsls	r3, r3, #1
 875 002c C35C     		ldrb	r3, [r0, r3]
 876 002e 012B     		cmp	r3, #1
 877 0030 00D1     		bne	.LCB670
 878 0032 8FE1     		b	.L70	@long jump
 879              	.LCB670:
 880              		.loc 1 672 0 is_stmt 0 discriminator 2
 881 0034 F423     		movs	r3, #244
 882 0036 5B00     		lsls	r3, r3, #1
 883 0038 0122     		movs	r2, #1
 884              	.LVL60:
 885 003a C254     		strb	r2, [r0, r3]
 886              	.LVL61:
 673:Drivers/STM32F0xx_HAL_Driver/Src/stm32f0xx_hal_pcd.c **** 
 674:Drivers/STM32F0xx_HAL_Driver/Src/stm32f0xx_hal_pcd.c ****   /* initialize Endpoint */
 675:Drivers/STM32F0xx_HAL_Driver/Src/stm32f0xx_hal_pcd.c ****   switch (ep->type)
 887              		.loc 1 675 0 is_stmt 1 discriminator 2
 888 003c E378     		ldrb	r3, [r4, #3]
 889 003e 012B     		cmp	r3, #1
 890 0040 00D1     		bne	.LCB681
 891 0042 7CE0     		b	.L52	@long jump
 892              	.LCB681:
 893 0044 002B     		cmp	r3, #0
 894 0046 53D0     		beq	.L53
 895 0048 022B     		cmp	r3, #2
 896 004a 5ED0     		beq	.L54
 897 004c 032B     		cmp	r3, #3
 898 004e 00D1     		bne	.LCB687
 899 0050 68E0     		b	.L55	@long jump
 900              	.LCB687:
 901              	.L51:
 676:Drivers/STM32F0xx_HAL_Driver/Src/stm32f0xx_hal_pcd.c ****   {
 677:Drivers/STM32F0xx_HAL_Driver/Src/stm32f0xx_hal_pcd.c ****   case PCD_EP_TYPE_CTRL:
 678:Drivers/STM32F0xx_HAL_Driver/Src/stm32f0xx_hal_pcd.c ****     PCD_SET_EPTYPE(hpcd->Instance, ep->num, USB_EP_CONTROL);
 679:Drivers/STM32F0xx_HAL_Driver/Src/stm32f0xx_hal_pcd.c ****     break;
 680:Drivers/STM32F0xx_HAL_Driver/Src/stm32f0xx_hal_pcd.c ****   case PCD_EP_TYPE_BULK:
 681:Drivers/STM32F0xx_HAL_Driver/Src/stm32f0xx_hal_pcd.c ****     PCD_SET_EPTYPE(hpcd->Instance, ep->num, USB_EP_BULK);
 682:Drivers/STM32F0xx_HAL_Driver/Src/stm32f0xx_hal_pcd.c ****     break;
 683:Drivers/STM32F0xx_HAL_Driver/Src/stm32f0xx_hal_pcd.c ****   case PCD_EP_TYPE_INTR:
 684:Drivers/STM32F0xx_HAL_Driver/Src/stm32f0xx_hal_pcd.c ****     PCD_SET_EPTYPE(hpcd->Instance, ep->num, USB_EP_INTERRUPT);
 685:Drivers/STM32F0xx_HAL_Driver/Src/stm32f0xx_hal_pcd.c ****     break;
 686:Drivers/STM32F0xx_HAL_Driver/Src/stm32f0xx_hal_pcd.c ****   case PCD_EP_TYPE_ISOC:
 687:Drivers/STM32F0xx_HAL_Driver/Src/stm32f0xx_hal_pcd.c ****     PCD_SET_EPTYPE(hpcd->Instance, ep->num, USB_EP_ISOCHRONOUS);
 688:Drivers/STM32F0xx_HAL_Driver/Src/stm32f0xx_hal_pcd.c ****     break;
ARM GAS  /tmp/ccMLnPi5.s 			page 29


 689:Drivers/STM32F0xx_HAL_Driver/Src/stm32f0xx_hal_pcd.c ****   default:
 690:Drivers/STM32F0xx_HAL_Driver/Src/stm32f0xx_hal_pcd.c ****     break;
 691:Drivers/STM32F0xx_HAL_Driver/Src/stm32f0xx_hal_pcd.c ****   } 
 692:Drivers/STM32F0xx_HAL_Driver/Src/stm32f0xx_hal_pcd.c ****   
 693:Drivers/STM32F0xx_HAL_Driver/Src/stm32f0xx_hal_pcd.c ****   PCD_SET_EP_ADDRESS(hpcd->Instance, ep->num, ep->num);
 902              		.loc 1 693 0
 903 0052 2378     		ldrb	r3, [r4]
 904 0054 9A00     		lsls	r2, r3, #2
 905 0056 0168     		ldr	r1, [r0]
 906 0058 8C46     		mov	ip, r1
 907 005a 6244     		add	r2, r2, ip
 908 005c 1188     		ldrh	r1, [r2]
 909 005e BE4D     		ldr	r5, .L72
 910 0060 2940     		ands	r1, r5
 911 0062 1943     		orrs	r1, r3
 912 0064 BD4B     		ldr	r3, .L72+4
 913 0066 0B43     		orrs	r3, r1
 914 0068 9BB2     		uxth	r3, r3
 915 006a 1380     		strh	r3, [r2]
 694:Drivers/STM32F0xx_HAL_Driver/Src/stm32f0xx_hal_pcd.c ****   
 695:Drivers/STM32F0xx_HAL_Driver/Src/stm32f0xx_hal_pcd.c ****   if (ep->doublebuffer == 0U) 
 916              		.loc 1 695 0
 917 006c A37A     		ldrb	r3, [r4, #10]
 918 006e 002B     		cmp	r3, #0
 919 0070 00D0     		beq	.LCB709
 920 0072 BEE0     		b	.L56	@long jump
 921              	.LCB709:
 696:Drivers/STM32F0xx_HAL_Driver/Src/stm32f0xx_hal_pcd.c ****   {
 697:Drivers/STM32F0xx_HAL_Driver/Src/stm32f0xx_hal_pcd.c ****     if (ep->is_in)
 922              		.loc 1 697 0
 923 0074 6378     		ldrb	r3, [r4, #1]
 924 0076 002B     		cmp	r3, #0
 925 0078 00D1     		bne	.LCB712
 926 007a 6DE0     		b	.L57	@long jump
 927              	.LCB712:
 698:Drivers/STM32F0xx_HAL_Driver/Src/stm32f0xx_hal_pcd.c ****     {
 699:Drivers/STM32F0xx_HAL_Driver/Src/stm32f0xx_hal_pcd.c ****       /*Set the endpoint Transmit buffer address */
 700:Drivers/STM32F0xx_HAL_Driver/Src/stm32f0xx_hal_pcd.c ****       PCD_SET_EP_TX_ADDRESS(hpcd->Instance, ep->num, ep->pmaadress);
 928              		.loc 1 700 0
 929 007c A288     		ldrh	r2, [r4, #4]
 930 007e 0568     		ldr	r5, [r0]
 931 0080 5023     		movs	r3, #80
 932 0082 EB5A     		ldrh	r3, [r5, r3]
 933 0084 2178     		ldrb	r1, [r4]
 934 0086 C900     		lsls	r1, r1, #3
 935 0088 5B18     		adds	r3, r3, r1
 936 008a 5B19     		adds	r3, r3, r5
 937 008c 8021     		movs	r1, #128
 938 008e C900     		lsls	r1, r1, #3
 939 0090 8C46     		mov	ip, r1
 940 0092 6344     		add	r3, r3, ip
 941 0094 0121     		movs	r1, #1
 942 0096 8A43     		bics	r2, r1
 943 0098 1A80     		strh	r2, [r3]
 701:Drivers/STM32F0xx_HAL_Driver/Src/stm32f0xx_hal_pcd.c ****       PCD_CLEAR_TX_DTOG(hpcd->Instance, ep->num)
 944              		.loc 1 701 0
 945 009a 2378     		ldrb	r3, [r4]
ARM GAS  /tmp/ccMLnPi5.s 			page 30


 946 009c 9B00     		lsls	r3, r3, #2
 947 009e 0268     		ldr	r2, [r0]
 948 00a0 9446     		mov	ip, r2
 949 00a2 6344     		add	r3, r3, ip
 950 00a4 1A88     		ldrh	r2, [r3]
 951 00a6 5206     		lsls	r2, r2, #25
 952 00a8 06D5     		bpl	.L58
 953              		.loc 1 701 0 is_stmt 0 discriminator 1
 954 00aa 1A88     		ldrh	r2, [r3]
 955 00ac AA49     		ldr	r1, .L72
 956 00ae 1140     		ands	r1, r2
 957 00b0 AB4A     		ldr	r2, .L72+8
 958 00b2 0A43     		orrs	r2, r1
 959 00b4 92B2     		uxth	r2, r2
 960 00b6 1A80     		strh	r2, [r3]
 961              	.L58:
 962              	.LBB2:
 702:Drivers/STM32F0xx_HAL_Driver/Src/stm32f0xx_hal_pcd.c ****       /* Configure NAK status for the Endpoint*/
 703:Drivers/STM32F0xx_HAL_Driver/Src/stm32f0xx_hal_pcd.c ****       PCD_SET_EP_TX_STATUS(hpcd->Instance, ep->num, USB_EP_TX_NAK) 
 963              		.loc 1 703 0 is_stmt 1
 964 00b8 2178     		ldrb	r1, [r4]
 965 00ba 8900     		lsls	r1, r1, #2
 966 00bc 0368     		ldr	r3, [r0]
 967 00be 9C46     		mov	ip, r3
 968 00c0 6144     		add	r1, r1, ip
 969 00c2 0B88     		ldrh	r3, [r1]
 970 00c4 A74A     		ldr	r2, .L72+12
 971 00c6 1340     		ands	r3, r2
 972              	.LVL62:
 973 00c8 2022     		movs	r2, #32
 974 00ca 5A40     		eors	r2, r3
 975              	.LVL63:
 976 00cc A34B     		ldr	r3, .L72+4
 977 00ce 1343     		orrs	r3, r2
 978 00d0 9BB2     		uxth	r3, r3
 979 00d2 0B80     		strh	r3, [r1]
 980              	.LVL64:
 981              	.L59:
 982              	.LBE2:
 704:Drivers/STM32F0xx_HAL_Driver/Src/stm32f0xx_hal_pcd.c ****     }
 705:Drivers/STM32F0xx_HAL_Driver/Src/stm32f0xx_hal_pcd.c ****     else
 706:Drivers/STM32F0xx_HAL_Driver/Src/stm32f0xx_hal_pcd.c ****     {
 707:Drivers/STM32F0xx_HAL_Driver/Src/stm32f0xx_hal_pcd.c ****       /*Set the endpoint Receive buffer address */
 708:Drivers/STM32F0xx_HAL_Driver/Src/stm32f0xx_hal_pcd.c ****       PCD_SET_EP_RX_ADDRESS(hpcd->Instance, ep->num, ep->pmaadress);
 709:Drivers/STM32F0xx_HAL_Driver/Src/stm32f0xx_hal_pcd.c ****       /*Set the endpoint Receive buffer counter*/
 710:Drivers/STM32F0xx_HAL_Driver/Src/stm32f0xx_hal_pcd.c ****       PCD_SET_EP_RX_CNT(hpcd->Instance, ep->num, ep->maxpacket)
 711:Drivers/STM32F0xx_HAL_Driver/Src/stm32f0xx_hal_pcd.c ****       PCD_CLEAR_RX_DTOG(hpcd->Instance, ep->num)
 712:Drivers/STM32F0xx_HAL_Driver/Src/stm32f0xx_hal_pcd.c ****       /* Configure VALID status for the Endpoint*/
 713:Drivers/STM32F0xx_HAL_Driver/Src/stm32f0xx_hal_pcd.c ****       PCD_SET_EP_RX_STATUS(hpcd->Instance, ep->num, USB_EP_RX_VALID)
 714:Drivers/STM32F0xx_HAL_Driver/Src/stm32f0xx_hal_pcd.c ****     }
 715:Drivers/STM32F0xx_HAL_Driver/Src/stm32f0xx_hal_pcd.c ****   }
 716:Drivers/STM32F0xx_HAL_Driver/Src/stm32f0xx_hal_pcd.c ****   /*Double Buffer*/
 717:Drivers/STM32F0xx_HAL_Driver/Src/stm32f0xx_hal_pcd.c ****   else
 718:Drivers/STM32F0xx_HAL_Driver/Src/stm32f0xx_hal_pcd.c ****   {
 719:Drivers/STM32F0xx_HAL_Driver/Src/stm32f0xx_hal_pcd.c ****     /*Set the endpoint as double buffered*/
 720:Drivers/STM32F0xx_HAL_Driver/Src/stm32f0xx_hal_pcd.c ****     PCD_SET_EP_DBUF(hpcd->Instance, ep->num);
 721:Drivers/STM32F0xx_HAL_Driver/Src/stm32f0xx_hal_pcd.c ****     /*Set buffer address for double buffered mode*/
ARM GAS  /tmp/ccMLnPi5.s 			page 31


 722:Drivers/STM32F0xx_HAL_Driver/Src/stm32f0xx_hal_pcd.c ****     PCD_SET_EP_DBUF_ADDR(hpcd->Instance, ep->num,ep->pmaaddr0, ep->pmaaddr1)
 723:Drivers/STM32F0xx_HAL_Driver/Src/stm32f0xx_hal_pcd.c ****     
 724:Drivers/STM32F0xx_HAL_Driver/Src/stm32f0xx_hal_pcd.c ****     if (ep->is_in==0U)
 725:Drivers/STM32F0xx_HAL_Driver/Src/stm32f0xx_hal_pcd.c ****     {
 726:Drivers/STM32F0xx_HAL_Driver/Src/stm32f0xx_hal_pcd.c ****       /* Clear the data toggle bits for the endpoint IN/OUT*/
 727:Drivers/STM32F0xx_HAL_Driver/Src/stm32f0xx_hal_pcd.c ****       PCD_CLEAR_RX_DTOG(hpcd->Instance, ep->num)
 728:Drivers/STM32F0xx_HAL_Driver/Src/stm32f0xx_hal_pcd.c ****       PCD_CLEAR_TX_DTOG(hpcd->Instance, ep->num)
 729:Drivers/STM32F0xx_HAL_Driver/Src/stm32f0xx_hal_pcd.c ****       
 730:Drivers/STM32F0xx_HAL_Driver/Src/stm32f0xx_hal_pcd.c ****       /* Reset value of the data toggle bits for the endpoint out*/
 731:Drivers/STM32F0xx_HAL_Driver/Src/stm32f0xx_hal_pcd.c ****       PCD_TX_DTOG(hpcd->Instance, ep->num);
 732:Drivers/STM32F0xx_HAL_Driver/Src/stm32f0xx_hal_pcd.c ****       
 733:Drivers/STM32F0xx_HAL_Driver/Src/stm32f0xx_hal_pcd.c ****       PCD_SET_EP_RX_STATUS(hpcd->Instance, ep->num, USB_EP_RX_VALID)
 734:Drivers/STM32F0xx_HAL_Driver/Src/stm32f0xx_hal_pcd.c ****       PCD_SET_EP_TX_STATUS(hpcd->Instance, ep->num, USB_EP_TX_DIS)
 735:Drivers/STM32F0xx_HAL_Driver/Src/stm32f0xx_hal_pcd.c ****     }
 736:Drivers/STM32F0xx_HAL_Driver/Src/stm32f0xx_hal_pcd.c ****     else
 737:Drivers/STM32F0xx_HAL_Driver/Src/stm32f0xx_hal_pcd.c ****     {
 738:Drivers/STM32F0xx_HAL_Driver/Src/stm32f0xx_hal_pcd.c ****       /* Clear the data toggle bits for the endpoint IN/OUT*/
 739:Drivers/STM32F0xx_HAL_Driver/Src/stm32f0xx_hal_pcd.c ****       PCD_CLEAR_RX_DTOG(hpcd->Instance, ep->num)
 740:Drivers/STM32F0xx_HAL_Driver/Src/stm32f0xx_hal_pcd.c ****       PCD_CLEAR_TX_DTOG(hpcd->Instance, ep->num)
 741:Drivers/STM32F0xx_HAL_Driver/Src/stm32f0xx_hal_pcd.c ****       PCD_RX_DTOG(hpcd->Instance, ep->num);
 742:Drivers/STM32F0xx_HAL_Driver/Src/stm32f0xx_hal_pcd.c ****       /* Configure DISABLE status for the Endpoint*/
 743:Drivers/STM32F0xx_HAL_Driver/Src/stm32f0xx_hal_pcd.c ****       PCD_SET_EP_TX_STATUS(hpcd->Instance, ep->num, USB_EP_TX_DIS)
 744:Drivers/STM32F0xx_HAL_Driver/Src/stm32f0xx_hal_pcd.c ****       PCD_SET_EP_RX_STATUS(hpcd->Instance, ep->num, USB_EP_RX_DIS)
 745:Drivers/STM32F0xx_HAL_Driver/Src/stm32f0xx_hal_pcd.c ****     }
 746:Drivers/STM32F0xx_HAL_Driver/Src/stm32f0xx_hal_pcd.c ****   } 
 747:Drivers/STM32F0xx_HAL_Driver/Src/stm32f0xx_hal_pcd.c ****   
 748:Drivers/STM32F0xx_HAL_Driver/Src/stm32f0xx_hal_pcd.c ****   __HAL_UNLOCK(hpcd);   
 983              		.loc 1 748 0
 984 00d4 F423     		movs	r3, #244
 985 00d6 5B00     		lsls	r3, r3, #1
 986 00d8 0022     		movs	r2, #0
 987 00da C254     		strb	r2, [r0, r3]
 749:Drivers/STM32F0xx_HAL_Driver/Src/stm32f0xx_hal_pcd.c ****   return ret;
 988              		.loc 1 749 0
 989 00dc 0020     		movs	r0, #0
 990              	.LVL65:
 991              	.L50:
 750:Drivers/STM32F0xx_HAL_Driver/Src/stm32f0xx_hal_pcd.c **** }
 992              		.loc 1 750 0
 993              		@ sp needed
 994 00de F0BD     		pop	{r4, r5, r6, r7, pc}
 995              	.LVL66:
 996              	.L71:
 660:Drivers/STM32F0xx_HAL_Driver/Src/stm32f0xx_hal_pcd.c ****   }
 997              		.loc 1 660 0
 998 00e0 7F24     		movs	r4, #127
 999 00e2 0C40     		ands	r4, r1
 1000 00e4 E600     		lsls	r6, r4, #3
 1001 00e6 361B     		subs	r6, r6, r4
 1002 00e8 B400     		lsls	r4, r6, #2
 1003 00ea 2834     		adds	r4, r4, #40
 1004 00ec 0419     		adds	r4, r0, r4
 1005              	.LVL67:
 1006 00ee 94E7     		b	.L49
 1007              	.LVL68:
 1008              	.L53:
 678:Drivers/STM32F0xx_HAL_Driver/Src/stm32f0xx_hal_pcd.c ****     break;
ARM GAS  /tmp/ccMLnPi5.s 			page 32


 1009              		.loc 1 678 0
 1010 00f0 2278     		ldrb	r2, [r4]
 1011 00f2 9200     		lsls	r2, r2, #2
 1012 00f4 0368     		ldr	r3, [r0]
 1013 00f6 9C46     		mov	ip, r3
 1014 00f8 6244     		add	r2, r2, ip
 1015 00fa 1388     		ldrh	r3, [r2]
 1016 00fc 9A49     		ldr	r1, .L72+16
 1017 00fe 1940     		ands	r1, r3
 1018 0100 9A4B     		ldr	r3, .L72+20
 1019 0102 0B43     		orrs	r3, r1
 1020 0104 9BB2     		uxth	r3, r3
 1021 0106 1380     		strh	r3, [r2]
 679:Drivers/STM32F0xx_HAL_Driver/Src/stm32f0xx_hal_pcd.c ****   case PCD_EP_TYPE_BULK:
 1022              		.loc 1 679 0
 1023 0108 A3E7     		b	.L51
 1024              	.L54:
 681:Drivers/STM32F0xx_HAL_Driver/Src/stm32f0xx_hal_pcd.c ****     break;
 1025              		.loc 1 681 0
 1026 010a 2278     		ldrb	r2, [r4]
 1027 010c 9200     		lsls	r2, r2, #2
 1028 010e 0368     		ldr	r3, [r0]
 1029 0110 9C46     		mov	ip, r3
 1030 0112 6244     		add	r2, r2, ip
 1031 0114 1388     		ldrh	r3, [r2]
 1032 0116 9449     		ldr	r1, .L72+16
 1033 0118 1940     		ands	r1, r3
 1034 011a 904B     		ldr	r3, .L72+4
 1035 011c 0B43     		orrs	r3, r1
 1036 011e 9BB2     		uxth	r3, r3
 1037 0120 1380     		strh	r3, [r2]
 682:Drivers/STM32F0xx_HAL_Driver/Src/stm32f0xx_hal_pcd.c ****   case PCD_EP_TYPE_INTR:
 1038              		.loc 1 682 0
 1039 0122 96E7     		b	.L51
 1040              	.L55:
 684:Drivers/STM32F0xx_HAL_Driver/Src/stm32f0xx_hal_pcd.c ****     break;
 1041              		.loc 1 684 0
 1042 0124 2278     		ldrb	r2, [r4]
 1043 0126 9200     		lsls	r2, r2, #2
 1044 0128 0368     		ldr	r3, [r0]
 1045 012a 9C46     		mov	ip, r3
 1046 012c 6244     		add	r2, r2, ip
 1047 012e 1388     		ldrh	r3, [r2]
 1048 0130 8D49     		ldr	r1, .L72+16
 1049 0132 1940     		ands	r1, r3
 1050 0134 8E4B     		ldr	r3, .L72+24
 1051 0136 0B43     		orrs	r3, r1
 1052 0138 9BB2     		uxth	r3, r3
 1053 013a 1380     		strh	r3, [r2]
 685:Drivers/STM32F0xx_HAL_Driver/Src/stm32f0xx_hal_pcd.c ****   case PCD_EP_TYPE_ISOC:
 1054              		.loc 1 685 0
 1055 013c 89E7     		b	.L51
 1056              	.L52:
 687:Drivers/STM32F0xx_HAL_Driver/Src/stm32f0xx_hal_pcd.c ****     break;
 1057              		.loc 1 687 0
 1058 013e 2278     		ldrb	r2, [r4]
 1059 0140 9200     		lsls	r2, r2, #2
ARM GAS  /tmp/ccMLnPi5.s 			page 33


 1060 0142 0368     		ldr	r3, [r0]
 1061 0144 9C46     		mov	ip, r3
 1062 0146 6244     		add	r2, r2, ip
 1063 0148 1388     		ldrh	r3, [r2]
 1064 014a 8749     		ldr	r1, .L72+16
 1065 014c 1940     		ands	r1, r3
 1066 014e 894B     		ldr	r3, .L72+28
 1067 0150 0B43     		orrs	r3, r1
 1068 0152 9BB2     		uxth	r3, r3
 1069 0154 1380     		strh	r3, [r2]
 688:Drivers/STM32F0xx_HAL_Driver/Src/stm32f0xx_hal_pcd.c ****   default:
 1070              		.loc 1 688 0
 1071 0156 7CE7     		b	.L51
 1072              	.L57:
 708:Drivers/STM32F0xx_HAL_Driver/Src/stm32f0xx_hal_pcd.c ****       /*Set the endpoint Receive buffer counter*/
 1073              		.loc 1 708 0
 1074 0158 A288     		ldrh	r2, [r4, #4]
 1075 015a 0568     		ldr	r5, [r0]
 1076 015c 5026     		movs	r6, #80
 1077 015e AB5B     		ldrh	r3, [r5, r6]
 1078 0160 2178     		ldrb	r1, [r4]
 1079 0162 C900     		lsls	r1, r1, #3
 1080 0164 5B18     		adds	r3, r3, r1
 1081 0166 5B19     		adds	r3, r3, r5
 1082 0168 8349     		ldr	r1, .L72+32
 1083 016a 8C46     		mov	ip, r1
 1084 016c 6344     		add	r3, r3, ip
 1085 016e 0121     		movs	r1, #1
 1086 0170 8A43     		bics	r2, r1
 1087 0172 1A80     		strh	r2, [r3]
 1088              	.LBB3:
 710:Drivers/STM32F0xx_HAL_Driver/Src/stm32f0xx_hal_pcd.c ****       PCD_CLEAR_RX_DTOG(hpcd->Instance, ep->num)
 1089              		.loc 1 710 0
 1090 0174 0168     		ldr	r1, [r0]
 1091 0176 8B5B     		ldrh	r3, [r1, r6]
 1092 0178 2278     		ldrb	r2, [r4]
 1093 017a D200     		lsls	r2, r2, #3
 1094 017c 9B18     		adds	r3, r3, r2
 1095 017e 5B18     		adds	r3, r3, r1
 1096 0180 7E4A     		ldr	r2, .L72+36
 1097 0182 9446     		mov	ip, r2
 1098 0184 6344     		add	r3, r3, ip
 1099              	.LVL69:
 1100              	.LBB4:
 1101 0186 E168     		ldr	r1, [r4, #12]
 1102 0188 3E29     		cmp	r1, #62
 1103 018a 29D9     		bls	.L60
 710:Drivers/STM32F0xx_HAL_Driver/Src/stm32f0xx_hal_pcd.c ****       PCD_CLEAR_RX_DTOG(hpcd->Instance, ep->num)
 1104              		.loc 1 710 0 is_stmt 0 discriminator 1
 1105 018c 4A09     		lsrs	r2, r1, #5
 1106 018e 92B2     		uxth	r2, r2
 1107              	.LVL70:
 1108 0190 C906     		lsls	r1, r1, #27
 1109 0192 01D1     		bne	.L61
 710:Drivers/STM32F0xx_HAL_Driver/Src/stm32f0xx_hal_pcd.c ****       PCD_CLEAR_RX_DTOG(hpcd->Instance, ep->num)
 1110              		.loc 1 710 0 discriminator 3
 1111 0194 013A     		subs	r2, r2, #1
ARM GAS  /tmp/ccMLnPi5.s 			page 34


 1112              	.LVL71:
 1113 0196 92B2     		uxth	r2, r2
 1114              	.LVL72:
 1115              	.L61:
 710:Drivers/STM32F0xx_HAL_Driver/Src/stm32f0xx_hal_pcd.c ****       PCD_CLEAR_RX_DTOG(hpcd->Instance, ep->num)
 1116              		.loc 1 710 0 discriminator 5
 1117 0198 9202     		lsls	r2, r2, #10
 1118              	.LVL73:
 1119 019a 92B2     		uxth	r2, r2
 1120 019c 7849     		ldr	r1, .L72+40
 1121 019e 0A43     		orrs	r2, r1
 1122 01a0 1A80     		strh	r2, [r3]
 1123              	.L62:
 1124              	.LBE4:
 1125              	.LBE3:
 711:Drivers/STM32F0xx_HAL_Driver/Src/stm32f0xx_hal_pcd.c ****       /* Configure VALID status for the Endpoint*/
 1126              		.loc 1 711 0 is_stmt 1
 1127 01a2 2378     		ldrb	r3, [r4]
 1128              	.LVL74:
 1129 01a4 9B00     		lsls	r3, r3, #2
 1130 01a6 0268     		ldr	r2, [r0]
 1131 01a8 9446     		mov	ip, r2
 1132 01aa 6344     		add	r3, r3, ip
 1133 01ac 1A88     		ldrh	r2, [r3]
 1134 01ae 5204     		lsls	r2, r2, #17
 1135 01b0 06D5     		bpl	.L64
 711:Drivers/STM32F0xx_HAL_Driver/Src/stm32f0xx_hal_pcd.c ****       /* Configure VALID status for the Endpoint*/
 1136              		.loc 1 711 0 is_stmt 0 discriminator 1
 1137 01b2 1A88     		ldrh	r2, [r3]
 1138 01b4 6849     		ldr	r1, .L72
 1139 01b6 1140     		ands	r1, r2
 1140 01b8 724A     		ldr	r2, .L72+44
 1141 01ba 0A43     		orrs	r2, r1
 1142 01bc 92B2     		uxth	r2, r2
 1143 01be 1A80     		strh	r2, [r3]
 1144              	.L64:
 1145              	.LBB6:
 713:Drivers/STM32F0xx_HAL_Driver/Src/stm32f0xx_hal_pcd.c ****     }
 1146              		.loc 1 713 0 is_stmt 1
 1147 01c0 2278     		ldrb	r2, [r4]
 1148 01c2 9200     		lsls	r2, r2, #2
 1149 01c4 0368     		ldr	r3, [r0]
 1150 01c6 9C46     		mov	ip, r3
 1151 01c8 6244     		add	r2, r2, ip
 1152 01ca 1188     		ldrh	r1, [r2]
 1153 01cc 6E4B     		ldr	r3, .L72+48
 1154 01ce 1940     		ands	r1, r3
 1155              	.LVL75:
 1156 01d0 C023     		movs	r3, #192
 1157 01d2 9B01     		lsls	r3, r3, #6
 1158 01d4 5940     		eors	r1, r3
 1159              	.LVL76:
 1160 01d6 614B     		ldr	r3, .L72+4
 1161 01d8 0B43     		orrs	r3, r1
 1162 01da 9BB2     		uxth	r3, r3
 1163 01dc 1380     		strh	r3, [r2]
 1164 01de 79E7     		b	.L59
ARM GAS  /tmp/ccMLnPi5.s 			page 35


 1165              	.LVL77:
 1166              	.L60:
 1167              	.LBE6:
 1168              	.LBB7:
 1169              	.LBB5:
 710:Drivers/STM32F0xx_HAL_Driver/Src/stm32f0xx_hal_pcd.c ****       PCD_CLEAR_RX_DTOG(hpcd->Instance, ep->num)
 1170              		.loc 1 710 0 discriminator 2
 1171 01e0 4A08     		lsrs	r2, r1, #1
 1172 01e2 92B2     		uxth	r2, r2
 1173              	.LVL78:
 1174 01e4 C907     		lsls	r1, r1, #31
 1175 01e6 01D5     		bpl	.L63
 710:Drivers/STM32F0xx_HAL_Driver/Src/stm32f0xx_hal_pcd.c ****       PCD_CLEAR_RX_DTOG(hpcd->Instance, ep->num)
 1176              		.loc 1 710 0 is_stmt 0 discriminator 6
 1177 01e8 0132     		adds	r2, r2, #1
 1178              	.LVL79:
 1179 01ea 92B2     		uxth	r2, r2
 1180              	.LVL80:
 1181              	.L63:
 710:Drivers/STM32F0xx_HAL_Driver/Src/stm32f0xx_hal_pcd.c ****       PCD_CLEAR_RX_DTOG(hpcd->Instance, ep->num)
 1182              		.loc 1 710 0 discriminator 8
 1183 01ec 9202     		lsls	r2, r2, #10
 1184              	.LVL81:
 1185 01ee 1A80     		strh	r2, [r3]
 1186 01f0 D7E7     		b	.L62
 1187              	.LVL82:
 1188              	.L56:
 1189              	.LBE5:
 1190              	.LBE7:
 720:Drivers/STM32F0xx_HAL_Driver/Src/stm32f0xx_hal_pcd.c ****     /*Set buffer address for double buffered mode*/
 1191              		.loc 1 720 0 is_stmt 1
 1192 01f2 2278     		ldrb	r2, [r4]
 1193 01f4 9200     		lsls	r2, r2, #2
 1194 01f6 0368     		ldr	r3, [r0]
 1195 01f8 9C46     		mov	ip, r3
 1196 01fa 6244     		add	r2, r2, ip
 1197 01fc 1388     		ldrh	r3, [r2]
 1198 01fe 6349     		ldr	r1, .L72+52
 1199 0200 1940     		ands	r1, r3
 1200 0202 634B     		ldr	r3, .L72+56
 1201 0204 0B43     		orrs	r3, r1
 1202 0206 9BB2     		uxth	r3, r3
 1203 0208 1380     		strh	r3, [r2]
 722:Drivers/STM32F0xx_HAL_Driver/Src/stm32f0xx_hal_pcd.c ****     
 1204              		.loc 1 722 0
 1205 020a E288     		ldrh	r2, [r4, #6]
 1206 020c 0568     		ldr	r5, [r0]
 1207 020e 5027     		movs	r7, #80
 1208 0210 EB5B     		ldrh	r3, [r5, r7]
 1209 0212 2178     		ldrb	r1, [r4]
 1210 0214 C900     		lsls	r1, r1, #3
 1211 0216 5B18     		adds	r3, r3, r1
 1212 0218 5B19     		adds	r3, r3, r5
 1213 021a 8021     		movs	r1, #128
 1214 021c C900     		lsls	r1, r1, #3
 1215 021e 8C46     		mov	ip, r1
 1216 0220 6344     		add	r3, r3, ip
ARM GAS  /tmp/ccMLnPi5.s 			page 36


 1217 0222 0126     		movs	r6, #1
 1218 0224 B243     		bics	r2, r6
 1219 0226 1A80     		strh	r2, [r3]
 1220 0228 2289     		ldrh	r2, [r4, #8]
 1221 022a 0568     		ldr	r5, [r0]
 1222 022c EB5B     		ldrh	r3, [r5, r7]
 1223 022e 2178     		ldrb	r1, [r4]
 1224 0230 C900     		lsls	r1, r1, #3
 1225 0232 5B18     		adds	r3, r3, r1
 1226 0234 5B19     		adds	r3, r3, r5
 1227 0236 5049     		ldr	r1, .L72+32
 1228 0238 8C46     		mov	ip, r1
 1229 023a 6344     		add	r3, r3, ip
 1230 023c B243     		bics	r2, r6
 1231 023e 1A80     		strh	r2, [r3]
 724:Drivers/STM32F0xx_HAL_Driver/Src/stm32f0xx_hal_pcd.c ****     {
 1232              		.loc 1 724 0
 1233 0240 6378     		ldrb	r3, [r4, #1]
 1234 0242 002B     		cmp	r3, #0
 1235 0244 44D1     		bne	.L65
 727:Drivers/STM32F0xx_HAL_Driver/Src/stm32f0xx_hal_pcd.c ****       PCD_CLEAR_TX_DTOG(hpcd->Instance, ep->num)
 1236              		.loc 1 727 0
 1237 0246 2378     		ldrb	r3, [r4]
 1238 0248 9B00     		lsls	r3, r3, #2
 1239 024a 0268     		ldr	r2, [r0]
 1240 024c 9446     		mov	ip, r2
 1241 024e 6344     		add	r3, r3, ip
 1242 0250 1A88     		ldrh	r2, [r3]
 1243 0252 5204     		lsls	r2, r2, #17
 1244 0254 06D5     		bpl	.L66
 727:Drivers/STM32F0xx_HAL_Driver/Src/stm32f0xx_hal_pcd.c ****       PCD_CLEAR_TX_DTOG(hpcd->Instance, ep->num)
 1245              		.loc 1 727 0 is_stmt 0 discriminator 1
 1246 0256 1A88     		ldrh	r2, [r3]
 1247 0258 3F49     		ldr	r1, .L72
 1248 025a 1140     		ands	r1, r2
 1249 025c 494A     		ldr	r2, .L72+44
 1250 025e 0A43     		orrs	r2, r1
 1251 0260 92B2     		uxth	r2, r2
 1252 0262 1A80     		strh	r2, [r3]
 1253              	.L66:
 728:Drivers/STM32F0xx_HAL_Driver/Src/stm32f0xx_hal_pcd.c ****       
 1254              		.loc 1 728 0 is_stmt 1
 1255 0264 2378     		ldrb	r3, [r4]
 1256 0266 9B00     		lsls	r3, r3, #2
 1257 0268 0268     		ldr	r2, [r0]
 1258 026a 9446     		mov	ip, r2
 1259 026c 6344     		add	r3, r3, ip
 1260 026e 1A88     		ldrh	r2, [r3]
 1261 0270 5206     		lsls	r2, r2, #25
 1262 0272 06D5     		bpl	.L67
 728:Drivers/STM32F0xx_HAL_Driver/Src/stm32f0xx_hal_pcd.c ****       
 1263              		.loc 1 728 0 is_stmt 0 discriminator 1
 1264 0274 1A88     		ldrh	r2, [r3]
 1265 0276 3849     		ldr	r1, .L72
 1266 0278 1140     		ands	r1, r2
 1267 027a 394A     		ldr	r2, .L72+8
 1268 027c 0A43     		orrs	r2, r1
ARM GAS  /tmp/ccMLnPi5.s 			page 37


 1269 027e 92B2     		uxth	r2, r2
 1270 0280 1A80     		strh	r2, [r3]
 1271              	.L67:
 731:Drivers/STM32F0xx_HAL_Driver/Src/stm32f0xx_hal_pcd.c ****       
 1272              		.loc 1 731 0 is_stmt 1
 1273 0282 2278     		ldrb	r2, [r4]
 1274 0284 9200     		lsls	r2, r2, #2
 1275 0286 0368     		ldr	r3, [r0]
 1276 0288 9C46     		mov	ip, r3
 1277 028a 6244     		add	r2, r2, ip
 1278 028c 1388     		ldrh	r3, [r2]
 1279 028e 3249     		ldr	r1, .L72
 1280 0290 1940     		ands	r1, r3
 1281 0292 334B     		ldr	r3, .L72+8
 1282 0294 0B43     		orrs	r3, r1
 1283 0296 9BB2     		uxth	r3, r3
 1284 0298 1380     		strh	r3, [r2]
 1285              	.LBB8:
 733:Drivers/STM32F0xx_HAL_Driver/Src/stm32f0xx_hal_pcd.c ****       PCD_SET_EP_TX_STATUS(hpcd->Instance, ep->num, USB_EP_TX_DIS)
 1286              		.loc 1 733 0
 1287 029a 2178     		ldrb	r1, [r4]
 1288 029c 8900     		lsls	r1, r1, #2
 1289 029e 0368     		ldr	r3, [r0]
 1290 02a0 9C46     		mov	ip, r3
 1291 02a2 6144     		add	r1, r1, ip
 1292 02a4 0B88     		ldrh	r3, [r1]
 1293 02a6 384A     		ldr	r2, .L72+48
 1294 02a8 1A40     		ands	r2, r3
 1295              	.LVL83:
 1296 02aa C023     		movs	r3, #192
 1297 02ac 9B01     		lsls	r3, r3, #6
 1298 02ae 5340     		eors	r3, r2
 1299              	.LVL84:
 1300 02b0 2A4A     		ldr	r2, .L72+4
 1301 02b2 1343     		orrs	r3, r2
 1302              	.LVL85:
 1303 02b4 9BB2     		uxth	r3, r3
 1304 02b6 0B80     		strh	r3, [r1]
 1305              	.LBE8:
 1306              	.LBB9:
 734:Drivers/STM32F0xx_HAL_Driver/Src/stm32f0xx_hal_pcd.c ****     }
 1307              		.loc 1 734 0
 1308 02b8 2378     		ldrb	r3, [r4]
 1309 02ba 9B00     		lsls	r3, r3, #2
 1310 02bc 0168     		ldr	r1, [r0]
 1311 02be 8C46     		mov	ip, r1
 1312 02c0 6344     		add	r3, r3, ip
 1313 02c2 1988     		ldrh	r1, [r3]
 1314 02c4 274C     		ldr	r4, .L72+12
 1315              	.LVL86:
 1316 02c6 2140     		ands	r1, r4
 1317              	.LVL87:
 1318 02c8 0A43     		orrs	r2, r1
 1319 02ca 92B2     		uxth	r2, r2
 1320 02cc 1A80     		strh	r2, [r3]
 1321              	.LBE9:
 1322 02ce 01E7     		b	.L59
ARM GAS  /tmp/ccMLnPi5.s 			page 38


 1323              	.LVL88:
 1324              	.L65:
 739:Drivers/STM32F0xx_HAL_Driver/Src/stm32f0xx_hal_pcd.c ****       PCD_CLEAR_TX_DTOG(hpcd->Instance, ep->num)
 1325              		.loc 1 739 0
 1326 02d0 2378     		ldrb	r3, [r4]
 1327 02d2 9B00     		lsls	r3, r3, #2
 1328 02d4 0268     		ldr	r2, [r0]
 1329 02d6 9446     		mov	ip, r2
 1330 02d8 6344     		add	r3, r3, ip
 1331 02da 1A88     		ldrh	r2, [r3]
 1332 02dc 5204     		lsls	r2, r2, #17
 1333 02de 06D5     		bpl	.L68
 739:Drivers/STM32F0xx_HAL_Driver/Src/stm32f0xx_hal_pcd.c ****       PCD_CLEAR_TX_DTOG(hpcd->Instance, ep->num)
 1334              		.loc 1 739 0 is_stmt 0 discriminator 1
 1335 02e0 1A88     		ldrh	r2, [r3]
 1336 02e2 1D49     		ldr	r1, .L72
 1337 02e4 1140     		ands	r1, r2
 1338 02e6 274A     		ldr	r2, .L72+44
 1339 02e8 0A43     		orrs	r2, r1
 1340 02ea 92B2     		uxth	r2, r2
 1341 02ec 1A80     		strh	r2, [r3]
 1342              	.L68:
 740:Drivers/STM32F0xx_HAL_Driver/Src/stm32f0xx_hal_pcd.c ****       PCD_RX_DTOG(hpcd->Instance, ep->num);
 1343              		.loc 1 740 0 is_stmt 1
 1344 02ee 2378     		ldrb	r3, [r4]
 1345 02f0 9B00     		lsls	r3, r3, #2
 1346 02f2 0268     		ldr	r2, [r0]
 1347 02f4 9446     		mov	ip, r2
 1348 02f6 6344     		add	r3, r3, ip
 1349 02f8 1A88     		ldrh	r2, [r3]
 1350 02fa 5206     		lsls	r2, r2, #25
 1351 02fc 06D5     		bpl	.L69
 740:Drivers/STM32F0xx_HAL_Driver/Src/stm32f0xx_hal_pcd.c ****       PCD_RX_DTOG(hpcd->Instance, ep->num);
 1352              		.loc 1 740 0 is_stmt 0 discriminator 1
 1353 02fe 1A88     		ldrh	r2, [r3]
 1354 0300 1549     		ldr	r1, .L72
 1355 0302 1140     		ands	r1, r2
 1356 0304 164A     		ldr	r2, .L72+8
 1357 0306 0A43     		orrs	r2, r1
 1358 0308 92B2     		uxth	r2, r2
 1359 030a 1A80     		strh	r2, [r3]
 1360              	.L69:
 741:Drivers/STM32F0xx_HAL_Driver/Src/stm32f0xx_hal_pcd.c ****       /* Configure DISABLE status for the Endpoint*/
 1361              		.loc 1 741 0 is_stmt 1
 1362 030c 2278     		ldrb	r2, [r4]
 1363 030e 9200     		lsls	r2, r2, #2
 1364 0310 0368     		ldr	r3, [r0]
 1365 0312 9C46     		mov	ip, r3
 1366 0314 6244     		add	r2, r2, ip
 1367 0316 1388     		ldrh	r3, [r2]
 1368 0318 0F49     		ldr	r1, .L72
 1369 031a 1940     		ands	r1, r3
 1370 031c 194B     		ldr	r3, .L72+44
 1371 031e 0B43     		orrs	r3, r1
 1372 0320 9BB2     		uxth	r3, r3
 1373 0322 1380     		strh	r3, [r2]
 1374              	.LBB10:
ARM GAS  /tmp/ccMLnPi5.s 			page 39


 743:Drivers/STM32F0xx_HAL_Driver/Src/stm32f0xx_hal_pcd.c ****       PCD_SET_EP_RX_STATUS(hpcd->Instance, ep->num, USB_EP_RX_DIS)
 1375              		.loc 1 743 0
 1376 0324 2178     		ldrb	r1, [r4]
 1377 0326 8900     		lsls	r1, r1, #2
 1378 0328 0368     		ldr	r3, [r0]
 1379 032a 9C46     		mov	ip, r3
 1380 032c 6144     		add	r1, r1, ip
 1381 032e 0B88     		ldrh	r3, [r1]
 1382 0330 0C4A     		ldr	r2, .L72+12
 1383 0332 1340     		ands	r3, r2
 1384              	.LVL89:
 1385 0334 094A     		ldr	r2, .L72+4
 1386 0336 1343     		orrs	r3, r2
 1387              	.LVL90:
 1388 0338 9BB2     		uxth	r3, r3
 1389 033a 0B80     		strh	r3, [r1]
 1390              	.LBE10:
 1391              	.LBB11:
 744:Drivers/STM32F0xx_HAL_Driver/Src/stm32f0xx_hal_pcd.c ****     }
 1392              		.loc 1 744 0
 1393 033c 2378     		ldrb	r3, [r4]
 1394 033e 9B00     		lsls	r3, r3, #2
 1395 0340 0168     		ldr	r1, [r0]
 1396 0342 8C46     		mov	ip, r1
 1397 0344 6344     		add	r3, r3, ip
 1398 0346 1988     		ldrh	r1, [r3]
 1399 0348 0F4C     		ldr	r4, .L72+48
 1400              	.LVL91:
 1401 034a 2140     		ands	r1, r4
 1402              	.LVL92:
 1403 034c 0A43     		orrs	r2, r1
 1404 034e 92B2     		uxth	r2, r2
 1405 0350 1A80     		strh	r2, [r3]
 1406 0352 BFE6     		b	.L59
 1407              	.LVL93:
 1408              	.L70:
 1409              	.LBE11:
 672:Drivers/STM32F0xx_HAL_Driver/Src/stm32f0xx_hal_pcd.c **** 
 1410              		.loc 1 672 0
 1411 0354 0220     		movs	r0, #2
 1412              	.LVL94:
 1413 0356 C2E6     		b	.L50
 1414              	.L73:
 1415              		.align	2
 1416              	.L72:
 1417 0358 0F0F0000 		.word	3855
 1418 035c 8080FFFF 		.word	-32640
 1419 0360 C080FFFF 		.word	-32576
 1420 0364 BF8FFFFF 		.word	-28737
 1421 0368 0F090000 		.word	2319
 1422 036c 8082FFFF 		.word	-32128
 1423 0370 8086FFFF 		.word	-31104
 1424 0374 8084FFFF 		.word	-31616
 1425 0378 04040000 		.word	1028
 1426 037c 06040000 		.word	1030
 1427 0380 0080FFFF 		.word	-32768
 1428 0384 80C0FFFF 		.word	-16256
ARM GAS  /tmp/ccMLnPi5.s 			page 40


 1429 0388 8FBFFFFF 		.word	-16497
 1430 038c 0F0E0000 		.word	3599
 1431 0390 8081FFFF 		.word	-32384
 1432              		.cfi_endproc
 1433              	.LFE58:
 1435              		.section	.text.HAL_PCD_EP_Close,"ax",%progbits
 1436              		.align	1
 1437              		.global	HAL_PCD_EP_Close
 1438              		.syntax unified
 1439              		.code	16
 1440              		.thumb_func
 1441              		.fpu softvfp
 1443              	HAL_PCD_EP_Close:
 1444              	.LFB59:
 751:Drivers/STM32F0xx_HAL_Driver/Src/stm32f0xx_hal_pcd.c **** 
 752:Drivers/STM32F0xx_HAL_Driver/Src/stm32f0xx_hal_pcd.c **** 
 753:Drivers/STM32F0xx_HAL_Driver/Src/stm32f0xx_hal_pcd.c **** /**
 754:Drivers/STM32F0xx_HAL_Driver/Src/stm32f0xx_hal_pcd.c ****   * @brief  Deactivate an endpoint
 755:Drivers/STM32F0xx_HAL_Driver/Src/stm32f0xx_hal_pcd.c ****   * @param  hpcd PCD handle
 756:Drivers/STM32F0xx_HAL_Driver/Src/stm32f0xx_hal_pcd.c ****   * @param  ep_addr endpoint address
 757:Drivers/STM32F0xx_HAL_Driver/Src/stm32f0xx_hal_pcd.c ****   * @retval HAL status
 758:Drivers/STM32F0xx_HAL_Driver/Src/stm32f0xx_hal_pcd.c ****   */
 759:Drivers/STM32F0xx_HAL_Driver/Src/stm32f0xx_hal_pcd.c **** HAL_StatusTypeDef HAL_PCD_EP_Close(PCD_HandleTypeDef *hpcd, uint8_t ep_addr)
 760:Drivers/STM32F0xx_HAL_Driver/Src/stm32f0xx_hal_pcd.c **** {  
 1445              		.loc 1 760 0
 1446              		.cfi_startproc
 1447              		@ args = 0, pretend = 0, frame = 0
 1448              		@ frame_needed = 0, uses_anonymous_args = 0
 1449              	.LVL95:
 1450 0000 10B5     		push	{r4, lr}
 1451              	.LCFI6:
 1452              		.cfi_def_cfa_offset 8
 1453              		.cfi_offset 4, -8
 1454              		.cfi_offset 14, -4
 761:Drivers/STM32F0xx_HAL_Driver/Src/stm32f0xx_hal_pcd.c ****   PCD_EPTypeDef *ep;
 762:Drivers/STM32F0xx_HAL_Driver/Src/stm32f0xx_hal_pcd.c ****   
 763:Drivers/STM32F0xx_HAL_Driver/Src/stm32f0xx_hal_pcd.c ****   if ((ep_addr & 0x80U) == 0x80U)
 1455              		.loc 1 763 0
 1456 0002 4AB2     		sxtb	r2, r1
 1457 0004 002A     		cmp	r2, #0
 1458 0006 3DDB     		blt	.L89
 764:Drivers/STM32F0xx_HAL_Driver/Src/stm32f0xx_hal_pcd.c ****   {
 765:Drivers/STM32F0xx_HAL_Driver/Src/stm32f0xx_hal_pcd.c ****     ep = &hpcd->IN_ep[ep_addr & 0x7FU];
 766:Drivers/STM32F0xx_HAL_Driver/Src/stm32f0xx_hal_pcd.c ****   }
 767:Drivers/STM32F0xx_HAL_Driver/Src/stm32f0xx_hal_pcd.c ****   else
 768:Drivers/STM32F0xx_HAL_Driver/Src/stm32f0xx_hal_pcd.c ****   {
 769:Drivers/STM32F0xx_HAL_Driver/Src/stm32f0xx_hal_pcd.c ****     ep = &hpcd->OUT_ep[ep_addr & 0x7FU];
 1459              		.loc 1 769 0
 1460 0008 7F23     		movs	r3, #127
 1461 000a 0B40     		ands	r3, r1
 1462 000c DC00     		lsls	r4, r3, #3
 1463 000e E41A     		subs	r4, r4, r3
 1464 0010 A300     		lsls	r3, r4, #2
 1465 0012 0933     		adds	r3, r3, #9
 1466 0014 FF33     		adds	r3, r3, #255
 1467 0016 C318     		adds	r3, r0, r3
 1468              	.LVL96:
ARM GAS  /tmp/ccMLnPi5.s 			page 41


 1469              	.L76:
 770:Drivers/STM32F0xx_HAL_Driver/Src/stm32f0xx_hal_pcd.c ****   }
 771:Drivers/STM32F0xx_HAL_Driver/Src/stm32f0xx_hal_pcd.c ****   ep->num   = ep_addr & 0x7FU;
 1470              		.loc 1 771 0
 1471 0018 7F24     		movs	r4, #127
 1472 001a 2140     		ands	r1, r4
 1473              	.LVL97:
 1474 001c 1970     		strb	r1, [r3]
 772:Drivers/STM32F0xx_HAL_Driver/Src/stm32f0xx_hal_pcd.c ****   
 773:Drivers/STM32F0xx_HAL_Driver/Src/stm32f0xx_hal_pcd.c ****   ep->is_in = (0x80U & ep_addr) != 0U;
 1475              		.loc 1 773 0
 1476 001e D20F     		lsrs	r2, r2, #31
 1477              	.LVL98:
 1478 0020 5A70     		strb	r2, [r3, #1]
 774:Drivers/STM32F0xx_HAL_Driver/Src/stm32f0xx_hal_pcd.c ****   
 775:Drivers/STM32F0xx_HAL_Driver/Src/stm32f0xx_hal_pcd.c ****   __HAL_LOCK(hpcd); 
 1479              		.loc 1 775 0
 1480 0022 F422     		movs	r2, #244
 1481 0024 5200     		lsls	r2, r2, #1
 1482 0026 825C     		ldrb	r2, [r0, r2]
 1483 0028 012A     		cmp	r2, #1
 1484 002a 00D1     		bne	.LCB1399
 1485 002c D5E0     		b	.L88	@long jump
 1486              	.LCB1399:
 1487              		.loc 1 775 0 is_stmt 0 discriminator 2
 1488 002e F422     		movs	r2, #244
 1489 0030 5200     		lsls	r2, r2, #1
 1490 0032 0121     		movs	r1, #1
 1491 0034 8154     		strb	r1, [r0, r2]
 776:Drivers/STM32F0xx_HAL_Driver/Src/stm32f0xx_hal_pcd.c **** 
 777:Drivers/STM32F0xx_HAL_Driver/Src/stm32f0xx_hal_pcd.c ****   if (ep->doublebuffer == 0U) 
 1492              		.loc 1 777 0 is_stmt 1 discriminator 2
 1493 0036 9A7A     		ldrb	r2, [r3, #10]
 1494 0038 002A     		cmp	r2, #0
 1495 003a 47D1     		bne	.L78
 778:Drivers/STM32F0xx_HAL_Driver/Src/stm32f0xx_hal_pcd.c ****   {
 779:Drivers/STM32F0xx_HAL_Driver/Src/stm32f0xx_hal_pcd.c ****     if (ep->is_in)
 1496              		.loc 1 779 0
 1497 003c 5A78     		ldrb	r2, [r3, #1]
 1498 003e 002A     		cmp	r2, #0
 1499 0040 28D0     		beq	.L79
 780:Drivers/STM32F0xx_HAL_Driver/Src/stm32f0xx_hal_pcd.c ****     {
 781:Drivers/STM32F0xx_HAL_Driver/Src/stm32f0xx_hal_pcd.c ****       PCD_CLEAR_TX_DTOG(hpcd->Instance, ep->num)
 1500              		.loc 1 781 0
 1501 0042 1A78     		ldrb	r2, [r3]
 1502 0044 9200     		lsls	r2, r2, #2
 1503 0046 0168     		ldr	r1, [r0]
 1504 0048 8C46     		mov	ip, r1
 1505 004a 6244     		add	r2, r2, ip
 1506 004c 1188     		ldrh	r1, [r2]
 1507 004e 4906     		lsls	r1, r1, #25
 1508 0050 06D5     		bpl	.L80
 1509              		.loc 1 781 0 is_stmt 0 discriminator 1
 1510 0052 1188     		ldrh	r1, [r2]
 1511 0054 624C     		ldr	r4, .L90
 1512 0056 0C40     		ands	r4, r1
 1513 0058 6249     		ldr	r1, .L90+4
ARM GAS  /tmp/ccMLnPi5.s 			page 42


 1514 005a 2143     		orrs	r1, r4
 1515 005c 89B2     		uxth	r1, r1
 1516 005e 1180     		strh	r1, [r2]
 1517              	.L80:
 1518              	.LBB12:
 782:Drivers/STM32F0xx_HAL_Driver/Src/stm32f0xx_hal_pcd.c ****       /* Configure DISABLE status for the Endpoint*/
 783:Drivers/STM32F0xx_HAL_Driver/Src/stm32f0xx_hal_pcd.c ****       PCD_SET_EP_TX_STATUS(hpcd->Instance, ep->num, USB_EP_TX_DIS)
 1519              		.loc 1 783 0 is_stmt 1
 1520 0060 1A78     		ldrb	r2, [r3]
 1521 0062 9200     		lsls	r2, r2, #2
 1522 0064 0368     		ldr	r3, [r0]
 1523              	.LVL99:
 1524 0066 9C46     		mov	ip, r3
 1525 0068 6244     		add	r2, r2, ip
 1526 006a 1388     		ldrh	r3, [r2]
 1527 006c 5E49     		ldr	r1, .L90+8
 1528 006e 1940     		ands	r1, r3
 1529              	.LVL100:
 1530 0070 5E4B     		ldr	r3, .L90+12
 1531 0072 0B43     		orrs	r3, r1
 1532 0074 9BB2     		uxth	r3, r3
 1533 0076 1380     		strh	r3, [r2]
 1534              	.LVL101:
 1535              	.L81:
 1536              	.LBE12:
 784:Drivers/STM32F0xx_HAL_Driver/Src/stm32f0xx_hal_pcd.c ****     }
 785:Drivers/STM32F0xx_HAL_Driver/Src/stm32f0xx_hal_pcd.c ****     else
 786:Drivers/STM32F0xx_HAL_Driver/Src/stm32f0xx_hal_pcd.c ****     {
 787:Drivers/STM32F0xx_HAL_Driver/Src/stm32f0xx_hal_pcd.c ****       PCD_CLEAR_RX_DTOG(hpcd->Instance, ep->num)
 788:Drivers/STM32F0xx_HAL_Driver/Src/stm32f0xx_hal_pcd.c ****       /* Configure DISABLE status for the Endpoint*/
 789:Drivers/STM32F0xx_HAL_Driver/Src/stm32f0xx_hal_pcd.c ****       PCD_SET_EP_RX_STATUS(hpcd->Instance, ep->num, USB_EP_RX_DIS)
 790:Drivers/STM32F0xx_HAL_Driver/Src/stm32f0xx_hal_pcd.c ****     }
 791:Drivers/STM32F0xx_HAL_Driver/Src/stm32f0xx_hal_pcd.c ****   }
 792:Drivers/STM32F0xx_HAL_Driver/Src/stm32f0xx_hal_pcd.c ****   /*Double Buffer*/
 793:Drivers/STM32F0xx_HAL_Driver/Src/stm32f0xx_hal_pcd.c ****   else
 794:Drivers/STM32F0xx_HAL_Driver/Src/stm32f0xx_hal_pcd.c ****   { 
 795:Drivers/STM32F0xx_HAL_Driver/Src/stm32f0xx_hal_pcd.c ****     if (ep->is_in==0U)
 796:Drivers/STM32F0xx_HAL_Driver/Src/stm32f0xx_hal_pcd.c ****     {
 797:Drivers/STM32F0xx_HAL_Driver/Src/stm32f0xx_hal_pcd.c ****       /* Clear the data toggle bits for the endpoint IN/OUT*/
 798:Drivers/STM32F0xx_HAL_Driver/Src/stm32f0xx_hal_pcd.c ****       PCD_CLEAR_RX_DTOG(hpcd->Instance, ep->num)
 799:Drivers/STM32F0xx_HAL_Driver/Src/stm32f0xx_hal_pcd.c ****       PCD_CLEAR_TX_DTOG(hpcd->Instance, ep->num)
 800:Drivers/STM32F0xx_HAL_Driver/Src/stm32f0xx_hal_pcd.c ****       
 801:Drivers/STM32F0xx_HAL_Driver/Src/stm32f0xx_hal_pcd.c ****       /* Reset value of the data toggle bits for the endpoint out*/
 802:Drivers/STM32F0xx_HAL_Driver/Src/stm32f0xx_hal_pcd.c ****       PCD_TX_DTOG(hpcd->Instance, ep->num);
 803:Drivers/STM32F0xx_HAL_Driver/Src/stm32f0xx_hal_pcd.c ****       
 804:Drivers/STM32F0xx_HAL_Driver/Src/stm32f0xx_hal_pcd.c ****       PCD_SET_EP_RX_STATUS(hpcd->Instance, ep->num, USB_EP_RX_DIS)
 805:Drivers/STM32F0xx_HAL_Driver/Src/stm32f0xx_hal_pcd.c ****       PCD_SET_EP_TX_STATUS(hpcd->Instance, ep->num, USB_EP_TX_DIS)
 806:Drivers/STM32F0xx_HAL_Driver/Src/stm32f0xx_hal_pcd.c ****     }
 807:Drivers/STM32F0xx_HAL_Driver/Src/stm32f0xx_hal_pcd.c ****     else
 808:Drivers/STM32F0xx_HAL_Driver/Src/stm32f0xx_hal_pcd.c ****     {
 809:Drivers/STM32F0xx_HAL_Driver/Src/stm32f0xx_hal_pcd.c ****       /* Clear the data toggle bits for the endpoint IN/OUT*/
 810:Drivers/STM32F0xx_HAL_Driver/Src/stm32f0xx_hal_pcd.c ****       PCD_CLEAR_RX_DTOG(hpcd->Instance, ep->num)
 811:Drivers/STM32F0xx_HAL_Driver/Src/stm32f0xx_hal_pcd.c ****       PCD_CLEAR_TX_DTOG(hpcd->Instance, ep->num)
 812:Drivers/STM32F0xx_HAL_Driver/Src/stm32f0xx_hal_pcd.c ****       PCD_RX_DTOG(hpcd->Instance, ep->num);
 813:Drivers/STM32F0xx_HAL_Driver/Src/stm32f0xx_hal_pcd.c ****       /* Configure DISABLE status for the Endpoint*/
 814:Drivers/STM32F0xx_HAL_Driver/Src/stm32f0xx_hal_pcd.c ****       PCD_SET_EP_TX_STATUS(hpcd->Instance, ep->num, USB_EP_TX_DIS)
 815:Drivers/STM32F0xx_HAL_Driver/Src/stm32f0xx_hal_pcd.c ****       PCD_SET_EP_RX_STATUS(hpcd->Instance, ep->num, USB_EP_RX_DIS)
ARM GAS  /tmp/ccMLnPi5.s 			page 43


 816:Drivers/STM32F0xx_HAL_Driver/Src/stm32f0xx_hal_pcd.c ****     }
 817:Drivers/STM32F0xx_HAL_Driver/Src/stm32f0xx_hal_pcd.c ****   } 
 818:Drivers/STM32F0xx_HAL_Driver/Src/stm32f0xx_hal_pcd.c ****   
 819:Drivers/STM32F0xx_HAL_Driver/Src/stm32f0xx_hal_pcd.c ****   __HAL_UNLOCK(hpcd);   
 1537              		.loc 1 819 0
 1538 0078 F423     		movs	r3, #244
 1539 007a 5B00     		lsls	r3, r3, #1
 1540 007c 0022     		movs	r2, #0
 1541 007e C254     		strb	r2, [r0, r3]
 820:Drivers/STM32F0xx_HAL_Driver/Src/stm32f0xx_hal_pcd.c ****   return HAL_OK;
 1542              		.loc 1 820 0
 1543 0080 0020     		movs	r0, #0
 1544              	.LVL102:
 1545              	.L77:
 821:Drivers/STM32F0xx_HAL_Driver/Src/stm32f0xx_hal_pcd.c **** }
 1546              		.loc 1 821 0
 1547              		@ sp needed
 1548 0082 10BD     		pop	{r4, pc}
 1549              	.LVL103:
 1550              	.L89:
 765:Drivers/STM32F0xx_HAL_Driver/Src/stm32f0xx_hal_pcd.c ****   }
 1551              		.loc 1 765 0
 1552 0084 7F23     		movs	r3, #127
 1553 0086 0B40     		ands	r3, r1
 1554 0088 DC00     		lsls	r4, r3, #3
 1555 008a E41A     		subs	r4, r4, r3
 1556 008c A300     		lsls	r3, r4, #2
 1557 008e 2833     		adds	r3, r3, #40
 1558 0090 C318     		adds	r3, r0, r3
 1559              	.LVL104:
 1560 0092 C1E7     		b	.L76
 1561              	.LVL105:
 1562              	.L79:
 787:Drivers/STM32F0xx_HAL_Driver/Src/stm32f0xx_hal_pcd.c ****       /* Configure DISABLE status for the Endpoint*/
 1563              		.loc 1 787 0
 1564 0094 1A78     		ldrb	r2, [r3]
 1565 0096 9200     		lsls	r2, r2, #2
 1566 0098 0168     		ldr	r1, [r0]
 1567 009a 8C46     		mov	ip, r1
 1568 009c 6244     		add	r2, r2, ip
 1569 009e 1188     		ldrh	r1, [r2]
 1570 00a0 4904     		lsls	r1, r1, #17
 1571 00a2 06D5     		bpl	.L82
 787:Drivers/STM32F0xx_HAL_Driver/Src/stm32f0xx_hal_pcd.c ****       /* Configure DISABLE status for the Endpoint*/
 1572              		.loc 1 787 0 is_stmt 0 discriminator 1
 1573 00a4 1188     		ldrh	r1, [r2]
 1574 00a6 4E4C     		ldr	r4, .L90
 1575 00a8 0C40     		ands	r4, r1
 1576 00aa 5149     		ldr	r1, .L90+16
 1577 00ac 2143     		orrs	r1, r4
 1578 00ae 89B2     		uxth	r1, r1
 1579 00b0 1180     		strh	r1, [r2]
 1580              	.L82:
 1581              	.LBB13:
 789:Drivers/STM32F0xx_HAL_Driver/Src/stm32f0xx_hal_pcd.c ****     }
 1582              		.loc 1 789 0 is_stmt 1
 1583 00b2 1A78     		ldrb	r2, [r3]
ARM GAS  /tmp/ccMLnPi5.s 			page 44


 1584 00b4 9200     		lsls	r2, r2, #2
 1585 00b6 0368     		ldr	r3, [r0]
 1586              	.LVL106:
 1587 00b8 9C46     		mov	ip, r3
 1588 00ba 6244     		add	r2, r2, ip
 1589 00bc 1388     		ldrh	r3, [r2]
 1590 00be 4D49     		ldr	r1, .L90+20
 1591 00c0 1940     		ands	r1, r3
 1592              	.LVL107:
 1593 00c2 4A4B     		ldr	r3, .L90+12
 1594 00c4 0B43     		orrs	r3, r1
 1595 00c6 9BB2     		uxth	r3, r3
 1596 00c8 1380     		strh	r3, [r2]
 1597 00ca D5E7     		b	.L81
 1598              	.LVL108:
 1599              	.L78:
 1600              	.LBE13:
 795:Drivers/STM32F0xx_HAL_Driver/Src/stm32f0xx_hal_pcd.c ****     {
 1601              		.loc 1 795 0
 1602 00cc 5A78     		ldrb	r2, [r3, #1]
 1603 00ce 002A     		cmp	r2, #0
 1604 00d0 41D1     		bne	.L83
 798:Drivers/STM32F0xx_HAL_Driver/Src/stm32f0xx_hal_pcd.c ****       PCD_CLEAR_TX_DTOG(hpcd->Instance, ep->num)
 1605              		.loc 1 798 0
 1606 00d2 1A78     		ldrb	r2, [r3]
 1607 00d4 9200     		lsls	r2, r2, #2
 1608 00d6 0168     		ldr	r1, [r0]
 1609 00d8 8C46     		mov	ip, r1
 1610 00da 6244     		add	r2, r2, ip
 1611 00dc 1188     		ldrh	r1, [r2]
 1612 00de 4904     		lsls	r1, r1, #17
 1613 00e0 06D5     		bpl	.L84
 798:Drivers/STM32F0xx_HAL_Driver/Src/stm32f0xx_hal_pcd.c ****       PCD_CLEAR_TX_DTOG(hpcd->Instance, ep->num)
 1614              		.loc 1 798 0 is_stmt 0 discriminator 1
 1615 00e2 1188     		ldrh	r1, [r2]
 1616 00e4 3E4C     		ldr	r4, .L90
 1617 00e6 0C40     		ands	r4, r1
 1618 00e8 4149     		ldr	r1, .L90+16
 1619 00ea 2143     		orrs	r1, r4
 1620 00ec 89B2     		uxth	r1, r1
 1621 00ee 1180     		strh	r1, [r2]
 1622              	.L84:
 799:Drivers/STM32F0xx_HAL_Driver/Src/stm32f0xx_hal_pcd.c ****       
 1623              		.loc 1 799 0 is_stmt 1
 1624 00f0 1A78     		ldrb	r2, [r3]
 1625 00f2 9200     		lsls	r2, r2, #2
 1626 00f4 0168     		ldr	r1, [r0]
 1627 00f6 8C46     		mov	ip, r1
 1628 00f8 6244     		add	r2, r2, ip
 1629 00fa 1188     		ldrh	r1, [r2]
 1630 00fc 4906     		lsls	r1, r1, #25
 1631 00fe 06D5     		bpl	.L85
 799:Drivers/STM32F0xx_HAL_Driver/Src/stm32f0xx_hal_pcd.c ****       
 1632              		.loc 1 799 0 is_stmt 0 discriminator 1
 1633 0100 1188     		ldrh	r1, [r2]
 1634 0102 374C     		ldr	r4, .L90
 1635 0104 0C40     		ands	r4, r1
ARM GAS  /tmp/ccMLnPi5.s 			page 45


 1636 0106 3749     		ldr	r1, .L90+4
 1637 0108 2143     		orrs	r1, r4
 1638 010a 89B2     		uxth	r1, r1
 1639 010c 1180     		strh	r1, [r2]
 1640              	.L85:
 802:Drivers/STM32F0xx_HAL_Driver/Src/stm32f0xx_hal_pcd.c ****       
 1641              		.loc 1 802 0 is_stmt 1
 1642 010e 1978     		ldrb	r1, [r3]
 1643 0110 8900     		lsls	r1, r1, #2
 1644 0112 0268     		ldr	r2, [r0]
 1645 0114 9446     		mov	ip, r2
 1646 0116 6144     		add	r1, r1, ip
 1647 0118 0A88     		ldrh	r2, [r1]
 1648 011a 314C     		ldr	r4, .L90
 1649 011c 1440     		ands	r4, r2
 1650 011e 314A     		ldr	r2, .L90+4
 1651 0120 2243     		orrs	r2, r4
 1652 0122 92B2     		uxth	r2, r2
 1653 0124 0A80     		strh	r2, [r1]
 1654              	.LBB14:
 804:Drivers/STM32F0xx_HAL_Driver/Src/stm32f0xx_hal_pcd.c ****       PCD_SET_EP_TX_STATUS(hpcd->Instance, ep->num, USB_EP_TX_DIS)
 1655              		.loc 1 804 0
 1656 0126 1C78     		ldrb	r4, [r3]
 1657 0128 A400     		lsls	r4, r4, #2
 1658 012a 0268     		ldr	r2, [r0]
 1659 012c 9446     		mov	ip, r2
 1660 012e 6444     		add	r4, r4, ip
 1661 0130 2288     		ldrh	r2, [r4]
 1662 0132 3049     		ldr	r1, .L90+20
 1663 0134 0A40     		ands	r2, r1
 1664              	.LVL109:
 1665 0136 2D49     		ldr	r1, .L90+12
 1666 0138 0A43     		orrs	r2, r1
 1667              	.LVL110:
 1668 013a 92B2     		uxth	r2, r2
 1669 013c 2280     		strh	r2, [r4]
 1670              	.LBE14:
 1671              	.LBB15:
 805:Drivers/STM32F0xx_HAL_Driver/Src/stm32f0xx_hal_pcd.c ****     }
 1672              		.loc 1 805 0
 1673 013e 1B78     		ldrb	r3, [r3]
 1674              	.LVL111:
 1675 0140 9B00     		lsls	r3, r3, #2
 1676 0142 0268     		ldr	r2, [r0]
 1677 0144 9446     		mov	ip, r2
 1678 0146 6344     		add	r3, r3, ip
 1679 0148 1A88     		ldrh	r2, [r3]
 1680 014a 274C     		ldr	r4, .L90+8
 1681 014c 2240     		ands	r2, r4
 1682              	.LVL112:
 1683 014e 1143     		orrs	r1, r2
 1684 0150 89B2     		uxth	r1, r1
 1685 0152 1980     		strh	r1, [r3]
 1686              	.LBE15:
 1687 0154 90E7     		b	.L81
 1688              	.LVL113:
 1689              	.L83:
ARM GAS  /tmp/ccMLnPi5.s 			page 46


 810:Drivers/STM32F0xx_HAL_Driver/Src/stm32f0xx_hal_pcd.c ****       PCD_CLEAR_TX_DTOG(hpcd->Instance, ep->num)
 1690              		.loc 1 810 0
 1691 0156 1A78     		ldrb	r2, [r3]
 1692 0158 9200     		lsls	r2, r2, #2
 1693 015a 0168     		ldr	r1, [r0]
 1694 015c 8C46     		mov	ip, r1
 1695 015e 6244     		add	r2, r2, ip
 1696 0160 1188     		ldrh	r1, [r2]
 1697 0162 4904     		lsls	r1, r1, #17
 1698 0164 06D5     		bpl	.L86
 810:Drivers/STM32F0xx_HAL_Driver/Src/stm32f0xx_hal_pcd.c ****       PCD_CLEAR_TX_DTOG(hpcd->Instance, ep->num)
 1699              		.loc 1 810 0 is_stmt 0 discriminator 1
 1700 0166 1188     		ldrh	r1, [r2]
 1701 0168 1D4C     		ldr	r4, .L90
 1702 016a 0C40     		ands	r4, r1
 1703 016c 2049     		ldr	r1, .L90+16
 1704 016e 2143     		orrs	r1, r4
 1705 0170 89B2     		uxth	r1, r1
 1706 0172 1180     		strh	r1, [r2]
 1707              	.L86:
 811:Drivers/STM32F0xx_HAL_Driver/Src/stm32f0xx_hal_pcd.c ****       PCD_RX_DTOG(hpcd->Instance, ep->num);
 1708              		.loc 1 811 0 is_stmt 1
 1709 0174 1A78     		ldrb	r2, [r3]
 1710 0176 9200     		lsls	r2, r2, #2
 1711 0178 0168     		ldr	r1, [r0]
 1712 017a 8C46     		mov	ip, r1
 1713 017c 6244     		add	r2, r2, ip
 1714 017e 1188     		ldrh	r1, [r2]
 1715 0180 4906     		lsls	r1, r1, #25
 1716 0182 06D5     		bpl	.L87
 811:Drivers/STM32F0xx_HAL_Driver/Src/stm32f0xx_hal_pcd.c ****       PCD_RX_DTOG(hpcd->Instance, ep->num);
 1717              		.loc 1 811 0 is_stmt 0 discriminator 1
 1718 0184 1188     		ldrh	r1, [r2]
 1719 0186 164C     		ldr	r4, .L90
 1720 0188 0C40     		ands	r4, r1
 1721 018a 1649     		ldr	r1, .L90+4
 1722 018c 2143     		orrs	r1, r4
 1723 018e 89B2     		uxth	r1, r1
 1724 0190 1180     		strh	r1, [r2]
 1725              	.L87:
 812:Drivers/STM32F0xx_HAL_Driver/Src/stm32f0xx_hal_pcd.c ****       /* Configure DISABLE status for the Endpoint*/
 1726              		.loc 1 812 0 is_stmt 1
 1727 0192 1978     		ldrb	r1, [r3]
 1728 0194 8900     		lsls	r1, r1, #2
 1729 0196 0268     		ldr	r2, [r0]
 1730 0198 9446     		mov	ip, r2
 1731 019a 6144     		add	r1, r1, ip
 1732 019c 0A88     		ldrh	r2, [r1]
 1733 019e 104C     		ldr	r4, .L90
 1734 01a0 1440     		ands	r4, r2
 1735 01a2 134A     		ldr	r2, .L90+16
 1736 01a4 2243     		orrs	r2, r4
 1737 01a6 92B2     		uxth	r2, r2
 1738 01a8 0A80     		strh	r2, [r1]
 1739              	.LBB16:
 814:Drivers/STM32F0xx_HAL_Driver/Src/stm32f0xx_hal_pcd.c ****       PCD_SET_EP_RX_STATUS(hpcd->Instance, ep->num, USB_EP_RX_DIS)
 1740              		.loc 1 814 0
ARM GAS  /tmp/ccMLnPi5.s 			page 47


 1741 01aa 1C78     		ldrb	r4, [r3]
 1742 01ac A400     		lsls	r4, r4, #2
 1743 01ae 0268     		ldr	r2, [r0]
 1744 01b0 9446     		mov	ip, r2
 1745 01b2 6444     		add	r4, r4, ip
 1746 01b4 2288     		ldrh	r2, [r4]
 1747 01b6 0C49     		ldr	r1, .L90+8
 1748 01b8 0A40     		ands	r2, r1
 1749              	.LVL114:
 1750 01ba 0C49     		ldr	r1, .L90+12
 1751 01bc 0A43     		orrs	r2, r1
 1752              	.LVL115:
 1753 01be 92B2     		uxth	r2, r2
 1754 01c0 2280     		strh	r2, [r4]
 1755              	.LBE16:
 1756              	.LBB17:
 815:Drivers/STM32F0xx_HAL_Driver/Src/stm32f0xx_hal_pcd.c ****     }
 1757              		.loc 1 815 0
 1758 01c2 1B78     		ldrb	r3, [r3]
 1759              	.LVL116:
 1760 01c4 9B00     		lsls	r3, r3, #2
 1761 01c6 0268     		ldr	r2, [r0]
 1762 01c8 9446     		mov	ip, r2
 1763 01ca 6344     		add	r3, r3, ip
 1764 01cc 1A88     		ldrh	r2, [r3]
 1765 01ce 094C     		ldr	r4, .L90+20
 1766 01d0 2240     		ands	r2, r4
 1767              	.LVL117:
 1768 01d2 1143     		orrs	r1, r2
 1769 01d4 89B2     		uxth	r1, r1
 1770 01d6 1980     		strh	r1, [r3]
 1771 01d8 4EE7     		b	.L81
 1772              	.LVL118:
 1773              	.L88:
 1774              	.LBE17:
 775:Drivers/STM32F0xx_HAL_Driver/Src/stm32f0xx_hal_pcd.c **** 
 1775              		.loc 1 775 0
 1776 01da 0220     		movs	r0, #2
 1777              	.LVL119:
 1778 01dc 51E7     		b	.L77
 1779              	.L91:
 1780 01de C046     		.align	2
 1781              	.L90:
 1782 01e0 0F0F0000 		.word	3855
 1783 01e4 C080FFFF 		.word	-32576
 1784 01e8 BF8FFFFF 		.word	-28737
 1785 01ec 8080FFFF 		.word	-32640
 1786 01f0 80C0FFFF 		.word	-16256
 1787 01f4 8FBFFFFF 		.word	-16497
 1788              		.cfi_endproc
 1789              	.LFE59:
 1791              		.section	.text.HAL_PCD_EP_Receive,"ax",%progbits
 1792              		.align	1
 1793              		.global	HAL_PCD_EP_Receive
 1794              		.syntax unified
 1795              		.code	16
 1796              		.thumb_func
ARM GAS  /tmp/ccMLnPi5.s 			page 48


 1797              		.fpu softvfp
 1799              	HAL_PCD_EP_Receive:
 1800              	.LFB60:
 822:Drivers/STM32F0xx_HAL_Driver/Src/stm32f0xx_hal_pcd.c **** 
 823:Drivers/STM32F0xx_HAL_Driver/Src/stm32f0xx_hal_pcd.c **** 
 824:Drivers/STM32F0xx_HAL_Driver/Src/stm32f0xx_hal_pcd.c **** /**
 825:Drivers/STM32F0xx_HAL_Driver/Src/stm32f0xx_hal_pcd.c ****   * @brief  Receive an amount of data  
 826:Drivers/STM32F0xx_HAL_Driver/Src/stm32f0xx_hal_pcd.c ****   * @param  hpcd PCD handle
 827:Drivers/STM32F0xx_HAL_Driver/Src/stm32f0xx_hal_pcd.c ****   * @param  ep_addr endpoint address
 828:Drivers/STM32F0xx_HAL_Driver/Src/stm32f0xx_hal_pcd.c ****   * @param  pBuf pointer to the reception buffer   
 829:Drivers/STM32F0xx_HAL_Driver/Src/stm32f0xx_hal_pcd.c ****   * @param  len amount of data to be received
 830:Drivers/STM32F0xx_HAL_Driver/Src/stm32f0xx_hal_pcd.c ****   * @retval HAL status
 831:Drivers/STM32F0xx_HAL_Driver/Src/stm32f0xx_hal_pcd.c ****   */
 832:Drivers/STM32F0xx_HAL_Driver/Src/stm32f0xx_hal_pcd.c **** HAL_StatusTypeDef HAL_PCD_EP_Receive(PCD_HandleTypeDef *hpcd, uint8_t ep_addr, uint8_t *pBuf, uint3
 833:Drivers/STM32F0xx_HAL_Driver/Src/stm32f0xx_hal_pcd.c **** {
 1801              		.loc 1 833 0
 1802              		.cfi_startproc
 1803              		@ args = 0, pretend = 0, frame = 0
 1804              		@ frame_needed = 0, uses_anonymous_args = 0
 1805              	.LVL120:
 1806 0000 70B5     		push	{r4, r5, r6, lr}
 1807              	.LCFI7:
 1808              		.cfi_def_cfa_offset 16
 1809              		.cfi_offset 4, -16
 1810              		.cfi_offset 5, -12
 1811              		.cfi_offset 6, -8
 1812              		.cfi_offset 14, -4
 1813 0002 7F24     		movs	r4, #127
 1814 0004 2140     		ands	r1, r4
 1815              	.LVL121:
 834:Drivers/STM32F0xx_HAL_Driver/Src/stm32f0xx_hal_pcd.c ****   
 835:Drivers/STM32F0xx_HAL_Driver/Src/stm32f0xx_hal_pcd.c ****  PCD_EPTypeDef *ep;
 836:Drivers/STM32F0xx_HAL_Driver/Src/stm32f0xx_hal_pcd.c ****   
 837:Drivers/STM32F0xx_HAL_Driver/Src/stm32f0xx_hal_pcd.c ****   ep = &hpcd->OUT_ep[ep_addr & 0x7FU];
 838:Drivers/STM32F0xx_HAL_Driver/Src/stm32f0xx_hal_pcd.c ****   
 839:Drivers/STM32F0xx_HAL_Driver/Src/stm32f0xx_hal_pcd.c ****   /*setup and start the Xfer */
 840:Drivers/STM32F0xx_HAL_Driver/Src/stm32f0xx_hal_pcd.c ****   ep->xfer_buff = pBuf;  
 1816              		.loc 1 840 0
 1817 0006 CD00     		lsls	r5, r1, #3
 1818 0008 6D1A     		subs	r5, r5, r1
 1819 000a AC00     		lsls	r4, r5, #2
 1820 000c 0419     		adds	r4, r0, r4
 1821 000e 2500     		movs	r5, r4
 1822 0010 1935     		adds	r5, r5, #25
 1823 0012 FF35     		adds	r5, r5, #255
 1824 0014 2A60     		str	r2, [r5]
 841:Drivers/STM32F0xx_HAL_Driver/Src/stm32f0xx_hal_pcd.c ****   ep->xfer_len = len;
 1825              		.loc 1 841 0
 1826 0016 2200     		movs	r2, r4
 1827              	.LVL122:
 1828 0018 1D32     		adds	r2, r2, #29
 1829 001a FF32     		adds	r2, r2, #255
 1830 001c 1360     		str	r3, [r2]
 842:Drivers/STM32F0xx_HAL_Driver/Src/stm32f0xx_hal_pcd.c ****   ep->xfer_count = 0U;
 1831              		.loc 1 842 0
 1832 001e 0835     		adds	r5, r5, #8
 1833              	.LVL123:
ARM GAS  /tmp/ccMLnPi5.s 			page 49


 1834 0020 0022     		movs	r2, #0
 1835 0022 2A60     		str	r2, [r5]
 843:Drivers/STM32F0xx_HAL_Driver/Src/stm32f0xx_hal_pcd.c ****   ep->is_in = 0U;
 1836              		.loc 1 843 0
 1837 0024 173D     		subs	r5, r5, #23
 1838              	.LVL124:
 1839 0026 2A70     		strb	r2, [r5]
 844:Drivers/STM32F0xx_HAL_Driver/Src/stm32f0xx_hal_pcd.c ****   ep->num = ep_addr & 0x7FU;
 1840              		.loc 1 844 0
 1841 0028 2200     		movs	r2, r4
 1842 002a 0932     		adds	r2, r2, #9
 1843 002c FF32     		adds	r2, r2, #255
 1844 002e 1170     		strb	r1, [r2]
 845:Drivers/STM32F0xx_HAL_Driver/Src/stm32f0xx_hal_pcd.c ****    
 846:Drivers/STM32F0xx_HAL_Driver/Src/stm32f0xx_hal_pcd.c ****   /* Multi packet transfer*/
 847:Drivers/STM32F0xx_HAL_Driver/Src/stm32f0xx_hal_pcd.c ****   if (ep->xfer_len > ep->maxpacket)
 1845              		.loc 1 847 0
 1846 0030 1534     		adds	r4, r4, #21
 1847 0032 FF34     		adds	r4, r4, #255
 1848 0034 2268     		ldr	r2, [r4]
 1849 0036 9342     		cmp	r3, r2
 1850 0038 41D9     		bls	.L93
 1851              	.LVL125:
 848:Drivers/STM32F0xx_HAL_Driver/Src/stm32f0xx_hal_pcd.c ****   {
 849:Drivers/STM32F0xx_HAL_Driver/Src/stm32f0xx_hal_pcd.c ****     len=ep->maxpacket;
 850:Drivers/STM32F0xx_HAL_Driver/Src/stm32f0xx_hal_pcd.c ****     ep->xfer_len-=len; 
 1852              		.loc 1 850 0
 1853 003a CD00     		lsls	r5, r1, #3
 1854              	.LVL126:
 1855 003c 6D1A     		subs	r5, r5, r1
 1856 003e AC00     		lsls	r4, r5, #2
 1857              	.LVL127:
 1858 0040 0419     		adds	r4, r0, r4
 1859              	.LVL128:
 1860 0042 1D34     		adds	r4, r4, #29
 1861              	.LVL129:
 1862 0044 FF34     		adds	r4, r4, #255
 1863              	.LVL130:
 1864 0046 9B1A     		subs	r3, r3, r2
 1865 0048 2360     		str	r3, [r4]
 1866              	.LVL131:
 1867              	.L94:
 851:Drivers/STM32F0xx_HAL_Driver/Src/stm32f0xx_hal_pcd.c ****   }
 852:Drivers/STM32F0xx_HAL_Driver/Src/stm32f0xx_hal_pcd.c ****   else
 853:Drivers/STM32F0xx_HAL_Driver/Src/stm32f0xx_hal_pcd.c ****   {
 854:Drivers/STM32F0xx_HAL_Driver/Src/stm32f0xx_hal_pcd.c ****     len=ep->xfer_len;
 855:Drivers/STM32F0xx_HAL_Driver/Src/stm32f0xx_hal_pcd.c ****     ep->xfer_len =0U;
 856:Drivers/STM32F0xx_HAL_Driver/Src/stm32f0xx_hal_pcd.c ****   }
 857:Drivers/STM32F0xx_HAL_Driver/Src/stm32f0xx_hal_pcd.c ****   
 858:Drivers/STM32F0xx_HAL_Driver/Src/stm32f0xx_hal_pcd.c ****   /* configure and validate Rx endpoint */
 859:Drivers/STM32F0xx_HAL_Driver/Src/stm32f0xx_hal_pcd.c ****   if (ep->doublebuffer == 0) 
 1868              		.loc 1 859 0
 1869 004a CC00     		lsls	r4, r1, #3
 1870 004c 641A     		subs	r4, r4, r1
 1871 004e A300     		lsls	r3, r4, #2
 1872 0050 1C00     		movs	r4, r3
 1873 0052 C318     		adds	r3, r0, r3
ARM GAS  /tmp/ccMLnPi5.s 			page 50


 1874 0054 1333     		adds	r3, r3, #19
 1875 0056 FF33     		adds	r3, r3, #255
 1876 0058 1B78     		ldrb	r3, [r3]
 1877 005a 002B     		cmp	r3, #0
 1878 005c 42D1     		bne	.L95
 1879              	.LBB18:
 860:Drivers/STM32F0xx_HAL_Driver/Src/stm32f0xx_hal_pcd.c ****   {
 861:Drivers/STM32F0xx_HAL_Driver/Src/stm32f0xx_hal_pcd.c ****     /*Set RX buffer count*/
 862:Drivers/STM32F0xx_HAL_Driver/Src/stm32f0xx_hal_pcd.c ****     PCD_SET_EP_RX_CNT(hpcd->Instance, ep->num, len)
 1880              		.loc 1 862 0
 1881 005e 0568     		ldr	r5, [r0]
 1882 0060 5033     		adds	r3, r3, #80
 1883 0062 EB5A     		ldrh	r3, [r5, r3]
 1884 0064 0419     		adds	r4, r0, r4
 1885 0066 0934     		adds	r4, r4, #9
 1886 0068 FF34     		adds	r4, r4, #255
 1887 006a 2478     		ldrb	r4, [r4]
 1888 006c E400     		lsls	r4, r4, #3
 1889 006e 1B19     		adds	r3, r3, r4
 1890 0070 5B19     		adds	r3, r3, r5
 1891 0072 5F4C     		ldr	r4, .L110
 1892 0074 A446     		mov	ip, r4
 1893 0076 6344     		add	r3, r3, ip
 1894              	.LVL132:
 1895              	.LBB19:
 1896 0078 3E2A     		cmp	r2, #62
 1897 007a 2AD9     		bls	.L96
 1898              		.loc 1 862 0 is_stmt 0 discriminator 1
 1899 007c 5409     		lsrs	r4, r2, #5
 1900 007e A4B2     		uxth	r4, r4
 1901              	.LVL133:
 1902 0080 D206     		lsls	r2, r2, #27
 1903 0082 01D1     		bne	.L97
 1904              	.LVL134:
 1905              		.loc 1 862 0 discriminator 3
 1906 0084 013C     		subs	r4, r4, #1
 1907              	.LVL135:
 1908 0086 A4B2     		uxth	r4, r4
 1909              	.LVL136:
 1910              	.L97:
 1911              		.loc 1 862 0 discriminator 5
 1912 0088 A402     		lsls	r4, r4, #10
 1913              	.LVL137:
 1914 008a A4B2     		uxth	r4, r4
 1915 008c 594A     		ldr	r2, .L110+4
 1916 008e 1443     		orrs	r4, r2
 1917 0090 1C80     		strh	r4, [r3]
 1918              	.LVL138:
 1919              	.L98:
 1920              	.LBE19:
 1921              	.LBE18:
 1922              	.LBB21:
 863:Drivers/STM32F0xx_HAL_Driver/Src/stm32f0xx_hal_pcd.c ****   }
 864:Drivers/STM32F0xx_HAL_Driver/Src/stm32f0xx_hal_pcd.c ****   else
 865:Drivers/STM32F0xx_HAL_Driver/Src/stm32f0xx_hal_pcd.c ****   {
 866:Drivers/STM32F0xx_HAL_Driver/Src/stm32f0xx_hal_pcd.c ****     /*Set the Double buffer counter*/
 867:Drivers/STM32F0xx_HAL_Driver/Src/stm32f0xx_hal_pcd.c ****     PCD_SET_EP_DBUF_CNT(hpcd->Instance, ep->num, ep->is_in, len)
ARM GAS  /tmp/ccMLnPi5.s 			page 51


 868:Drivers/STM32F0xx_HAL_Driver/Src/stm32f0xx_hal_pcd.c ****   } 
 869:Drivers/STM32F0xx_HAL_Driver/Src/stm32f0xx_hal_pcd.c ****   
 870:Drivers/STM32F0xx_HAL_Driver/Src/stm32f0xx_hal_pcd.c ****   PCD_SET_EP_RX_STATUS(hpcd->Instance, ep->num, USB_EP_RX_VALID)
 1923              		.loc 1 870 0 is_stmt 1
 1924 0092 0268     		ldr	r2, [r0]
 1925 0094 CB00     		lsls	r3, r1, #3
 1926 0096 591A     		subs	r1, r3, r1
 1927              	.LVL139:
 1928 0098 8B00     		lsls	r3, r1, #2
 1929 009a C018     		adds	r0, r0, r3
 1930              	.LVL140:
 1931 009c 0930     		adds	r0, r0, #9
 1932 009e FF30     		adds	r0, r0, #255
 1933 00a0 0378     		ldrb	r3, [r0]
 1934 00a2 9B00     		lsls	r3, r3, #2
 1935 00a4 D218     		adds	r2, r2, r3
 1936 00a6 1188     		ldrh	r1, [r2]
 1937 00a8 534B     		ldr	r3, .L110+8
 1938 00aa 1940     		ands	r1, r3
 1939              	.LVL141:
 1940 00ac C023     		movs	r3, #192
 1941 00ae 9B01     		lsls	r3, r3, #6
 1942 00b0 5940     		eors	r1, r3
 1943              	.LVL142:
 1944 00b2 524B     		ldr	r3, .L110+12
 1945 00b4 0B43     		orrs	r3, r1
 1946 00b6 9BB2     		uxth	r3, r3
 1947 00b8 1380     		strh	r3, [r2]
 1948              	.LBE21:
 871:Drivers/STM32F0xx_HAL_Driver/Src/stm32f0xx_hal_pcd.c ****   
 872:Drivers/STM32F0xx_HAL_Driver/Src/stm32f0xx_hal_pcd.c ****   return HAL_OK;
 873:Drivers/STM32F0xx_HAL_Driver/Src/stm32f0xx_hal_pcd.c **** }
 1949              		.loc 1 873 0
 1950 00ba 0020     		movs	r0, #0
 1951              		@ sp needed
 1952 00bc 70BD     		pop	{r4, r5, r6, pc}
 1953              	.LVL143:
 1954              	.L93:
 855:Drivers/STM32F0xx_HAL_Driver/Src/stm32f0xx_hal_pcd.c ****   }
 1955              		.loc 1 855 0
 1956 00be CC00     		lsls	r4, r1, #3
 1957 00c0 641A     		subs	r4, r4, r1
 1958 00c2 A200     		lsls	r2, r4, #2
 1959 00c4 8218     		adds	r2, r0, r2
 1960 00c6 1D32     		adds	r2, r2, #29
 1961 00c8 FF32     		adds	r2, r2, #255
 1962 00ca 0024     		movs	r4, #0
 1963 00cc 1460     		str	r4, [r2]
 1964              	.LVL144:
 854:Drivers/STM32F0xx_HAL_Driver/Src/stm32f0xx_hal_pcd.c ****     ep->xfer_len =0U;
 1965              		.loc 1 854 0
 1966 00ce 1A00     		movs	r2, r3
 1967 00d0 BBE7     		b	.L94
 1968              	.LVL145:
 1969              	.L96:
 1970              	.LBB22:
 1971              	.LBB20:
ARM GAS  /tmp/ccMLnPi5.s 			page 52


 862:Drivers/STM32F0xx_HAL_Driver/Src/stm32f0xx_hal_pcd.c ****   }
 1972              		.loc 1 862 0 discriminator 2
 1973 00d2 5408     		lsrs	r4, r2, #1
 1974 00d4 A4B2     		uxth	r4, r4
 1975              	.LVL146:
 1976 00d6 D207     		lsls	r2, r2, #31
 1977 00d8 01D5     		bpl	.L99
 1978              	.LVL147:
 862:Drivers/STM32F0xx_HAL_Driver/Src/stm32f0xx_hal_pcd.c ****   }
 1979              		.loc 1 862 0 is_stmt 0 discriminator 6
 1980 00da 0134     		adds	r4, r4, #1
 1981              	.LVL148:
 1982 00dc A4B2     		uxth	r4, r4
 1983              	.LVL149:
 1984              	.L99:
 862:Drivers/STM32F0xx_HAL_Driver/Src/stm32f0xx_hal_pcd.c ****   }
 1985              		.loc 1 862 0 discriminator 8
 1986 00de A402     		lsls	r4, r4, #10
 1987              	.LVL150:
 1988 00e0 1C80     		strh	r4, [r3]
 1989 00e2 D6E7     		b	.L98
 1990              	.LVL151:
 1991              	.L95:
 1992              	.LBE20:
 1993              	.LBE22:
 867:Drivers/STM32F0xx_HAL_Driver/Src/stm32f0xx_hal_pcd.c ****   } 
 1994              		.loc 1 867 0 is_stmt 1
 1995 00e4 CC00     		lsls	r4, r1, #3
 1996 00e6 641A     		subs	r4, r4, r1
 1997 00e8 A300     		lsls	r3, r4, #2
 1998 00ea 1C00     		movs	r4, r3
 1999 00ec C318     		adds	r3, r0, r3
 2000 00ee 0A33     		adds	r3, r3, #10
 2001 00f0 FF33     		adds	r3, r3, #255
 2002 00f2 1B78     		ldrb	r3, [r3]
 2003 00f4 002B     		cmp	r3, #0
 2004 00f6 23D1     		bne	.L100
 2005              	.LBB23:
 867:Drivers/STM32F0xx_HAL_Driver/Src/stm32f0xx_hal_pcd.c ****   } 
 2006              		.loc 1 867 0 is_stmt 0 discriminator 1
 2007 00f8 0568     		ldr	r5, [r0]
 2008 00fa 5033     		adds	r3, r3, #80
 2009 00fc EB5A     		ldrh	r3, [r5, r3]
 2010 00fe 0419     		adds	r4, r0, r4
 2011 0100 0934     		adds	r4, r4, #9
 2012 0102 FF34     		adds	r4, r4, #255
 2013 0104 2478     		ldrb	r4, [r4]
 2014 0106 E400     		lsls	r4, r4, #3
 2015 0108 1B19     		adds	r3, r3, r4
 2016 010a 5B19     		adds	r3, r3, r5
 2017 010c 3C4C     		ldr	r4, .L110+16
 2018 010e A446     		mov	ip, r4
 2019 0110 6344     		add	r3, r3, ip
 2020              	.LVL152:
 2021              	.LBB24:
 2022 0112 3E2A     		cmp	r2, #62
 2023 0114 0BD9     		bls	.L101
ARM GAS  /tmp/ccMLnPi5.s 			page 53


 867:Drivers/STM32F0xx_HAL_Driver/Src/stm32f0xx_hal_pcd.c ****   } 
 2024              		.loc 1 867 0 discriminator 3
 2025 0116 5409     		lsrs	r4, r2, #5
 2026 0118 A4B2     		uxth	r4, r4
 2027              	.LVL153:
 2028 011a D506     		lsls	r5, r2, #27
 2029 011c 01D1     		bne	.L102
 867:Drivers/STM32F0xx_HAL_Driver/Src/stm32f0xx_hal_pcd.c ****   } 
 2030              		.loc 1 867 0 discriminator 5
 2031 011e 013C     		subs	r4, r4, #1
 2032              	.LVL154:
 2033 0120 A4B2     		uxth	r4, r4
 2034              	.LVL155:
 2035              	.L102:
 867:Drivers/STM32F0xx_HAL_Driver/Src/stm32f0xx_hal_pcd.c ****   } 
 2036              		.loc 1 867 0 discriminator 7
 2037 0122 A402     		lsls	r4, r4, #10
 2038              	.LVL156:
 2039 0124 A4B2     		uxth	r4, r4
 2040 0126 334D     		ldr	r5, .L110+4
 2041 0128 2C43     		orrs	r4, r5
 2042 012a 1C80     		strh	r4, [r3]
 2043 012c 0AE0     		b	.L103
 2044              	.L101:
 867:Drivers/STM32F0xx_HAL_Driver/Src/stm32f0xx_hal_pcd.c ****   } 
 2045              		.loc 1 867 0 discriminator 4
 2046 012e 5408     		lsrs	r4, r2, #1
 2047 0130 A4B2     		uxth	r4, r4
 2048              	.LVL157:
 2049 0132 D507     		lsls	r5, r2, #31
 2050 0134 01D5     		bpl	.L104
 867:Drivers/STM32F0xx_HAL_Driver/Src/stm32f0xx_hal_pcd.c ****   } 
 2051              		.loc 1 867 0 discriminator 8
 2052 0136 0134     		adds	r4, r4, #1
 2053              	.LVL158:
 2054 0138 A4B2     		uxth	r4, r4
 2055              	.LVL159:
 2056              	.L104:
 867:Drivers/STM32F0xx_HAL_Driver/Src/stm32f0xx_hal_pcd.c ****   } 
 2057              		.loc 1 867 0 discriminator 10
 2058 013a A402     		lsls	r4, r4, #10
 2059              	.LVL160:
 2060 013c 1C80     		strh	r4, [r3]
 2061 013e 01E0     		b	.L103
 2062              	.LVL161:
 2063              	.L100:
 2064              	.LBE24:
 2065              	.LBE23:
 867:Drivers/STM32F0xx_HAL_Driver/Src/stm32f0xx_hal_pcd.c ****   } 
 2066              		.loc 1 867 0 discriminator 2
 2067 0140 012B     		cmp	r3, #1
 2068 0142 24D0     		beq	.L109
 2069              	.L103:
 867:Drivers/STM32F0xx_HAL_Driver/Src/stm32f0xx_hal_pcd.c ****   } 
 2070              		.loc 1 867 0 discriminator 13
 2071 0144 CC00     		lsls	r4, r1, #3
 2072 0146 641A     		subs	r4, r4, r1
ARM GAS  /tmp/ccMLnPi5.s 			page 54


 2073 0148 A300     		lsls	r3, r4, #2
 2074 014a 1C00     		movs	r4, r3
 2075 014c C318     		adds	r3, r0, r3
 2076 014e 0A33     		adds	r3, r3, #10
 2077 0150 FF33     		adds	r3, r3, #255
 2078 0152 1B78     		ldrb	r3, [r3]
 2079 0154 002B     		cmp	r3, #0
 2080 0156 35D1     		bne	.L105
 2081              	.LBB25:
 867:Drivers/STM32F0xx_HAL_Driver/Src/stm32f0xx_hal_pcd.c ****   } 
 2082              		.loc 1 867 0 discriminator 14
 2083 0158 0568     		ldr	r5, [r0]
 2084 015a 5033     		adds	r3, r3, #80
 2085 015c EB5A     		ldrh	r3, [r5, r3]
 2086 015e 0419     		adds	r4, r0, r4
 2087 0160 0934     		adds	r4, r4, #9
 2088 0162 FF34     		adds	r4, r4, #255
 2089 0164 2478     		ldrb	r4, [r4]
 2090 0166 E400     		lsls	r4, r4, #3
 2091 0168 1B19     		adds	r3, r3, r4
 2092 016a 5B19     		adds	r3, r3, r5
 2093 016c 204C     		ldr	r4, .L110
 2094 016e A446     		mov	ip, r4
 2095 0170 6344     		add	r3, r3, ip
 2096              	.LVL162:
 2097              	.LBB26:
 2098 0172 3E2A     		cmp	r2, #62
 2099 0174 1DD9     		bls	.L106
 867:Drivers/STM32F0xx_HAL_Driver/Src/stm32f0xx_hal_pcd.c ****   } 
 2100              		.loc 1 867 0 discriminator 16
 2101 0176 5409     		lsrs	r4, r2, #5
 2102 0178 A4B2     		uxth	r4, r4
 2103              	.LVL163:
 2104 017a D206     		lsls	r2, r2, #27
 2105 017c 01D1     		bne	.L107
 2106              	.LVL164:
 867:Drivers/STM32F0xx_HAL_Driver/Src/stm32f0xx_hal_pcd.c ****   } 
 2107              		.loc 1 867 0 discriminator 18
 2108 017e 013C     		subs	r4, r4, #1
 2109              	.LVL165:
 2110 0180 A4B2     		uxth	r4, r4
 2111              	.LVL166:
 2112              	.L107:
 867:Drivers/STM32F0xx_HAL_Driver/Src/stm32f0xx_hal_pcd.c ****   } 
 2113              		.loc 1 867 0 discriminator 20
 2114 0182 A402     		lsls	r4, r4, #10
 2115              	.LVL167:
 2116 0184 A4B2     		uxth	r4, r4
 2117 0186 1B4A     		ldr	r2, .L110+4
 2118 0188 1443     		orrs	r4, r2
 2119 018a 1C80     		strh	r4, [r3]
 2120 018c 81E7     		b	.L98
 2121              	.LVL168:
 2122              	.L109:
 2123              	.LBE26:
 2124              	.LBE25:
 867:Drivers/STM32F0xx_HAL_Driver/Src/stm32f0xx_hal_pcd.c ****   } 
ARM GAS  /tmp/ccMLnPi5.s 			page 55


 2125              		.loc 1 867 0 discriminator 11
 2126 018e 0568     		ldr	r5, [r0]
 2127 0190 4F33     		adds	r3, r3, #79
 2128 0192 EB5A     		ldrh	r3, [r5, r3]
 2129 0194 CE00     		lsls	r6, r1, #3
 2130 0196 761A     		subs	r6, r6, r1
 2131 0198 B400     		lsls	r4, r6, #2
 2132 019a 0419     		adds	r4, r0, r4
 2133 019c 0934     		adds	r4, r4, #9
 2134 019e FF34     		adds	r4, r4, #255
 2135 01a0 2478     		ldrb	r4, [r4]
 2136 01a2 E400     		lsls	r4, r4, #3
 2137 01a4 1B19     		adds	r3, r3, r4
 2138 01a6 5B19     		adds	r3, r3, r5
 2139 01a8 154C     		ldr	r4, .L110+16
 2140 01aa A446     		mov	ip, r4
 2141 01ac 6344     		add	r3, r3, ip
 2142 01ae 1A80     		strh	r2, [r3]
 2143 01b0 C8E7     		b	.L103
 2144              	.LVL169:
 2145              	.L106:
 2146              	.LBB28:
 2147              	.LBB27:
 867:Drivers/STM32F0xx_HAL_Driver/Src/stm32f0xx_hal_pcd.c ****   } 
 2148              		.loc 1 867 0 discriminator 17
 2149 01b2 5408     		lsrs	r4, r2, #1
 2150 01b4 A4B2     		uxth	r4, r4
 2151              	.LVL170:
 2152 01b6 D207     		lsls	r2, r2, #31
 2153 01b8 01D5     		bpl	.L108
 2154              	.LVL171:
 867:Drivers/STM32F0xx_HAL_Driver/Src/stm32f0xx_hal_pcd.c ****   } 
 2155              		.loc 1 867 0 discriminator 21
 2156 01ba 0134     		adds	r4, r4, #1
 2157              	.LVL172:
 2158 01bc A4B2     		uxth	r4, r4
 2159              	.LVL173:
 2160              	.L108:
 867:Drivers/STM32F0xx_HAL_Driver/Src/stm32f0xx_hal_pcd.c ****   } 
 2161              		.loc 1 867 0 discriminator 23
 2162 01be A402     		lsls	r4, r4, #10
 2163              	.LVL174:
 2164 01c0 1C80     		strh	r4, [r3]
 2165 01c2 66E7     		b	.L98
 2166              	.LVL175:
 2167              	.L105:
 2168              	.LBE27:
 2169              	.LBE28:
 867:Drivers/STM32F0xx_HAL_Driver/Src/stm32f0xx_hal_pcd.c ****   } 
 2170              		.loc 1 867 0 discriminator 15
 2171 01c4 012B     		cmp	r3, #1
 2172 01c6 00D0     		beq	.LCB2227
 2173 01c8 63E7     		b	.L98	@long jump
 2174              	.LCB2227:
 867:Drivers/STM32F0xx_HAL_Driver/Src/stm32f0xx_hal_pcd.c ****   } 
 2175              		.loc 1 867 0 discriminator 24
 2176 01ca 0568     		ldr	r5, [r0]
ARM GAS  /tmp/ccMLnPi5.s 			page 56


 2177 01cc 4F33     		adds	r3, r3, #79
 2178 01ce EB5A     		ldrh	r3, [r5, r3]
 2179 01d0 CE00     		lsls	r6, r1, #3
 2180 01d2 761A     		subs	r6, r6, r1
 2181 01d4 B400     		lsls	r4, r6, #2
 2182 01d6 0419     		adds	r4, r0, r4
 2183 01d8 0934     		adds	r4, r4, #9
 2184 01da FF34     		adds	r4, r4, #255
 2185 01dc 2478     		ldrb	r4, [r4]
 2186 01de E400     		lsls	r4, r4, #3
 2187 01e0 1B19     		adds	r3, r3, r4
 2188 01e2 5B19     		adds	r3, r3, r5
 2189 01e4 024C     		ldr	r4, .L110
 2190 01e6 A446     		mov	ip, r4
 2191 01e8 6344     		add	r3, r3, ip
 2192 01ea 1A80     		strh	r2, [r3]
 2193 01ec 51E7     		b	.L98
 2194              	.L111:
 2195 01ee C046     		.align	2
 2196              	.L110:
 2197 01f0 06040000 		.word	1030
 2198 01f4 0080FFFF 		.word	-32768
 2199 01f8 8FBFFFFF 		.word	-16497
 2200 01fc 8080FFFF 		.word	-32640
 2201 0200 02040000 		.word	1026
 2202              		.cfi_endproc
 2203              	.LFE60:
 2205              		.section	.text.HAL_PCD_EP_GetRxCount,"ax",%progbits
 2206              		.align	1
 2207              		.global	HAL_PCD_EP_GetRxCount
 2208              		.syntax unified
 2209              		.code	16
 2210              		.thumb_func
 2211              		.fpu softvfp
 2213              	HAL_PCD_EP_GetRxCount:
 2214              	.LFB61:
 874:Drivers/STM32F0xx_HAL_Driver/Src/stm32f0xx_hal_pcd.c **** 
 875:Drivers/STM32F0xx_HAL_Driver/Src/stm32f0xx_hal_pcd.c **** /**
 876:Drivers/STM32F0xx_HAL_Driver/Src/stm32f0xx_hal_pcd.c ****   * @brief  Get Received Data Size
 877:Drivers/STM32F0xx_HAL_Driver/Src/stm32f0xx_hal_pcd.c ****   * @param  hpcd PCD handle
 878:Drivers/STM32F0xx_HAL_Driver/Src/stm32f0xx_hal_pcd.c ****   * @param  ep_addr endpoint address
 879:Drivers/STM32F0xx_HAL_Driver/Src/stm32f0xx_hal_pcd.c ****   * @retval Data Size
 880:Drivers/STM32F0xx_HAL_Driver/Src/stm32f0xx_hal_pcd.c ****   */
 881:Drivers/STM32F0xx_HAL_Driver/Src/stm32f0xx_hal_pcd.c **** uint16_t HAL_PCD_EP_GetRxCount(PCD_HandleTypeDef *hpcd, uint8_t ep_addr)
 882:Drivers/STM32F0xx_HAL_Driver/Src/stm32f0xx_hal_pcd.c **** {
 2215              		.loc 1 882 0 is_stmt 1
 2216              		.cfi_startproc
 2217              		@ args = 0, pretend = 0, frame = 0
 2218              		@ frame_needed = 0, uses_anonymous_args = 0
 2219              		@ link register save eliminated.
 2220              	.LVL176:
 883:Drivers/STM32F0xx_HAL_Driver/Src/stm32f0xx_hal_pcd.c ****   return hpcd->OUT_ep[ep_addr & 0x7FU].xfer_count;
 2221              		.loc 1 883 0
 2222 0000 7F23     		movs	r3, #127
 2223 0002 1940     		ands	r1, r3
 2224              	.LVL177:
 2225 0004 CB00     		lsls	r3, r1, #3
ARM GAS  /tmp/ccMLnPi5.s 			page 57


 2226 0006 591A     		subs	r1, r3, r1
 2227 0008 8B00     		lsls	r3, r1, #2
 2228 000a C018     		adds	r0, r0, r3
 2229              	.LVL178:
 2230 000c 2130     		adds	r0, r0, #33
 2231 000e FF30     		adds	r0, r0, #255
 2232 0010 0088     		ldrh	r0, [r0]
 884:Drivers/STM32F0xx_HAL_Driver/Src/stm32f0xx_hal_pcd.c **** }
 2233              		.loc 1 884 0
 2234              		@ sp needed
 2235 0012 7047     		bx	lr
 2236              		.cfi_endproc
 2237              	.LFE61:
 2239              		.section	.text.HAL_PCD_EP_SetStall,"ax",%progbits
 2240              		.align	1
 2241              		.global	HAL_PCD_EP_SetStall
 2242              		.syntax unified
 2243              		.code	16
 2244              		.thumb_func
 2245              		.fpu softvfp
 2247              	HAL_PCD_EP_SetStall:
 2248              	.LFB63:
 885:Drivers/STM32F0xx_HAL_Driver/Src/stm32f0xx_hal_pcd.c **** /**
 886:Drivers/STM32F0xx_HAL_Driver/Src/stm32f0xx_hal_pcd.c ****   * @brief  Send an amount of data  
 887:Drivers/STM32F0xx_HAL_Driver/Src/stm32f0xx_hal_pcd.c ****   * @param  hpcd PCD handle
 888:Drivers/STM32F0xx_HAL_Driver/Src/stm32f0xx_hal_pcd.c ****   * @param  ep_addr endpoint address
 889:Drivers/STM32F0xx_HAL_Driver/Src/stm32f0xx_hal_pcd.c ****   * @param  pBuf pointer to the transmission buffer   
 890:Drivers/STM32F0xx_HAL_Driver/Src/stm32f0xx_hal_pcd.c ****   * @param  len amount of data to be sent
 891:Drivers/STM32F0xx_HAL_Driver/Src/stm32f0xx_hal_pcd.c ****   * @retval HAL status
 892:Drivers/STM32F0xx_HAL_Driver/Src/stm32f0xx_hal_pcd.c ****   */
 893:Drivers/STM32F0xx_HAL_Driver/Src/stm32f0xx_hal_pcd.c **** HAL_StatusTypeDef HAL_PCD_EP_Transmit(PCD_HandleTypeDef *hpcd, uint8_t ep_addr, uint8_t *pBuf, uint
 894:Drivers/STM32F0xx_HAL_Driver/Src/stm32f0xx_hal_pcd.c **** {
 895:Drivers/STM32F0xx_HAL_Driver/Src/stm32f0xx_hal_pcd.c ****   PCD_EPTypeDef *ep;
 896:Drivers/STM32F0xx_HAL_Driver/Src/stm32f0xx_hal_pcd.c ****   uint16_t pmabuffer = 0U;
 897:Drivers/STM32F0xx_HAL_Driver/Src/stm32f0xx_hal_pcd.c ****     
 898:Drivers/STM32F0xx_HAL_Driver/Src/stm32f0xx_hal_pcd.c ****   ep = &hpcd->IN_ep[ep_addr & 0x7FU];
 899:Drivers/STM32F0xx_HAL_Driver/Src/stm32f0xx_hal_pcd.c ****   
 900:Drivers/STM32F0xx_HAL_Driver/Src/stm32f0xx_hal_pcd.c ****   /*setup and start the Xfer */
 901:Drivers/STM32F0xx_HAL_Driver/Src/stm32f0xx_hal_pcd.c ****   ep->xfer_buff = pBuf;  
 902:Drivers/STM32F0xx_HAL_Driver/Src/stm32f0xx_hal_pcd.c ****   ep->xfer_len = len;
 903:Drivers/STM32F0xx_HAL_Driver/Src/stm32f0xx_hal_pcd.c ****   ep->xfer_count = 0U;
 904:Drivers/STM32F0xx_HAL_Driver/Src/stm32f0xx_hal_pcd.c ****   ep->is_in = 1U;
 905:Drivers/STM32F0xx_HAL_Driver/Src/stm32f0xx_hal_pcd.c ****   ep->num = ep_addr & 0x7FU;
 906:Drivers/STM32F0xx_HAL_Driver/Src/stm32f0xx_hal_pcd.c ****   
 907:Drivers/STM32F0xx_HAL_Driver/Src/stm32f0xx_hal_pcd.c ****   /*Multi packet transfer*/
 908:Drivers/STM32F0xx_HAL_Driver/Src/stm32f0xx_hal_pcd.c ****   if (ep->xfer_len > ep->maxpacket)
 909:Drivers/STM32F0xx_HAL_Driver/Src/stm32f0xx_hal_pcd.c ****   {
 910:Drivers/STM32F0xx_HAL_Driver/Src/stm32f0xx_hal_pcd.c ****     len=ep->maxpacket;
 911:Drivers/STM32F0xx_HAL_Driver/Src/stm32f0xx_hal_pcd.c ****     ep->xfer_len-=len; 
 912:Drivers/STM32F0xx_HAL_Driver/Src/stm32f0xx_hal_pcd.c ****   }
 913:Drivers/STM32F0xx_HAL_Driver/Src/stm32f0xx_hal_pcd.c ****   else
 914:Drivers/STM32F0xx_HAL_Driver/Src/stm32f0xx_hal_pcd.c ****   {  
 915:Drivers/STM32F0xx_HAL_Driver/Src/stm32f0xx_hal_pcd.c ****     len=ep->xfer_len;
 916:Drivers/STM32F0xx_HAL_Driver/Src/stm32f0xx_hal_pcd.c ****     ep->xfer_len =0U;
 917:Drivers/STM32F0xx_HAL_Driver/Src/stm32f0xx_hal_pcd.c ****   }
 918:Drivers/STM32F0xx_HAL_Driver/Src/stm32f0xx_hal_pcd.c ****   
 919:Drivers/STM32F0xx_HAL_Driver/Src/stm32f0xx_hal_pcd.c ****   /* configure and validate Tx endpoint */
ARM GAS  /tmp/ccMLnPi5.s 			page 58


 920:Drivers/STM32F0xx_HAL_Driver/Src/stm32f0xx_hal_pcd.c ****   if (ep->doublebuffer == 0U) 
 921:Drivers/STM32F0xx_HAL_Driver/Src/stm32f0xx_hal_pcd.c ****   {
 922:Drivers/STM32F0xx_HAL_Driver/Src/stm32f0xx_hal_pcd.c ****     PCD_WritePMA(hpcd->Instance, ep->xfer_buff, ep->pmaadress, len);
 923:Drivers/STM32F0xx_HAL_Driver/Src/stm32f0xx_hal_pcd.c ****     PCD_SET_EP_TX_CNT(hpcd->Instance, ep->num, len);
 924:Drivers/STM32F0xx_HAL_Driver/Src/stm32f0xx_hal_pcd.c ****   }
 925:Drivers/STM32F0xx_HAL_Driver/Src/stm32f0xx_hal_pcd.c ****   else
 926:Drivers/STM32F0xx_HAL_Driver/Src/stm32f0xx_hal_pcd.c ****   {
 927:Drivers/STM32F0xx_HAL_Driver/Src/stm32f0xx_hal_pcd.c ****     /*Write the data to the USB endpoint*/
 928:Drivers/STM32F0xx_HAL_Driver/Src/stm32f0xx_hal_pcd.c ****     if ((PCD_GET_ENDPOINT(hpcd->Instance, ep->num)& USB_EP_DTOG_TX) == USB_EP_DTOG_TX)
 929:Drivers/STM32F0xx_HAL_Driver/Src/stm32f0xx_hal_pcd.c ****     {
 930:Drivers/STM32F0xx_HAL_Driver/Src/stm32f0xx_hal_pcd.c ****       /*Set the Double buffer counter for pmabuffer1*/
 931:Drivers/STM32F0xx_HAL_Driver/Src/stm32f0xx_hal_pcd.c ****       PCD_SET_EP_DBUF1_CNT(hpcd->Instance, ep->num, ep->is_in, len)
 932:Drivers/STM32F0xx_HAL_Driver/Src/stm32f0xx_hal_pcd.c ****       pmabuffer = ep->pmaaddr1;
 933:Drivers/STM32F0xx_HAL_Driver/Src/stm32f0xx_hal_pcd.c ****     }
 934:Drivers/STM32F0xx_HAL_Driver/Src/stm32f0xx_hal_pcd.c ****     else
 935:Drivers/STM32F0xx_HAL_Driver/Src/stm32f0xx_hal_pcd.c ****     {
 936:Drivers/STM32F0xx_HAL_Driver/Src/stm32f0xx_hal_pcd.c ****       /*Set the Double buffer counter for pmabuffer0*/
 937:Drivers/STM32F0xx_HAL_Driver/Src/stm32f0xx_hal_pcd.c ****       PCD_SET_EP_DBUF0_CNT(hpcd->Instance, ep->num, ep->is_in, len)
 938:Drivers/STM32F0xx_HAL_Driver/Src/stm32f0xx_hal_pcd.c ****       pmabuffer = ep->pmaaddr0;
 939:Drivers/STM32F0xx_HAL_Driver/Src/stm32f0xx_hal_pcd.c ****     }
 940:Drivers/STM32F0xx_HAL_Driver/Src/stm32f0xx_hal_pcd.c **** 
 941:Drivers/STM32F0xx_HAL_Driver/Src/stm32f0xx_hal_pcd.c ****     PCD_WritePMA(hpcd->Instance, ep->xfer_buff, pmabuffer, len);
 942:Drivers/STM32F0xx_HAL_Driver/Src/stm32f0xx_hal_pcd.c ****     PCD_FreeUserBuffer(hpcd->Instance, ep->num, ep->is_in)
 943:Drivers/STM32F0xx_HAL_Driver/Src/stm32f0xx_hal_pcd.c ****   }
 944:Drivers/STM32F0xx_HAL_Driver/Src/stm32f0xx_hal_pcd.c **** 
 945:Drivers/STM32F0xx_HAL_Driver/Src/stm32f0xx_hal_pcd.c ****   PCD_SET_EP_TX_STATUS(hpcd->Instance, ep->num, USB_EP_TX_VALID)
 946:Drivers/STM32F0xx_HAL_Driver/Src/stm32f0xx_hal_pcd.c ****      
 947:Drivers/STM32F0xx_HAL_Driver/Src/stm32f0xx_hal_pcd.c ****   return HAL_OK;
 948:Drivers/STM32F0xx_HAL_Driver/Src/stm32f0xx_hal_pcd.c **** }
 949:Drivers/STM32F0xx_HAL_Driver/Src/stm32f0xx_hal_pcd.c **** 
 950:Drivers/STM32F0xx_HAL_Driver/Src/stm32f0xx_hal_pcd.c **** /**
 951:Drivers/STM32F0xx_HAL_Driver/Src/stm32f0xx_hal_pcd.c ****   * @brief  Set a STALL condition over an endpoint
 952:Drivers/STM32F0xx_HAL_Driver/Src/stm32f0xx_hal_pcd.c ****   * @param  hpcd PCD handle
 953:Drivers/STM32F0xx_HAL_Driver/Src/stm32f0xx_hal_pcd.c ****   * @param  ep_addr endpoint address
 954:Drivers/STM32F0xx_HAL_Driver/Src/stm32f0xx_hal_pcd.c ****   * @retval HAL status
 955:Drivers/STM32F0xx_HAL_Driver/Src/stm32f0xx_hal_pcd.c ****   */
 956:Drivers/STM32F0xx_HAL_Driver/Src/stm32f0xx_hal_pcd.c **** HAL_StatusTypeDef HAL_PCD_EP_SetStall(PCD_HandleTypeDef *hpcd, uint8_t ep_addr)
 957:Drivers/STM32F0xx_HAL_Driver/Src/stm32f0xx_hal_pcd.c **** {
 2249              		.loc 1 957 0
 2250              		.cfi_startproc
 2251              		@ args = 0, pretend = 0, frame = 0
 2252              		@ frame_needed = 0, uses_anonymous_args = 0
 2253              	.LVL179:
 2254 0000 10B5     		push	{r4, lr}
 2255              	.LCFI8:
 2256              		.cfi_def_cfa_offset 8
 2257              		.cfi_offset 4, -8
 2258              		.cfi_offset 14, -4
 958:Drivers/STM32F0xx_HAL_Driver/Src/stm32f0xx_hal_pcd.c ****   PCD_EPTypeDef *ep;
 959:Drivers/STM32F0xx_HAL_Driver/Src/stm32f0xx_hal_pcd.c ****    
 960:Drivers/STM32F0xx_HAL_Driver/Src/stm32f0xx_hal_pcd.c ****   __HAL_LOCK(hpcd); 
 2259              		.loc 1 960 0
 2260 0002 F423     		movs	r3, #244
 2261 0004 5B00     		lsls	r3, r3, #1
 2262 0006 C35C     		ldrb	r3, [r0, r3]
 2263 0008 012B     		cmp	r3, #1
 2264 000a 50D0     		beq	.L120
ARM GAS  /tmp/ccMLnPi5.s 			page 59


 2265              		.loc 1 960 0 is_stmt 0 discriminator 2
 2266 000c F423     		movs	r3, #244
 2267 000e 5B00     		lsls	r3, r3, #1
 2268 0010 0122     		movs	r2, #1
 2269 0012 C254     		strb	r2, [r0, r3]
 961:Drivers/STM32F0xx_HAL_Driver/Src/stm32f0xx_hal_pcd.c ****    
 962:Drivers/STM32F0xx_HAL_Driver/Src/stm32f0xx_hal_pcd.c ****   if ((0x80U & ep_addr) == 0x80U)
 2270              		.loc 1 962 0 is_stmt 1 discriminator 2
 2271 0014 4CB2     		sxtb	r4, r1
 2272 0016 002C     		cmp	r4, #0
 2273 0018 21DB     		blt	.L121
 963:Drivers/STM32F0xx_HAL_Driver/Src/stm32f0xx_hal_pcd.c ****   {
 964:Drivers/STM32F0xx_HAL_Driver/Src/stm32f0xx_hal_pcd.c ****     ep = &hpcd->IN_ep[ep_addr & 0x7FU];
 965:Drivers/STM32F0xx_HAL_Driver/Src/stm32f0xx_hal_pcd.c ****   }
 966:Drivers/STM32F0xx_HAL_Driver/Src/stm32f0xx_hal_pcd.c ****   else
 967:Drivers/STM32F0xx_HAL_Driver/Src/stm32f0xx_hal_pcd.c ****   {
 968:Drivers/STM32F0xx_HAL_Driver/Src/stm32f0xx_hal_pcd.c ****     ep = &hpcd->OUT_ep[ep_addr];
 2274              		.loc 1 968 0
 2275 001a CA00     		lsls	r2, r1, #3
 2276 001c 521A     		subs	r2, r2, r1
 2277 001e 9300     		lsls	r3, r2, #2
 2278 0020 0933     		adds	r3, r3, #9
 2279 0022 FF33     		adds	r3, r3, #255
 2280 0024 C318     		adds	r3, r0, r3
 2281              	.LVL180:
 2282              	.L116:
 969:Drivers/STM32F0xx_HAL_Driver/Src/stm32f0xx_hal_pcd.c ****   }
 970:Drivers/STM32F0xx_HAL_Driver/Src/stm32f0xx_hal_pcd.c ****   
 971:Drivers/STM32F0xx_HAL_Driver/Src/stm32f0xx_hal_pcd.c ****   ep->is_stall = 1;
 2283              		.loc 1 971 0
 2284 0026 0122     		movs	r2, #1
 2285 0028 9A70     		strb	r2, [r3, #2]
 972:Drivers/STM32F0xx_HAL_Driver/Src/stm32f0xx_hal_pcd.c ****   ep->num   = ep_addr & 0x7FU;
 2286              		.loc 1 972 0
 2287 002a 7E32     		adds	r2, r2, #126
 2288 002c 1140     		ands	r1, r2
 2289              	.LVL181:
 2290 002e 1970     		strb	r1, [r3]
 973:Drivers/STM32F0xx_HAL_Driver/Src/stm32f0xx_hal_pcd.c ****   ep->is_in = ((ep_addr & 0x80U) == 0x80U);
 2291              		.loc 1 973 0
 2292 0030 E40F     		lsrs	r4, r4, #31
 2293              	.LVL182:
 2294 0032 5C70     		strb	r4, [r3, #1]
 974:Drivers/STM32F0xx_HAL_Driver/Src/stm32f0xx_hal_pcd.c ****   
 975:Drivers/STM32F0xx_HAL_Driver/Src/stm32f0xx_hal_pcd.c ****   if (ep->num == 0U)
 2295              		.loc 1 975 0
 2296 0034 0029     		cmp	r1, #0
 2297 0036 1BD1     		bne	.L117
 2298              	.LBB29:
 976:Drivers/STM32F0xx_HAL_Driver/Src/stm32f0xx_hal_pcd.c ****   {
 977:Drivers/STM32F0xx_HAL_Driver/Src/stm32f0xx_hal_pcd.c ****     /* This macro sets STALL status for RX & TX*/ 
 978:Drivers/STM32F0xx_HAL_Driver/Src/stm32f0xx_hal_pcd.c ****     PCD_SET_EP_TXRX_STATUS(hpcd->Instance, ep->num, USB_EP_RX_STALL, USB_EP_TX_STALL)
 2299              		.loc 1 978 0
 2300 0038 8900     		lsls	r1, r1, #2
 2301 003a 0368     		ldr	r3, [r0]
 2302              	.LVL183:
 2303 003c 9C46     		mov	ip, r3
ARM GAS  /tmp/ccMLnPi5.s 			page 60


 2304 003e 6144     		add	r1, r1, ip
 2305 0040 0A88     		ldrh	r2, [r1]
 2306              	.LVL184:
 2307 0042 1C4B     		ldr	r3, .L122
 2308 0044 1A40     		ands	r2, r3
 2309              	.LVL185:
 2310 0046 1C4B     		ldr	r3, .L122+4
 2311 0048 5A40     		eors	r2, r3
 2312 004a 1C4B     		ldr	r3, .L122+8
 2313 004c 1343     		orrs	r3, r2
 2314 004e 9BB2     		uxth	r3, r3
 2315 0050 0B80     		strh	r3, [r1]
 2316              	.L118:
 2317              	.LBE29:
 979:Drivers/STM32F0xx_HAL_Driver/Src/stm32f0xx_hal_pcd.c ****   }
 980:Drivers/STM32F0xx_HAL_Driver/Src/stm32f0xx_hal_pcd.c ****   else
 981:Drivers/STM32F0xx_HAL_Driver/Src/stm32f0xx_hal_pcd.c ****   {
 982:Drivers/STM32F0xx_HAL_Driver/Src/stm32f0xx_hal_pcd.c ****     if (ep->is_in)
 983:Drivers/STM32F0xx_HAL_Driver/Src/stm32f0xx_hal_pcd.c ****     {
 984:Drivers/STM32F0xx_HAL_Driver/Src/stm32f0xx_hal_pcd.c ****       PCD_SET_EP_TX_STATUS(hpcd->Instance, ep->num , USB_EP_TX_STALL)
 985:Drivers/STM32F0xx_HAL_Driver/Src/stm32f0xx_hal_pcd.c ****     }
 986:Drivers/STM32F0xx_HAL_Driver/Src/stm32f0xx_hal_pcd.c ****     else
 987:Drivers/STM32F0xx_HAL_Driver/Src/stm32f0xx_hal_pcd.c ****     {
 988:Drivers/STM32F0xx_HAL_Driver/Src/stm32f0xx_hal_pcd.c ****       PCD_SET_EP_RX_STATUS(hpcd->Instance, ep->num , USB_EP_RX_STALL)
 989:Drivers/STM32F0xx_HAL_Driver/Src/stm32f0xx_hal_pcd.c ****     }
 990:Drivers/STM32F0xx_HAL_Driver/Src/stm32f0xx_hal_pcd.c ****   }
 991:Drivers/STM32F0xx_HAL_Driver/Src/stm32f0xx_hal_pcd.c ****   __HAL_UNLOCK(hpcd); 
 2318              		.loc 1 991 0
 2319 0052 F423     		movs	r3, #244
 2320 0054 5B00     		lsls	r3, r3, #1
 2321 0056 0022     		movs	r2, #0
 2322 0058 C254     		strb	r2, [r0, r3]
 992:Drivers/STM32F0xx_HAL_Driver/Src/stm32f0xx_hal_pcd.c ****   
 993:Drivers/STM32F0xx_HAL_Driver/Src/stm32f0xx_hal_pcd.c ****   return HAL_OK;
 2323              		.loc 1 993 0
 2324 005a 0020     		movs	r0, #0
 2325              	.LVL186:
 2326              	.L114:
 994:Drivers/STM32F0xx_HAL_Driver/Src/stm32f0xx_hal_pcd.c **** }
 2327              		.loc 1 994 0
 2328              		@ sp needed
 2329 005c 10BD     		pop	{r4, pc}
 2330              	.LVL187:
 2331              	.L121:
 964:Drivers/STM32F0xx_HAL_Driver/Src/stm32f0xx_hal_pcd.c ****   }
 2332              		.loc 1 964 0
 2333 005e 6A3B     		subs	r3, r3, #106
 2334 0060 FF3B     		subs	r3, r3, #255
 2335 0062 0B40     		ands	r3, r1
 2336 0064 DA00     		lsls	r2, r3, #3
 2337 0066 D21A     		subs	r2, r2, r3
 2338 0068 9300     		lsls	r3, r2, #2
 2339 006a 2833     		adds	r3, r3, #40
 2340 006c C318     		adds	r3, r0, r3
 2341              	.LVL188:
 2342 006e DAE7     		b	.L116
 2343              	.LVL189:
ARM GAS  /tmp/ccMLnPi5.s 			page 61


 2344              	.L117:
 982:Drivers/STM32F0xx_HAL_Driver/Src/stm32f0xx_hal_pcd.c ****     {
 2345              		.loc 1 982 0
 2346 0070 002C     		cmp	r4, #0
 2347 0072 0DD0     		beq	.L119
 2348              	.LBB30:
 984:Drivers/STM32F0xx_HAL_Driver/Src/stm32f0xx_hal_pcd.c ****     }
 2349              		.loc 1 984 0
 2350 0074 8900     		lsls	r1, r1, #2
 2351 0076 0368     		ldr	r3, [r0]
 2352              	.LVL190:
 2353 0078 9C46     		mov	ip, r3
 2354 007a 6144     		add	r1, r1, ip
 2355 007c 0B88     		ldrh	r3, [r1]
 2356 007e 104A     		ldr	r2, .L122+12
 2357 0080 1340     		ands	r3, r2
 2358              	.LVL191:
 2359 0082 1022     		movs	r2, #16
 2360 0084 5A40     		eors	r2, r3
 2361              	.LVL192:
 2362 0086 0D4B     		ldr	r3, .L122+8
 2363 0088 1343     		orrs	r3, r2
 2364 008a 9BB2     		uxth	r3, r3
 2365 008c 0B80     		strh	r3, [r1]
 2366              	.LBE30:
 2367 008e E0E7     		b	.L118
 2368              	.LVL193:
 2369              	.L119:
 2370              	.LBB31:
 988:Drivers/STM32F0xx_HAL_Driver/Src/stm32f0xx_hal_pcd.c ****     }
 2371              		.loc 1 988 0
 2372 0090 8900     		lsls	r1, r1, #2
 2373 0092 0368     		ldr	r3, [r0]
 2374              	.LVL194:
 2375 0094 9C46     		mov	ip, r3
 2376 0096 6144     		add	r1, r1, ip
 2377 0098 0A88     		ldrh	r2, [r1]
 2378 009a 0A4B     		ldr	r3, .L122+16
 2379 009c 1A40     		ands	r2, r3
 2380              	.LVL195:
 2381 009e 8023     		movs	r3, #128
 2382 00a0 5B01     		lsls	r3, r3, #5
 2383 00a2 5A40     		eors	r2, r3
 2384              	.LVL196:
 2385 00a4 054B     		ldr	r3, .L122+8
 2386 00a6 1343     		orrs	r3, r2
 2387 00a8 9BB2     		uxth	r3, r3
 2388 00aa 0B80     		strh	r3, [r1]
 2389 00ac D1E7     		b	.L118
 2390              	.LVL197:
 2391              	.L120:
 2392              	.LBE31:
 960:Drivers/STM32F0xx_HAL_Driver/Src/stm32f0xx_hal_pcd.c ****    
 2393              		.loc 1 960 0
 2394 00ae 0220     		movs	r0, #2
 2395              	.LVL198:
 2396 00b0 D4E7     		b	.L114
ARM GAS  /tmp/ccMLnPi5.s 			page 62


 2397              	.L123:
 2398 00b2 C046     		.align	2
 2399              	.L122:
 2400 00b4 BFBFFFFF 		.word	-16449
 2401 00b8 10100000 		.word	4112
 2402 00bc 8080FFFF 		.word	-32640
 2403 00c0 BF8FFFFF 		.word	-28737
 2404 00c4 8FBFFFFF 		.word	-16497
 2405              		.cfi_endproc
 2406              	.LFE63:
 2408              		.section	.text.HAL_PCD_EP_ClrStall,"ax",%progbits
 2409              		.align	1
 2410              		.global	HAL_PCD_EP_ClrStall
 2411              		.syntax unified
 2412              		.code	16
 2413              		.thumb_func
 2414              		.fpu softvfp
 2416              	HAL_PCD_EP_ClrStall:
 2417              	.LFB64:
 995:Drivers/STM32F0xx_HAL_Driver/Src/stm32f0xx_hal_pcd.c **** 
 996:Drivers/STM32F0xx_HAL_Driver/Src/stm32f0xx_hal_pcd.c **** /**
 997:Drivers/STM32F0xx_HAL_Driver/Src/stm32f0xx_hal_pcd.c ****   * @brief  Clear a STALL condition over in an endpoint
 998:Drivers/STM32F0xx_HAL_Driver/Src/stm32f0xx_hal_pcd.c ****   * @param  hpcd PCD handle
 999:Drivers/STM32F0xx_HAL_Driver/Src/stm32f0xx_hal_pcd.c ****   * @param  ep_addr endpoint address
1000:Drivers/STM32F0xx_HAL_Driver/Src/stm32f0xx_hal_pcd.c ****   * @retval HAL status
1001:Drivers/STM32F0xx_HAL_Driver/Src/stm32f0xx_hal_pcd.c ****   */
1002:Drivers/STM32F0xx_HAL_Driver/Src/stm32f0xx_hal_pcd.c **** HAL_StatusTypeDef HAL_PCD_EP_ClrStall(PCD_HandleTypeDef *hpcd, uint8_t ep_addr)
1003:Drivers/STM32F0xx_HAL_Driver/Src/stm32f0xx_hal_pcd.c **** {
 2418              		.loc 1 1003 0
 2419              		.cfi_startproc
 2420              		@ args = 0, pretend = 0, frame = 0
 2421              		@ frame_needed = 0, uses_anonymous_args = 0
 2422              	.LVL199:
 2423 0000 10B5     		push	{r4, lr}
 2424              	.LCFI9:
 2425              		.cfi_def_cfa_offset 8
 2426              		.cfi_offset 4, -8
 2427              		.cfi_offset 14, -4
1004:Drivers/STM32F0xx_HAL_Driver/Src/stm32f0xx_hal_pcd.c ****   PCD_EPTypeDef *ep;
1005:Drivers/STM32F0xx_HAL_Driver/Src/stm32f0xx_hal_pcd.c ****   
1006:Drivers/STM32F0xx_HAL_Driver/Src/stm32f0xx_hal_pcd.c ****   if ((0x80U & ep_addr) == 0x80U)
 2428              		.loc 1 1006 0
 2429 0002 4AB2     		sxtb	r2, r1
 2430 0004 002A     		cmp	r2, #0
 2431 0006 3BDB     		blt	.L133
1007:Drivers/STM32F0xx_HAL_Driver/Src/stm32f0xx_hal_pcd.c ****   {
1008:Drivers/STM32F0xx_HAL_Driver/Src/stm32f0xx_hal_pcd.c ****     ep = &hpcd->IN_ep[ep_addr & 0x7FU];
1009:Drivers/STM32F0xx_HAL_Driver/Src/stm32f0xx_hal_pcd.c ****   }
1010:Drivers/STM32F0xx_HAL_Driver/Src/stm32f0xx_hal_pcd.c ****   else
1011:Drivers/STM32F0xx_HAL_Driver/Src/stm32f0xx_hal_pcd.c ****   {
1012:Drivers/STM32F0xx_HAL_Driver/Src/stm32f0xx_hal_pcd.c ****     ep = &hpcd->OUT_ep[ep_addr];
 2432              		.loc 1 1012 0
 2433 0008 CC00     		lsls	r4, r1, #3
 2434 000a 641A     		subs	r4, r4, r1
 2435 000c A300     		lsls	r3, r4, #2
 2436 000e 0933     		adds	r3, r3, #9
 2437 0010 FF33     		adds	r3, r3, #255
ARM GAS  /tmp/ccMLnPi5.s 			page 63


 2438 0012 C318     		adds	r3, r0, r3
 2439              	.LVL200:
 2440              	.L126:
1013:Drivers/STM32F0xx_HAL_Driver/Src/stm32f0xx_hal_pcd.c ****   }
1014:Drivers/STM32F0xx_HAL_Driver/Src/stm32f0xx_hal_pcd.c ****   
1015:Drivers/STM32F0xx_HAL_Driver/Src/stm32f0xx_hal_pcd.c ****   ep->is_stall = 0U;
 2441              		.loc 1 1015 0
 2442 0014 0024     		movs	r4, #0
 2443 0016 9C70     		strb	r4, [r3, #2]
1016:Drivers/STM32F0xx_HAL_Driver/Src/stm32f0xx_hal_pcd.c ****   ep->num   = ep_addr & 0x7FU;
 2444              		.loc 1 1016 0
 2445 0018 7F34     		adds	r4, r4, #127
 2446 001a 2140     		ands	r1, r4
 2447              	.LVL201:
 2448 001c 1970     		strb	r1, [r3]
1017:Drivers/STM32F0xx_HAL_Driver/Src/stm32f0xx_hal_pcd.c ****   ep->is_in = ((ep_addr & 0x80U) == 0x80U);
 2449              		.loc 1 1017 0
 2450 001e D20F     		lsrs	r2, r2, #31
 2451              	.LVL202:
 2452 0020 5A70     		strb	r2, [r3, #1]
1018:Drivers/STM32F0xx_HAL_Driver/Src/stm32f0xx_hal_pcd.c ****   
1019:Drivers/STM32F0xx_HAL_Driver/Src/stm32f0xx_hal_pcd.c ****   __HAL_LOCK(hpcd); 
 2453              		.loc 1 1019 0
 2454 0022 F422     		movs	r2, #244
 2455 0024 5200     		lsls	r2, r2, #1
 2456 0026 825C     		ldrb	r2, [r0, r2]
 2457 0028 012A     		cmp	r2, #1
 2458 002a 50D0     		beq	.L132
 2459              		.loc 1 1019 0 is_stmt 0 discriminator 2
 2460 002c F422     		movs	r2, #244
 2461 002e 5200     		lsls	r2, r2, #1
 2462 0030 0121     		movs	r1, #1
 2463 0032 8154     		strb	r1, [r0, r2]
1020:Drivers/STM32F0xx_HAL_Driver/Src/stm32f0xx_hal_pcd.c ****   
1021:Drivers/STM32F0xx_HAL_Driver/Src/stm32f0xx_hal_pcd.c ****   if (ep->is_in)
 2464              		.loc 1 1021 0 is_stmt 1 discriminator 2
 2465 0034 5A78     		ldrb	r2, [r3, #1]
 2466 0036 002A     		cmp	r2, #0
 2467 0038 2AD0     		beq	.L128
1022:Drivers/STM32F0xx_HAL_Driver/Src/stm32f0xx_hal_pcd.c ****   {
1023:Drivers/STM32F0xx_HAL_Driver/Src/stm32f0xx_hal_pcd.c ****     PCD_CLEAR_TX_DTOG(hpcd->Instance, ep->num)
 2468              		.loc 1 1023 0
 2469 003a 1A78     		ldrb	r2, [r3]
 2470 003c 9200     		lsls	r2, r2, #2
 2471 003e 0168     		ldr	r1, [r0]
 2472 0040 8C46     		mov	ip, r1
 2473 0042 6244     		add	r2, r2, ip
 2474 0044 1188     		ldrh	r1, [r2]
 2475 0046 4906     		lsls	r1, r1, #25
 2476 0048 06D5     		bpl	.L129
 2477              		.loc 1 1023 0 is_stmt 0 discriminator 1
 2478 004a 1188     		ldrh	r1, [r2]
 2479 004c 214C     		ldr	r4, .L134
 2480 004e 0C40     		ands	r4, r1
 2481 0050 2149     		ldr	r1, .L134+4
 2482 0052 2143     		orrs	r1, r4
 2483 0054 89B2     		uxth	r1, r1
ARM GAS  /tmp/ccMLnPi5.s 			page 64


 2484 0056 1180     		strh	r1, [r2]
 2485              	.L129:
 2486              	.LBB32:
1024:Drivers/STM32F0xx_HAL_Driver/Src/stm32f0xx_hal_pcd.c ****     PCD_SET_EP_TX_STATUS(hpcd->Instance, ep->num, USB_EP_TX_VALID)
 2487              		.loc 1 1024 0 is_stmt 1
 2488 0058 1978     		ldrb	r1, [r3]
 2489 005a 8900     		lsls	r1, r1, #2
 2490 005c 0368     		ldr	r3, [r0]
 2491              	.LVL203:
 2492 005e 9C46     		mov	ip, r3
 2493 0060 6144     		add	r1, r1, ip
 2494 0062 0B88     		ldrh	r3, [r1]
 2495 0064 1D4A     		ldr	r2, .L134+8
 2496 0066 1340     		ands	r3, r2
 2497              	.LVL204:
 2498 0068 3022     		movs	r2, #48
 2499 006a 5A40     		eors	r2, r3
 2500              	.LVL205:
 2501 006c 1C4B     		ldr	r3, .L134+12
 2502 006e 1343     		orrs	r3, r2
 2503 0070 9BB2     		uxth	r3, r3
 2504 0072 0B80     		strh	r3, [r1]
 2505              	.LVL206:
 2506              	.L130:
 2507              	.LBE32:
1025:Drivers/STM32F0xx_HAL_Driver/Src/stm32f0xx_hal_pcd.c ****   }
1026:Drivers/STM32F0xx_HAL_Driver/Src/stm32f0xx_hal_pcd.c ****   else
1027:Drivers/STM32F0xx_HAL_Driver/Src/stm32f0xx_hal_pcd.c ****   {
1028:Drivers/STM32F0xx_HAL_Driver/Src/stm32f0xx_hal_pcd.c ****     PCD_CLEAR_RX_DTOG(hpcd->Instance, ep->num)
1029:Drivers/STM32F0xx_HAL_Driver/Src/stm32f0xx_hal_pcd.c ****     PCD_SET_EP_RX_STATUS(hpcd->Instance, ep->num, USB_EP_RX_VALID)
1030:Drivers/STM32F0xx_HAL_Driver/Src/stm32f0xx_hal_pcd.c ****   }
1031:Drivers/STM32F0xx_HAL_Driver/Src/stm32f0xx_hal_pcd.c ****   __HAL_UNLOCK(hpcd); 
 2508              		.loc 1 1031 0
 2509 0074 F423     		movs	r3, #244
 2510 0076 5B00     		lsls	r3, r3, #1
 2511 0078 0022     		movs	r2, #0
 2512 007a C254     		strb	r2, [r0, r3]
1032:Drivers/STM32F0xx_HAL_Driver/Src/stm32f0xx_hal_pcd.c ****     
1033:Drivers/STM32F0xx_HAL_Driver/Src/stm32f0xx_hal_pcd.c ****   return HAL_OK;
 2513              		.loc 1 1033 0
 2514 007c 0020     		movs	r0, #0
 2515              	.LVL207:
 2516              	.L127:
1034:Drivers/STM32F0xx_HAL_Driver/Src/stm32f0xx_hal_pcd.c **** }
 2517              		.loc 1 1034 0
 2518              		@ sp needed
 2519 007e 10BD     		pop	{r4, pc}
 2520              	.LVL208:
 2521              	.L133:
1008:Drivers/STM32F0xx_HAL_Driver/Src/stm32f0xx_hal_pcd.c ****   }
 2522              		.loc 1 1008 0
 2523 0080 7F23     		movs	r3, #127
 2524 0082 0B40     		ands	r3, r1
 2525 0084 DC00     		lsls	r4, r3, #3
 2526 0086 E41A     		subs	r4, r4, r3
 2527 0088 A300     		lsls	r3, r4, #2
 2528 008a 2833     		adds	r3, r3, #40
ARM GAS  /tmp/ccMLnPi5.s 			page 65


 2529 008c C318     		adds	r3, r0, r3
 2530              	.LVL209:
 2531 008e C1E7     		b	.L126
 2532              	.LVL210:
 2533              	.L128:
1028:Drivers/STM32F0xx_HAL_Driver/Src/stm32f0xx_hal_pcd.c ****     PCD_SET_EP_RX_STATUS(hpcd->Instance, ep->num, USB_EP_RX_VALID)
 2534              		.loc 1 1028 0
 2535 0090 1A78     		ldrb	r2, [r3]
 2536 0092 9200     		lsls	r2, r2, #2
 2537 0094 0168     		ldr	r1, [r0]
 2538 0096 8C46     		mov	ip, r1
 2539 0098 6244     		add	r2, r2, ip
 2540 009a 1188     		ldrh	r1, [r2]
 2541 009c 4904     		lsls	r1, r1, #17
 2542 009e 06D5     		bpl	.L131
1028:Drivers/STM32F0xx_HAL_Driver/Src/stm32f0xx_hal_pcd.c ****     PCD_SET_EP_RX_STATUS(hpcd->Instance, ep->num, USB_EP_RX_VALID)
 2543              		.loc 1 1028 0 is_stmt 0 discriminator 1
 2544 00a0 1188     		ldrh	r1, [r2]
 2545 00a2 0C4C     		ldr	r4, .L134
 2546 00a4 0C40     		ands	r4, r1
 2547 00a6 0F49     		ldr	r1, .L134+16
 2548 00a8 2143     		orrs	r1, r4
 2549 00aa 89B2     		uxth	r1, r1
 2550 00ac 1180     		strh	r1, [r2]
 2551              	.L131:
 2552              	.LBB33:
1029:Drivers/STM32F0xx_HAL_Driver/Src/stm32f0xx_hal_pcd.c ****   }
 2553              		.loc 1 1029 0 is_stmt 1
 2554 00ae 1A78     		ldrb	r2, [r3]
 2555 00b0 9200     		lsls	r2, r2, #2
 2556 00b2 0368     		ldr	r3, [r0]
 2557              	.LVL211:
 2558 00b4 9C46     		mov	ip, r3
 2559 00b6 6244     		add	r2, r2, ip
 2560 00b8 1188     		ldrh	r1, [r2]
 2561 00ba 0B4B     		ldr	r3, .L134+20
 2562 00bc 1940     		ands	r1, r3
 2563              	.LVL212:
 2564 00be C023     		movs	r3, #192
 2565 00c0 9B01     		lsls	r3, r3, #6
 2566 00c2 5940     		eors	r1, r3
 2567              	.LVL213:
 2568 00c4 064B     		ldr	r3, .L134+12
 2569 00c6 0B43     		orrs	r3, r1
 2570 00c8 9BB2     		uxth	r3, r3
 2571 00ca 1380     		strh	r3, [r2]
 2572 00cc D2E7     		b	.L130
 2573              	.LVL214:
 2574              	.L132:
 2575              	.LBE33:
1019:Drivers/STM32F0xx_HAL_Driver/Src/stm32f0xx_hal_pcd.c ****   
 2576              		.loc 1 1019 0
 2577 00ce 0220     		movs	r0, #2
 2578              	.LVL215:
 2579 00d0 D5E7     		b	.L127
 2580              	.L135:
 2581 00d2 C046     		.align	2
ARM GAS  /tmp/ccMLnPi5.s 			page 66


 2582              	.L134:
 2583 00d4 0F0F0000 		.word	3855
 2584 00d8 C080FFFF 		.word	-32576
 2585 00dc BF8FFFFF 		.word	-28737
 2586 00e0 8080FFFF 		.word	-32640
 2587 00e4 80C0FFFF 		.word	-16256
 2588 00e8 8FBFFFFF 		.word	-16497
 2589              		.cfi_endproc
 2590              	.LFE64:
 2592              		.section	.text.HAL_PCD_EP_Flush,"ax",%progbits
 2593              		.align	1
 2594              		.global	HAL_PCD_EP_Flush
 2595              		.syntax unified
 2596              		.code	16
 2597              		.thumb_func
 2598              		.fpu softvfp
 2600              	HAL_PCD_EP_Flush:
 2601              	.LFB65:
1035:Drivers/STM32F0xx_HAL_Driver/Src/stm32f0xx_hal_pcd.c **** 
1036:Drivers/STM32F0xx_HAL_Driver/Src/stm32f0xx_hal_pcd.c **** /**
1037:Drivers/STM32F0xx_HAL_Driver/Src/stm32f0xx_hal_pcd.c ****   * @brief  Flush an endpoint
1038:Drivers/STM32F0xx_HAL_Driver/Src/stm32f0xx_hal_pcd.c ****   * @param  hpcd PCD handle
1039:Drivers/STM32F0xx_HAL_Driver/Src/stm32f0xx_hal_pcd.c ****   * @param  ep_addr endpoint address
1040:Drivers/STM32F0xx_HAL_Driver/Src/stm32f0xx_hal_pcd.c ****   * @retval HAL status
1041:Drivers/STM32F0xx_HAL_Driver/Src/stm32f0xx_hal_pcd.c ****   */
1042:Drivers/STM32F0xx_HAL_Driver/Src/stm32f0xx_hal_pcd.c **** HAL_StatusTypeDef HAL_PCD_EP_Flush(PCD_HandleTypeDef *hpcd, uint8_t ep_addr)
1043:Drivers/STM32F0xx_HAL_Driver/Src/stm32f0xx_hal_pcd.c **** { 
 2602              		.loc 1 1043 0
 2603              		.cfi_startproc
 2604              		@ args = 0, pretend = 0, frame = 0
 2605              		@ frame_needed = 0, uses_anonymous_args = 0
 2606              		@ link register save eliminated.
 2607              	.LVL216:
1044:Drivers/STM32F0xx_HAL_Driver/Src/stm32f0xx_hal_pcd.c ****   return HAL_OK;
1045:Drivers/STM32F0xx_HAL_Driver/Src/stm32f0xx_hal_pcd.c **** }
 2608              		.loc 1 1045 0
 2609 0000 0020     		movs	r0, #0
 2610              	.LVL217:
 2611              		@ sp needed
 2612 0002 7047     		bx	lr
 2613              		.cfi_endproc
 2614              	.LFE65:
 2616              		.section	.text.HAL_PCD_ActivateRemoteWakeup,"ax",%progbits
 2617              		.align	1
 2618              		.global	HAL_PCD_ActivateRemoteWakeup
 2619              		.syntax unified
 2620              		.code	16
 2621              		.thumb_func
 2622              		.fpu softvfp
 2624              	HAL_PCD_ActivateRemoteWakeup:
 2625              	.LFB66:
1046:Drivers/STM32F0xx_HAL_Driver/Src/stm32f0xx_hal_pcd.c **** 
1047:Drivers/STM32F0xx_HAL_Driver/Src/stm32f0xx_hal_pcd.c **** /**
1048:Drivers/STM32F0xx_HAL_Driver/Src/stm32f0xx_hal_pcd.c ****   * @brief  HAL_PCD_ActivateRemoteWakeup : active remote wakeup signalling
1049:Drivers/STM32F0xx_HAL_Driver/Src/stm32f0xx_hal_pcd.c **** * @param  hpcd PCD handle
1050:Drivers/STM32F0xx_HAL_Driver/Src/stm32f0xx_hal_pcd.c **** * @retval HAL status
1051:Drivers/STM32F0xx_HAL_Driver/Src/stm32f0xx_hal_pcd.c **** */
ARM GAS  /tmp/ccMLnPi5.s 			page 67


1052:Drivers/STM32F0xx_HAL_Driver/Src/stm32f0xx_hal_pcd.c **** HAL_StatusTypeDef HAL_PCD_ActivateRemoteWakeup(PCD_HandleTypeDef *hpcd)
1053:Drivers/STM32F0xx_HAL_Driver/Src/stm32f0xx_hal_pcd.c **** {
 2626              		.loc 1 1053 0
 2627              		.cfi_startproc
 2628              		@ args = 0, pretend = 0, frame = 0
 2629              		@ frame_needed = 0, uses_anonymous_args = 0
 2630              		@ link register save eliminated.
 2631              	.LVL218:
1054:Drivers/STM32F0xx_HAL_Driver/Src/stm32f0xx_hal_pcd.c ****   if (hpcd->Init.lpm_enable ==1)
 2632              		.loc 1 1054 0
 2633 0000 C369     		ldr	r3, [r0, #28]
 2634 0002 012B     		cmp	r3, #1
 2635 0004 07D0     		beq	.L140
1055:Drivers/STM32F0xx_HAL_Driver/Src/stm32f0xx_hal_pcd.c ****   {
1056:Drivers/STM32F0xx_HAL_Driver/Src/stm32f0xx_hal_pcd.c ****     /* Apply L1 Resume */
1057:Drivers/STM32F0xx_HAL_Driver/Src/stm32f0xx_hal_pcd.c ****     hpcd->Instance->CNTR |= USB_CNTR_L1RESUME;
1058:Drivers/STM32F0xx_HAL_Driver/Src/stm32f0xx_hal_pcd.c ****   }
1059:Drivers/STM32F0xx_HAL_Driver/Src/stm32f0xx_hal_pcd.c ****   else
1060:Drivers/STM32F0xx_HAL_Driver/Src/stm32f0xx_hal_pcd.c ****   {
1061:Drivers/STM32F0xx_HAL_Driver/Src/stm32f0xx_hal_pcd.c ****     /* Apply L2 Resume */
1062:Drivers/STM32F0xx_HAL_Driver/Src/stm32f0xx_hal_pcd.c ****     hpcd->Instance->CNTR |= USB_CNTR_RESUME;
 2636              		.loc 1 1062 0
 2637 0006 0168     		ldr	r1, [r0]
 2638 0008 4022     		movs	r2, #64
 2639 000a 8B5A     		ldrh	r3, [r1, r2]
 2640 000c 1020     		movs	r0, #16
 2641              	.LVL219:
 2642 000e 0343     		orrs	r3, r0
 2643 0010 8B52     		strh	r3, [r1, r2]
 2644              	.L139:
1063:Drivers/STM32F0xx_HAL_Driver/Src/stm32f0xx_hal_pcd.c ****   }
1064:Drivers/STM32F0xx_HAL_Driver/Src/stm32f0xx_hal_pcd.c ****   
1065:Drivers/STM32F0xx_HAL_Driver/Src/stm32f0xx_hal_pcd.c ****   return (HAL_OK);
1066:Drivers/STM32F0xx_HAL_Driver/Src/stm32f0xx_hal_pcd.c **** }
 2645              		.loc 1 1066 0
 2646 0012 0020     		movs	r0, #0
 2647              		@ sp needed
 2648 0014 7047     		bx	lr
 2649              	.LVL220:
 2650              	.L140:
1057:Drivers/STM32F0xx_HAL_Driver/Src/stm32f0xx_hal_pcd.c ****   }
 2651              		.loc 1 1057 0
 2652 0016 0168     		ldr	r1, [r0]
 2653 0018 4022     		movs	r2, #64
 2654 001a 8B5A     		ldrh	r3, [r1, r2]
 2655 001c 2020     		movs	r0, #32
 2656              	.LVL221:
 2657 001e 0343     		orrs	r3, r0
 2658 0020 8B52     		strh	r3, [r1, r2]
 2659 0022 F6E7     		b	.L139
 2660              		.cfi_endproc
 2661              	.LFE66:
 2663              		.section	.text.HAL_PCD_DeActivateRemoteWakeup,"ax",%progbits
 2664              		.align	1
 2665              		.global	HAL_PCD_DeActivateRemoteWakeup
 2666              		.syntax unified
 2667              		.code	16
ARM GAS  /tmp/ccMLnPi5.s 			page 68


 2668              		.thumb_func
 2669              		.fpu softvfp
 2671              	HAL_PCD_DeActivateRemoteWakeup:
 2672              	.LFB67:
1067:Drivers/STM32F0xx_HAL_Driver/Src/stm32f0xx_hal_pcd.c **** 
1068:Drivers/STM32F0xx_HAL_Driver/Src/stm32f0xx_hal_pcd.c **** /**
1069:Drivers/STM32F0xx_HAL_Driver/Src/stm32f0xx_hal_pcd.c **** * @brief  HAL_PCD_DeActivateRemoteWakeup : de-active remote wakeup signalling
1070:Drivers/STM32F0xx_HAL_Driver/Src/stm32f0xx_hal_pcd.c **** * @param  hpcd PCD handle
1071:Drivers/STM32F0xx_HAL_Driver/Src/stm32f0xx_hal_pcd.c **** * @retval HAL status
1072:Drivers/STM32F0xx_HAL_Driver/Src/stm32f0xx_hal_pcd.c **** */
1073:Drivers/STM32F0xx_HAL_Driver/Src/stm32f0xx_hal_pcd.c **** HAL_StatusTypeDef HAL_PCD_DeActivateRemoteWakeup(PCD_HandleTypeDef *hpcd)
1074:Drivers/STM32F0xx_HAL_Driver/Src/stm32f0xx_hal_pcd.c **** {
 2673              		.loc 1 1074 0
 2674              		.cfi_startproc
 2675              		@ args = 0, pretend = 0, frame = 0
 2676              		@ frame_needed = 0, uses_anonymous_args = 0
 2677              		@ link register save eliminated.
 2678              	.LVL222:
1075:Drivers/STM32F0xx_HAL_Driver/Src/stm32f0xx_hal_pcd.c ****   if (hpcd->Init.lpm_enable ==1)
 2679              		.loc 1 1075 0
 2680 0000 C369     		ldr	r3, [r0, #28]
 2681 0002 012B     		cmp	r3, #1
 2682 0004 07D0     		beq	.L144
1076:Drivers/STM32F0xx_HAL_Driver/Src/stm32f0xx_hal_pcd.c ****   {
1077:Drivers/STM32F0xx_HAL_Driver/Src/stm32f0xx_hal_pcd.c ****     /* Release L1 Resume */
1078:Drivers/STM32F0xx_HAL_Driver/Src/stm32f0xx_hal_pcd.c ****     hpcd->Instance->CNTR &= ((uint16_t)(~ USB_CNTR_L1RESUME));
1079:Drivers/STM32F0xx_HAL_Driver/Src/stm32f0xx_hal_pcd.c ****   }
1080:Drivers/STM32F0xx_HAL_Driver/Src/stm32f0xx_hal_pcd.c ****   else
1081:Drivers/STM32F0xx_HAL_Driver/Src/stm32f0xx_hal_pcd.c ****   {
1082:Drivers/STM32F0xx_HAL_Driver/Src/stm32f0xx_hal_pcd.c ****     /* Release L2 Resume */
1083:Drivers/STM32F0xx_HAL_Driver/Src/stm32f0xx_hal_pcd.c ****     hpcd->Instance->CNTR &= ((uint16_t)(~ USB_CNTR_RESUME)) ;
 2683              		.loc 1 1083 0
 2684 0006 0168     		ldr	r1, [r0]
 2685 0008 4022     		movs	r2, #64
 2686 000a 8B5A     		ldrh	r3, [r1, r2]
 2687 000c 1020     		movs	r0, #16
 2688              	.LVL223:
 2689 000e 8343     		bics	r3, r0
 2690 0010 8B52     		strh	r3, [r1, r2]
 2691              	.L143:
1084:Drivers/STM32F0xx_HAL_Driver/Src/stm32f0xx_hal_pcd.c ****   }
1085:Drivers/STM32F0xx_HAL_Driver/Src/stm32f0xx_hal_pcd.c ****   
1086:Drivers/STM32F0xx_HAL_Driver/Src/stm32f0xx_hal_pcd.c ****   return (HAL_OK);
1087:Drivers/STM32F0xx_HAL_Driver/Src/stm32f0xx_hal_pcd.c **** }
 2692              		.loc 1 1087 0
 2693 0012 0020     		movs	r0, #0
 2694              		@ sp needed
 2695 0014 7047     		bx	lr
 2696              	.LVL224:
 2697              	.L144:
1078:Drivers/STM32F0xx_HAL_Driver/Src/stm32f0xx_hal_pcd.c ****   }
 2698              		.loc 1 1078 0
 2699 0016 0168     		ldr	r1, [r0]
 2700 0018 4022     		movs	r2, #64
 2701 001a 8B5A     		ldrh	r3, [r1, r2]
 2702 001c 2020     		movs	r0, #32
 2703              	.LVL225:
ARM GAS  /tmp/ccMLnPi5.s 			page 69


 2704 001e 8343     		bics	r3, r0
 2705 0020 8B52     		strh	r3, [r1, r2]
 2706 0022 F6E7     		b	.L143
 2707              		.cfi_endproc
 2708              	.LFE67:
 2710              		.section	.text.HAL_PCD_GetState,"ax",%progbits
 2711              		.align	1
 2712              		.global	HAL_PCD_GetState
 2713              		.syntax unified
 2714              		.code	16
 2715              		.thumb_func
 2716              		.fpu softvfp
 2718              	HAL_PCD_GetState:
 2719              	.LFB68:
1088:Drivers/STM32F0xx_HAL_Driver/Src/stm32f0xx_hal_pcd.c **** /**
1089:Drivers/STM32F0xx_HAL_Driver/Src/stm32f0xx_hal_pcd.c ****   * @}
1090:Drivers/STM32F0xx_HAL_Driver/Src/stm32f0xx_hal_pcd.c ****   */
1091:Drivers/STM32F0xx_HAL_Driver/Src/stm32f0xx_hal_pcd.c **** 
1092:Drivers/STM32F0xx_HAL_Driver/Src/stm32f0xx_hal_pcd.c **** /** @defgroup PCD_Exported_Functions_Group4 Peripheral State functions 
1093:Drivers/STM32F0xx_HAL_Driver/Src/stm32f0xx_hal_pcd.c ****  *  @brief   Peripheral State functions 
1094:Drivers/STM32F0xx_HAL_Driver/Src/stm32f0xx_hal_pcd.c ****  *
1095:Drivers/STM32F0xx_HAL_Driver/Src/stm32f0xx_hal_pcd.c **** @verbatim   
1096:Drivers/STM32F0xx_HAL_Driver/Src/stm32f0xx_hal_pcd.c ****  ===============================================================================
1097:Drivers/STM32F0xx_HAL_Driver/Src/stm32f0xx_hal_pcd.c ****                       ##### Peripheral State functions #####
1098:Drivers/STM32F0xx_HAL_Driver/Src/stm32f0xx_hal_pcd.c ****  ===============================================================================  
1099:Drivers/STM32F0xx_HAL_Driver/Src/stm32f0xx_hal_pcd.c ****     [..]
1100:Drivers/STM32F0xx_HAL_Driver/Src/stm32f0xx_hal_pcd.c ****     This subsection permits to get in run-time the status of the peripheral 
1101:Drivers/STM32F0xx_HAL_Driver/Src/stm32f0xx_hal_pcd.c ****     and the data flow.
1102:Drivers/STM32F0xx_HAL_Driver/Src/stm32f0xx_hal_pcd.c **** 
1103:Drivers/STM32F0xx_HAL_Driver/Src/stm32f0xx_hal_pcd.c **** @endverbatim
1104:Drivers/STM32F0xx_HAL_Driver/Src/stm32f0xx_hal_pcd.c ****   * @{
1105:Drivers/STM32F0xx_HAL_Driver/Src/stm32f0xx_hal_pcd.c ****   */
1106:Drivers/STM32F0xx_HAL_Driver/Src/stm32f0xx_hal_pcd.c **** 
1107:Drivers/STM32F0xx_HAL_Driver/Src/stm32f0xx_hal_pcd.c **** /**
1108:Drivers/STM32F0xx_HAL_Driver/Src/stm32f0xx_hal_pcd.c ****   * @brief  Return the PCD state
1109:Drivers/STM32F0xx_HAL_Driver/Src/stm32f0xx_hal_pcd.c ****   * @param  hpcd PCD handle
1110:Drivers/STM32F0xx_HAL_Driver/Src/stm32f0xx_hal_pcd.c ****   * @retval HAL state
1111:Drivers/STM32F0xx_HAL_Driver/Src/stm32f0xx_hal_pcd.c ****   */
1112:Drivers/STM32F0xx_HAL_Driver/Src/stm32f0xx_hal_pcd.c **** PCD_StateTypeDef HAL_PCD_GetState(PCD_HandleTypeDef *hpcd)
1113:Drivers/STM32F0xx_HAL_Driver/Src/stm32f0xx_hal_pcd.c **** {
 2720              		.loc 1 1113 0
 2721              		.cfi_startproc
 2722              		@ args = 0, pretend = 0, frame = 0
 2723              		@ frame_needed = 0, uses_anonymous_args = 0
 2724              		@ link register save eliminated.
 2725              	.LVL226:
1114:Drivers/STM32F0xx_HAL_Driver/Src/stm32f0xx_hal_pcd.c ****   return hpcd->State;
 2726              		.loc 1 1114 0
 2727 0000 EA23     		movs	r3, #234
 2728 0002 FF33     		adds	r3, r3, #255
 2729 0004 C05C     		ldrb	r0, [r0, r3]
 2730              	.LVL227:
 2731 0006 C0B2     		uxtb	r0, r0
1115:Drivers/STM32F0xx_HAL_Driver/Src/stm32f0xx_hal_pcd.c **** }
 2732              		.loc 1 1115 0
 2733              		@ sp needed
 2734 0008 7047     		bx	lr
ARM GAS  /tmp/ccMLnPi5.s 			page 70


 2735              		.cfi_endproc
 2736              	.LFE68:
 2738              		.section	.text.PCD_WritePMA,"ax",%progbits
 2739              		.align	1
 2740              		.global	PCD_WritePMA
 2741              		.syntax unified
 2742              		.code	16
 2743              		.thumb_func
 2744              		.fpu softvfp
 2746              	PCD_WritePMA:
 2747              	.LFB69:
1116:Drivers/STM32F0xx_HAL_Driver/Src/stm32f0xx_hal_pcd.c **** /**
1117:Drivers/STM32F0xx_HAL_Driver/Src/stm32f0xx_hal_pcd.c ****   * @}
1118:Drivers/STM32F0xx_HAL_Driver/Src/stm32f0xx_hal_pcd.c ****   */
1119:Drivers/STM32F0xx_HAL_Driver/Src/stm32f0xx_hal_pcd.c ****   
1120:Drivers/STM32F0xx_HAL_Driver/Src/stm32f0xx_hal_pcd.c **** /**
1121:Drivers/STM32F0xx_HAL_Driver/Src/stm32f0xx_hal_pcd.c ****   * @}
1122:Drivers/STM32F0xx_HAL_Driver/Src/stm32f0xx_hal_pcd.c ****   */
1123:Drivers/STM32F0xx_HAL_Driver/Src/stm32f0xx_hal_pcd.c **** 
1124:Drivers/STM32F0xx_HAL_Driver/Src/stm32f0xx_hal_pcd.c **** /** @addtogroup PCD_Private_Functions
1125:Drivers/STM32F0xx_HAL_Driver/Src/stm32f0xx_hal_pcd.c ****   * @{
1126:Drivers/STM32F0xx_HAL_Driver/Src/stm32f0xx_hal_pcd.c ****   */
1127:Drivers/STM32F0xx_HAL_Driver/Src/stm32f0xx_hal_pcd.c **** /**
1128:Drivers/STM32F0xx_HAL_Driver/Src/stm32f0xx_hal_pcd.c ****   * @brief Copy a buffer from user memory area to packet memory area (PMA)
1129:Drivers/STM32F0xx_HAL_Driver/Src/stm32f0xx_hal_pcd.c ****   * @param   USBx USB peripheral instance register address.
1130:Drivers/STM32F0xx_HAL_Driver/Src/stm32f0xx_hal_pcd.c ****   * @param   pbUsrBuf pointer to user memory area.
1131:Drivers/STM32F0xx_HAL_Driver/Src/stm32f0xx_hal_pcd.c ****   * @param   wPMABufAddr address into PMA.
1132:Drivers/STM32F0xx_HAL_Driver/Src/stm32f0xx_hal_pcd.c ****   * @param   wNBytes no. of bytes to be copied.
1133:Drivers/STM32F0xx_HAL_Driver/Src/stm32f0xx_hal_pcd.c ****   * @retval None
1134:Drivers/STM32F0xx_HAL_Driver/Src/stm32f0xx_hal_pcd.c ****   */
1135:Drivers/STM32F0xx_HAL_Driver/Src/stm32f0xx_hal_pcd.c **** void PCD_WritePMA(USB_TypeDef  *USBx, uint8_t *pbUsrBuf, uint16_t wPMABufAddr, uint16_t wNBytes)
1136:Drivers/STM32F0xx_HAL_Driver/Src/stm32f0xx_hal_pcd.c **** {
 2748              		.loc 1 1136 0
 2749              		.cfi_startproc
 2750              		@ args = 0, pretend = 0, frame = 0
 2751              		@ frame_needed = 0, uses_anonymous_args = 0
 2752              	.LVL228:
 2753 0000 10B5     		push	{r4, lr}
 2754              	.LCFI10:
 2755              		.cfi_def_cfa_offset 8
 2756              		.cfi_offset 4, -8
 2757              		.cfi_offset 14, -4
1137:Drivers/STM32F0xx_HAL_Driver/Src/stm32f0xx_hal_pcd.c ****   uint32_t n =  ((uint32_t)((uint32_t)wNBytes + 1U)) >> 1U;
 2758              		.loc 1 1137 0
 2759 0002 0133     		adds	r3, r3, #1
 2760              	.LVL229:
 2761 0004 5B08     		lsrs	r3, r3, #1
 2762              	.LVL230:
1138:Drivers/STM32F0xx_HAL_Driver/Src/stm32f0xx_hal_pcd.c ****   uint32_t i;
1139:Drivers/STM32F0xx_HAL_Driver/Src/stm32f0xx_hal_pcd.c ****   uint16_t temp1, temp2;
1140:Drivers/STM32F0xx_HAL_Driver/Src/stm32f0xx_hal_pcd.c ****   uint16_t *pdwVal;
1141:Drivers/STM32F0xx_HAL_Driver/Src/stm32f0xx_hal_pcd.c ****   pdwVal = (uint16_t *)((uint32_t)(wPMABufAddr + (uint32_t)USBx + 0x400U));
 2763              		.loc 1 1141 0
 2764 0006 1218     		adds	r2, r2, r0
 2765              	.LVL231:
 2766 0008 8020     		movs	r0, #128
 2767              	.LVL232:
ARM GAS  /tmp/ccMLnPi5.s 			page 71


 2768 000a C000     		lsls	r0, r0, #3
 2769 000c 8446     		mov	ip, r0
 2770 000e 6244     		add	r2, r2, ip
 2771              	.LVL233:
1142:Drivers/STM32F0xx_HAL_Driver/Src/stm32f0xx_hal_pcd.c ****   
1143:Drivers/STM32F0xx_HAL_Driver/Src/stm32f0xx_hal_pcd.c ****   for (i = n; i != 0; i--)
 2772              		.loc 1 1143 0
 2773 0010 07E0     		b	.L147
 2774              	.LVL234:
 2775              	.L148:
1144:Drivers/STM32F0xx_HAL_Driver/Src/stm32f0xx_hal_pcd.c ****   {
1145:Drivers/STM32F0xx_HAL_Driver/Src/stm32f0xx_hal_pcd.c ****     temp1 = (uint16_t) * pbUsrBuf;
 2776              		.loc 1 1145 0 discriminator 3
 2777 0012 0878     		ldrb	r0, [r1]
 2778              	.LVL235:
1146:Drivers/STM32F0xx_HAL_Driver/Src/stm32f0xx_hal_pcd.c ****     pbUsrBuf++;
1147:Drivers/STM32F0xx_HAL_Driver/Src/stm32f0xx_hal_pcd.c ****     temp2 = temp1 | ((uint16_t)((uint16_t)  * pbUsrBuf << 8U)) ;
 2779              		.loc 1 1147 0 discriminator 3
 2780 0014 4C78     		ldrb	r4, [r1, #1]
 2781 0016 2402     		lsls	r4, r4, #8
 2782 0018 0443     		orrs	r4, r0
 2783              	.LVL236:
1148:Drivers/STM32F0xx_HAL_Driver/Src/stm32f0xx_hal_pcd.c ****     *pdwVal++ = temp2;
 2784              		.loc 1 1148 0 discriminator 3
 2785 001a 1480     		strh	r4, [r2]
1149:Drivers/STM32F0xx_HAL_Driver/Src/stm32f0xx_hal_pcd.c ****     pbUsrBuf++;
 2786              		.loc 1 1149 0 discriminator 3
 2787 001c 0231     		adds	r1, r1, #2
 2788              	.LVL237:
1143:Drivers/STM32F0xx_HAL_Driver/Src/stm32f0xx_hal_pcd.c ****   {
 2789              		.loc 1 1143 0 discriminator 3
 2790 001e 013B     		subs	r3, r3, #1
 2791              	.LVL238:
1148:Drivers/STM32F0xx_HAL_Driver/Src/stm32f0xx_hal_pcd.c ****     *pdwVal++ = temp2;
 2792              		.loc 1 1148 0 discriminator 3
 2793 0020 0232     		adds	r2, r2, #2
 2794              	.LVL239:
 2795              	.L147:
1143:Drivers/STM32F0xx_HAL_Driver/Src/stm32f0xx_hal_pcd.c ****   {
 2796              		.loc 1 1143 0 discriminator 1
 2797 0022 002B     		cmp	r3, #0
 2798 0024 F5D1     		bne	.L148
1150:Drivers/STM32F0xx_HAL_Driver/Src/stm32f0xx_hal_pcd.c ****   }
1151:Drivers/STM32F0xx_HAL_Driver/Src/stm32f0xx_hal_pcd.c **** }
 2799              		.loc 1 1151 0
 2800              		@ sp needed
 2801 0026 10BD     		pop	{r4, pc}
 2802              		.cfi_endproc
 2803              	.LFE69:
 2805              		.section	.text.HAL_PCD_EP_Transmit,"ax",%progbits
 2806              		.align	1
 2807              		.global	HAL_PCD_EP_Transmit
 2808              		.syntax unified
 2809              		.code	16
 2810              		.thumb_func
 2811              		.fpu softvfp
 2813              	HAL_PCD_EP_Transmit:
ARM GAS  /tmp/ccMLnPi5.s 			page 72


 2814              	.LFB62:
 894:Drivers/STM32F0xx_HAL_Driver/Src/stm32f0xx_hal_pcd.c ****   PCD_EPTypeDef *ep;
 2815              		.loc 1 894 0
 2816              		.cfi_startproc
 2817              		@ args = 0, pretend = 0, frame = 0
 2818              		@ frame_needed = 0, uses_anonymous_args = 0
 2819              	.LVL240:
 2820 0000 F8B5     		push	{r3, r4, r5, r6, r7, lr}
 2821              	.LCFI11:
 2822              		.cfi_def_cfa_offset 24
 2823              		.cfi_offset 3, -24
 2824              		.cfi_offset 4, -20
 2825              		.cfi_offset 5, -16
 2826              		.cfi_offset 6, -12
 2827              		.cfi_offset 7, -8
 2828              		.cfi_offset 14, -4
 2829 0002 0500     		movs	r5, r0
 2830              	.LVL241:
 2831 0004 7F24     		movs	r4, #127
 2832 0006 0C40     		ands	r4, r1
 2833              	.LVL242:
 901:Drivers/STM32F0xx_HAL_Driver/Src/stm32f0xx_hal_pcd.c ****   ep->xfer_len = len;
 2834              		.loc 1 901 0
 2835 0008 E000     		lsls	r0, r4, #3
 2836              	.LVL243:
 2837 000a 001B     		subs	r0, r0, r4
 2838 000c 8100     		lsls	r1, r0, #2
 2839              	.LVL244:
 2840 000e 6918     		adds	r1, r5, r1
 2841 0010 8A63     		str	r2, [r1, #56]
 902:Drivers/STM32F0xx_HAL_Driver/Src/stm32f0xx_hal_pcd.c ****   ep->xfer_count = 0U;
 2842              		.loc 1 902 0
 2843 0012 CB63     		str	r3, [r1, #60]
 903:Drivers/STM32F0xx_HAL_Driver/Src/stm32f0xx_hal_pcd.c ****   ep->is_in = 1U;
 2844              		.loc 1 903 0
 2845 0014 0022     		movs	r2, #0
 2846              	.LVL245:
 2847 0016 0A64     		str	r2, [r1, #64]
 904:Drivers/STM32F0xx_HAL_Driver/Src/stm32f0xx_hal_pcd.c ****   ep->num = ep_addr & 0x7FU;
 2848              		.loc 1 904 0
 2849 0018 0A00     		movs	r2, r1
 2850 001a 2932     		adds	r2, r2, #41
 2851 001c 0120     		movs	r0, #1
 2852 001e 1070     		strb	r0, [r2]
 905:Drivers/STM32F0xx_HAL_Driver/Src/stm32f0xx_hal_pcd.c ****   
 2853              		.loc 1 905 0
 2854 0020 013A     		subs	r2, r2, #1
 2855 0022 1470     		strb	r4, [r2]
 908:Drivers/STM32F0xx_HAL_Driver/Src/stm32f0xx_hal_pcd.c ****   {
 2856              		.loc 1 908 0
 2857 0024 4F6B     		ldr	r7, [r1, #52]
 2858 0026 BB42     		cmp	r3, r7
 2859 0028 34D9     		bls	.L150
 2860              	.LVL246:
 911:Drivers/STM32F0xx_HAL_Driver/Src/stm32f0xx_hal_pcd.c ****   }
 2861              		.loc 1 911 0
 2862 002a DB1B     		subs	r3, r3, r7
ARM GAS  /tmp/ccMLnPi5.s 			page 73


 2863 002c CB63     		str	r3, [r1, #60]
 2864              	.LVL247:
 2865              	.L151:
 920:Drivers/STM32F0xx_HAL_Driver/Src/stm32f0xx_hal_pcd.c ****   {
 2866              		.loc 1 920 0
 2867 002e E200     		lsls	r2, r4, #3
 2868 0030 121B     		subs	r2, r2, r4
 2869 0032 9300     		lsls	r3, r2, #2
 2870 0034 1A00     		movs	r2, r3
 2871 0036 EB18     		adds	r3, r5, r3
 2872 0038 3233     		adds	r3, r3, #50
 2873 003a 1B78     		ldrb	r3, [r3]
 2874 003c 002B     		cmp	r3, #0
 2875 003e 31D0     		beq	.L167
 928:Drivers/STM32F0xx_HAL_Driver/Src/stm32f0xx_hal_pcd.c ****     {
 2876              		.loc 1 928 0
 2877 0040 2868     		ldr	r0, [r5]
 2878 0042 E200     		lsls	r2, r4, #3
 2879 0044 121B     		subs	r2, r2, r4
 2880 0046 9300     		lsls	r3, r2, #2
 2881 0048 EB18     		adds	r3, r5, r3
 2882 004a 2833     		adds	r3, r3, #40
 2883 004c 1B78     		ldrb	r3, [r3]
 2884 004e 9A00     		lsls	r2, r3, #2
 2885 0050 8218     		adds	r2, r0, r2
 2886 0052 1288     		ldrh	r2, [r2]
 2887 0054 5206     		lsls	r2, r2, #25
 2888 0056 75D5     		bpl	.L154
 931:Drivers/STM32F0xx_HAL_Driver/Src/stm32f0xx_hal_pcd.c ****       pmabuffer = ep->pmaaddr1;
 2889              		.loc 1 931 0
 2890 0058 E600     		lsls	r6, r4, #3
 2891 005a 361B     		subs	r6, r6, r4
 2892 005c B200     		lsls	r2, r6, #2
 2893 005e AA18     		adds	r2, r5, r2
 2894 0060 2932     		adds	r2, r2, #41
 2895 0062 1278     		ldrb	r2, [r2]
 2896 0064 002A     		cmp	r2, #0
 2897 0066 3BD1     		bne	.L155
 2898              	.LBB34:
 931:Drivers/STM32F0xx_HAL_Driver/Src/stm32f0xx_hal_pcd.c ****       pmabuffer = ep->pmaaddr1;
 2899              		.loc 1 931 0 is_stmt 0 discriminator 1
 2900 0068 5032     		adds	r2, r2, #80
 2901 006a 825A     		ldrh	r2, [r0, r2]
 2902 006c DB00     		lsls	r3, r3, #3
 2903 006e D318     		adds	r3, r2, r3
 2904 0070 1818     		adds	r0, r3, r0
 2905 0072 634B     		ldr	r3, .L171
 2906 0074 9C46     		mov	ip, r3
 2907 0076 6044     		add	r0, r0, ip
 2908              	.LVL248:
 2909              	.LBB35:
 2910 0078 3E2F     		cmp	r7, #62
 2911 007a 28D9     		bls	.L156
 931:Drivers/STM32F0xx_HAL_Driver/Src/stm32f0xx_hal_pcd.c ****       pmabuffer = ep->pmaaddr1;
 2912              		.loc 1 931 0 discriminator 3
 2913 007c 7B09     		lsrs	r3, r7, #5
 2914 007e 9BB2     		uxth	r3, r3
ARM GAS  /tmp/ccMLnPi5.s 			page 74


 2915              	.LVL249:
 2916 0080 FA06     		lsls	r2, r7, #27
 2917 0082 01D1     		bne	.L157
 931:Drivers/STM32F0xx_HAL_Driver/Src/stm32f0xx_hal_pcd.c ****       pmabuffer = ep->pmaaddr1;
 2918              		.loc 1 931 0 discriminator 5
 2919 0084 013B     		subs	r3, r3, #1
 2920              	.LVL250:
 2921 0086 9BB2     		uxth	r3, r3
 2922              	.LVL251:
 2923              	.L157:
 931:Drivers/STM32F0xx_HAL_Driver/Src/stm32f0xx_hal_pcd.c ****       pmabuffer = ep->pmaaddr1;
 2924              		.loc 1 931 0 discriminator 7
 2925 0088 9B02     		lsls	r3, r3, #10
 2926              	.LVL252:
 2927 008a 9BB2     		uxth	r3, r3
 2928 008c 5D4A     		ldr	r2, .L171+4
 2929 008e 1343     		orrs	r3, r2
 2930 0090 0380     		strh	r3, [r0]
 2931 0092 27E0     		b	.L158
 2932              	.LVL253:
 2933              	.L150:
 2934              	.LBE35:
 2935              	.LBE34:
 916:Drivers/STM32F0xx_HAL_Driver/Src/stm32f0xx_hal_pcd.c ****   }
 2936              		.loc 1 916 0 is_stmt 1
 2937 0094 E100     		lsls	r1, r4, #3
 2938              	.LVL254:
 2939 0096 091B     		subs	r1, r1, r4
 2940 0098 8A00     		lsls	r2, r1, #2
 2941              	.LVL255:
 2942 009a AA18     		adds	r2, r5, r2
 2943 009c 0021     		movs	r1, #0
 2944 009e D163     		str	r1, [r2, #60]
 2945              	.LVL256:
 915:Drivers/STM32F0xx_HAL_Driver/Src/stm32f0xx_hal_pcd.c ****     ep->xfer_len =0U;
 2946              		.loc 1 915 0
 2947 00a0 1F00     		movs	r7, r3
 2948 00a2 C4E7     		b	.L151
 2949              	.LVL257:
 2950              	.L167:
 922:Drivers/STM32F0xx_HAL_Driver/Src/stm32f0xx_hal_pcd.c ****     PCD_SET_EP_TX_CNT(hpcd->Instance, ep->num, len);
 2951              		.loc 1 922 0
 2952 00a4 BFB2     		uxth	r7, r7
 2953              	.LVL258:
 2954 00a6 AE18     		adds	r6, r5, r2
 2955 00a8 B28D     		ldrh	r2, [r6, #44]
 2956 00aa 3B00     		movs	r3, r7
 2957 00ac B16B     		ldr	r1, [r6, #56]
 2958 00ae 2868     		ldr	r0, [r5]
 2959 00b0 FFF7FEFF 		bl	PCD_WritePMA
 2960              	.LVL259:
 923:Drivers/STM32F0xx_HAL_Driver/Src/stm32f0xx_hal_pcd.c ****   }
 2961              		.loc 1 923 0
 2962 00b4 2A68     		ldr	r2, [r5]
 2963 00b6 5023     		movs	r3, #80
 2964 00b8 D35A     		ldrh	r3, [r2, r3]
 2965 00ba 2836     		adds	r6, r6, #40
ARM GAS  /tmp/ccMLnPi5.s 			page 75


 2966 00bc 3178     		ldrb	r1, [r6]
 2967 00be C900     		lsls	r1, r1, #3
 2968 00c0 5B18     		adds	r3, r3, r1
 2969 00c2 9B18     		adds	r3, r3, r2
 2970 00c4 504A     		ldr	r2, .L171+8
 2971 00c6 9446     		mov	ip, r2
 2972 00c8 6344     		add	r3, r3, ip
 2973 00ca 1F80     		strh	r7, [r3]
 2974 00cc 84E0     		b	.L153
 2975              	.LVL260:
 2976              	.L156:
 2977              	.LBB37:
 2978              	.LBB36:
 931:Drivers/STM32F0xx_HAL_Driver/Src/stm32f0xx_hal_pcd.c ****       pmabuffer = ep->pmaaddr1;
 2979              		.loc 1 931 0 discriminator 4
 2980 00ce 7B08     		lsrs	r3, r7, #1
 2981 00d0 9BB2     		uxth	r3, r3
 2982              	.LVL261:
 2983 00d2 FA07     		lsls	r2, r7, #31
 2984 00d4 01D5     		bpl	.L159
 931:Drivers/STM32F0xx_HAL_Driver/Src/stm32f0xx_hal_pcd.c ****       pmabuffer = ep->pmaaddr1;
 2985              		.loc 1 931 0 is_stmt 0 discriminator 8
 2986 00d6 0133     		adds	r3, r3, #1
 2987              	.LVL262:
 2988 00d8 9BB2     		uxth	r3, r3
 2989              	.LVL263:
 2990              	.L159:
 931:Drivers/STM32F0xx_HAL_Driver/Src/stm32f0xx_hal_pcd.c ****       pmabuffer = ep->pmaaddr1;
 2991              		.loc 1 931 0 discriminator 10
 2992 00da 9B02     		lsls	r3, r3, #10
 2993              	.LVL264:
 2994 00dc 0380     		strh	r3, [r0]
 2995 00de 01E0     		b	.L158
 2996              	.LVL265:
 2997              	.L155:
 2998              	.LBE36:
 2999              	.LBE37:
 931:Drivers/STM32F0xx_HAL_Driver/Src/stm32f0xx_hal_pcd.c ****       pmabuffer = ep->pmaaddr1;
 3000              		.loc 1 931 0 discriminator 2
 3001 00e0 012A     		cmp	r2, #1
 3002 00e2 25D0     		beq	.L168
 3003              	.L158:
 932:Drivers/STM32F0xx_HAL_Driver/Src/stm32f0xx_hal_pcd.c ****     }
 3004              		.loc 1 932 0 is_stmt 1
 3005 00e4 E200     		lsls	r2, r4, #3
 3006 00e6 121B     		subs	r2, r2, r4
 3007 00e8 9300     		lsls	r3, r2, #2
 3008 00ea EB18     		adds	r3, r5, r3
 3009 00ec 1A8E     		ldrh	r2, [r3, #48]
 3010              	.LVL266:
 3011              	.L160:
 941:Drivers/STM32F0xx_HAL_Driver/Src/stm32f0xx_hal_pcd.c ****     PCD_FreeUserBuffer(hpcd->Instance, ep->num, ep->is_in)
 3012              		.loc 1 941 0
 3013 00ee BBB2     		uxth	r3, r7
 3014 00f0 E100     		lsls	r1, r4, #3
 3015 00f2 091B     		subs	r1, r1, r4
 3016 00f4 8E00     		lsls	r6, r1, #2
ARM GAS  /tmp/ccMLnPi5.s 			page 76


 3017 00f6 AE19     		adds	r6, r5, r6
 3018 00f8 B16B     		ldr	r1, [r6, #56]
 3019 00fa 2868     		ldr	r0, [r5]
 3020 00fc FFF7FEFF 		bl	PCD_WritePMA
 3021              	.LVL267:
 942:Drivers/STM32F0xx_HAL_Driver/Src/stm32f0xx_hal_pcd.c ****   }
 3022              		.loc 1 942 0
 3023 0100 2936     		adds	r6, r6, #41
 3024 0102 3378     		ldrb	r3, [r6]
 3025 0104 002B     		cmp	r3, #0
 3026 0106 56D0     		beq	.L169
 942:Drivers/STM32F0xx_HAL_Driver/Src/stm32f0xx_hal_pcd.c ****   }
 3027              		.loc 1 942 0 is_stmt 0 discriminator 2
 3028 0108 012B     		cmp	r3, #1
 3029 010a 65D1     		bne	.L153
 942:Drivers/STM32F0xx_HAL_Driver/Src/stm32f0xx_hal_pcd.c ****   }
 3030              		.loc 1 942 0 discriminator 3
 3031 010c E200     		lsls	r2, r4, #3
 3032 010e 121B     		subs	r2, r2, r4
 3033 0110 9300     		lsls	r3, r2, #2
 3034 0112 EB18     		adds	r3, r5, r3
 3035 0114 2833     		adds	r3, r3, #40
 3036 0116 1A78     		ldrb	r2, [r3]
 3037 0118 9200     		lsls	r2, r2, #2
 3038 011a 2B68     		ldr	r3, [r5]
 3039 011c 9C46     		mov	ip, r3
 3040 011e 6244     		add	r2, r2, ip
 3041 0120 1388     		ldrh	r3, [r2]
 3042 0122 3A49     		ldr	r1, .L171+12
 3043 0124 1940     		ands	r1, r3
 3044 0126 3A4B     		ldr	r3, .L171+16
 3045 0128 0B43     		orrs	r3, r1
 3046 012a 9BB2     		uxth	r3, r3
 3047 012c 1380     		strh	r3, [r2]
 3048 012e 53E0     		b	.L153
 3049              	.LVL268:
 3050              	.L168:
 931:Drivers/STM32F0xx_HAL_Driver/Src/stm32f0xx_hal_pcd.c ****       pmabuffer = ep->pmaaddr1;
 3051              		.loc 1 931 0 is_stmt 1 discriminator 11
 3052 0130 4F32     		adds	r2, r2, #79
 3053 0132 825A     		ldrh	r2, [r0, r2]
 3054 0134 DB00     		lsls	r3, r3, #3
 3055 0136 D318     		adds	r3, r2, r3
 3056 0138 1818     		adds	r0, r3, r0
 3057 013a 314B     		ldr	r3, .L171
 3058 013c 9C46     		mov	ip, r3
 3059 013e 6044     		add	r0, r0, ip
 3060 0140 0780     		strh	r7, [r0]
 3061 0142 CFE7     		b	.L158
 3062              	.L154:
 937:Drivers/STM32F0xx_HAL_Driver/Src/stm32f0xx_hal_pcd.c ****       pmabuffer = ep->pmaaddr0;
 3063              		.loc 1 937 0
 3064 0144 E600     		lsls	r6, r4, #3
 3065 0146 361B     		subs	r6, r6, r4
 3066 0148 B200     		lsls	r2, r6, #2
 3067 014a AA18     		adds	r2, r5, r2
 3068 014c 2932     		adds	r2, r2, #41
ARM GAS  /tmp/ccMLnPi5.s 			page 77


 3069 014e 1278     		ldrb	r2, [r2]
 3070 0150 002A     		cmp	r2, #0
 3071 0152 1ED1     		bne	.L161
 3072              	.LBB38:
 937:Drivers/STM32F0xx_HAL_Driver/Src/stm32f0xx_hal_pcd.c ****       pmabuffer = ep->pmaaddr0;
 3073              		.loc 1 937 0 is_stmt 0 discriminator 1
 3074 0154 5032     		adds	r2, r2, #80
 3075 0156 825A     		ldrh	r2, [r0, r2]
 3076 0158 DB00     		lsls	r3, r3, #3
 3077 015a D318     		adds	r3, r2, r3
 3078 015c 1818     		adds	r0, r3, r0
 3079 015e 2A4B     		ldr	r3, .L171+8
 3080 0160 9C46     		mov	ip, r3
 3081 0162 6044     		add	r0, r0, ip
 3082              	.LVL269:
 3083              	.LBB39:
 3084 0164 3E2F     		cmp	r7, #62
 3085 0166 0BD9     		bls	.L162
 937:Drivers/STM32F0xx_HAL_Driver/Src/stm32f0xx_hal_pcd.c ****       pmabuffer = ep->pmaaddr0;
 3086              		.loc 1 937 0 discriminator 3
 3087 0168 7B09     		lsrs	r3, r7, #5
 3088 016a 9BB2     		uxth	r3, r3
 3089              	.LVL270:
 3090 016c FA06     		lsls	r2, r7, #27
 3091 016e 01D1     		bne	.L163
 937:Drivers/STM32F0xx_HAL_Driver/Src/stm32f0xx_hal_pcd.c ****       pmabuffer = ep->pmaaddr0;
 3092              		.loc 1 937 0 discriminator 5
 3093 0170 013B     		subs	r3, r3, #1
 3094              	.LVL271:
 3095 0172 9BB2     		uxth	r3, r3
 3096              	.LVL272:
 3097              	.L163:
 937:Drivers/STM32F0xx_HAL_Driver/Src/stm32f0xx_hal_pcd.c ****       pmabuffer = ep->pmaaddr0;
 3098              		.loc 1 937 0 discriminator 7
 3099 0174 9B02     		lsls	r3, r3, #10
 3100              	.LVL273:
 3101 0176 9BB2     		uxth	r3, r3
 3102 0178 224A     		ldr	r2, .L171+4
 3103 017a 1343     		orrs	r3, r2
 3104 017c 0380     		strh	r3, [r0]
 3105 017e 0AE0     		b	.L164
 3106              	.L162:
 937:Drivers/STM32F0xx_HAL_Driver/Src/stm32f0xx_hal_pcd.c ****       pmabuffer = ep->pmaaddr0;
 3107              		.loc 1 937 0 discriminator 4
 3108 0180 7B08     		lsrs	r3, r7, #1
 3109 0182 9BB2     		uxth	r3, r3
 3110              	.LVL274:
 3111 0184 FA07     		lsls	r2, r7, #31
 3112 0186 01D5     		bpl	.L165
 937:Drivers/STM32F0xx_HAL_Driver/Src/stm32f0xx_hal_pcd.c ****       pmabuffer = ep->pmaaddr0;
 3113              		.loc 1 937 0 discriminator 8
 3114 0188 0133     		adds	r3, r3, #1
 3115              	.LVL275:
 3116 018a 9BB2     		uxth	r3, r3
 3117              	.LVL276:
 3118              	.L165:
 937:Drivers/STM32F0xx_HAL_Driver/Src/stm32f0xx_hal_pcd.c ****       pmabuffer = ep->pmaaddr0;
ARM GAS  /tmp/ccMLnPi5.s 			page 78


 3119              		.loc 1 937 0 discriminator 10
 3120 018c 9B02     		lsls	r3, r3, #10
 3121              	.LVL277:
 3122 018e 0380     		strh	r3, [r0]
 3123 0190 01E0     		b	.L164
 3124              	.LVL278:
 3125              	.L161:
 3126              	.LBE39:
 3127              	.LBE38:
 937:Drivers/STM32F0xx_HAL_Driver/Src/stm32f0xx_hal_pcd.c ****       pmabuffer = ep->pmaaddr0;
 3128              		.loc 1 937 0 discriminator 2
 3129 0192 012A     		cmp	r2, #1
 3130 0194 05D0     		beq	.L170
 3131              	.L164:
 938:Drivers/STM32F0xx_HAL_Driver/Src/stm32f0xx_hal_pcd.c ****     }
 3132              		.loc 1 938 0 is_stmt 1
 3133 0196 E200     		lsls	r2, r4, #3
 3134 0198 121B     		subs	r2, r2, r4
 3135 019a 9300     		lsls	r3, r2, #2
 3136 019c EB18     		adds	r3, r5, r3
 3137 019e DA8D     		ldrh	r2, [r3, #46]
 3138              	.LVL279:
 3139 01a0 A5E7     		b	.L160
 3140              	.LVL280:
 3141              	.L170:
 937:Drivers/STM32F0xx_HAL_Driver/Src/stm32f0xx_hal_pcd.c ****       pmabuffer = ep->pmaaddr0;
 3142              		.loc 1 937 0 discriminator 11
 3143 01a2 4F32     		adds	r2, r2, #79
 3144 01a4 825A     		ldrh	r2, [r0, r2]
 3145 01a6 DB00     		lsls	r3, r3, #3
 3146 01a8 D318     		adds	r3, r2, r3
 3147 01aa 1818     		adds	r0, r3, r0
 3148 01ac 164B     		ldr	r3, .L171+8
 3149 01ae 9C46     		mov	ip, r3
 3150 01b0 6044     		add	r0, r0, ip
 3151 01b2 0780     		strh	r7, [r0]
 3152 01b4 EFE7     		b	.L164
 3153              	.LVL281:
 3154              	.L169:
 942:Drivers/STM32F0xx_HAL_Driver/Src/stm32f0xx_hal_pcd.c ****   }
 3155              		.loc 1 942 0 discriminator 1
 3156 01b6 E200     		lsls	r2, r4, #3
 3157 01b8 121B     		subs	r2, r2, r4
 3158 01ba 9300     		lsls	r3, r2, #2
 3159 01bc EB18     		adds	r3, r5, r3
 3160 01be 2833     		adds	r3, r3, #40
 3161 01c0 1A78     		ldrb	r2, [r3]
 3162 01c2 9200     		lsls	r2, r2, #2
 3163 01c4 2B68     		ldr	r3, [r5]
 3164 01c6 9C46     		mov	ip, r3
 3165 01c8 6244     		add	r2, r2, ip
 3166 01ca 1388     		ldrh	r3, [r2]
 3167 01cc 0F49     		ldr	r1, .L171+12
 3168 01ce 1940     		ands	r1, r3
 3169 01d0 104B     		ldr	r3, .L171+20
 3170 01d2 0B43     		orrs	r3, r1
 3171 01d4 9BB2     		uxth	r3, r3
ARM GAS  /tmp/ccMLnPi5.s 			page 79


 3172 01d6 1380     		strh	r3, [r2]
 3173              	.LVL282:
 3174              	.L153:
 3175              	.LBB40:
 945:Drivers/STM32F0xx_HAL_Driver/Src/stm32f0xx_hal_pcd.c ****      
 3176              		.loc 1 945 0
 3177 01d8 2968     		ldr	r1, [r5]
 3178 01da E300     		lsls	r3, r4, #3
 3179 01dc 1C1B     		subs	r4, r3, r4
 3180              	.LVL283:
 3181 01de A300     		lsls	r3, r4, #2
 3182 01e0 ED18     		adds	r5, r5, r3
 3183              	.LVL284:
 3184 01e2 2835     		adds	r5, r5, #40
 3185 01e4 2B78     		ldrb	r3, [r5]
 3186 01e6 9B00     		lsls	r3, r3, #2
 3187 01e8 C918     		adds	r1, r1, r3
 3188 01ea 0B88     		ldrh	r3, [r1]
 3189 01ec 0A4A     		ldr	r2, .L171+24
 3190 01ee 1340     		ands	r3, r2
 3191              	.LVL285:
 3192 01f0 3022     		movs	r2, #48
 3193 01f2 5A40     		eors	r2, r3
 3194              	.LVL286:
 3195 01f4 094B     		ldr	r3, .L171+28
 3196 01f6 1343     		orrs	r3, r2
 3197 01f8 9BB2     		uxth	r3, r3
 3198 01fa 0B80     		strh	r3, [r1]
 3199              	.LBE40:
 948:Drivers/STM32F0xx_HAL_Driver/Src/stm32f0xx_hal_pcd.c **** 
 3200              		.loc 1 948 0
 3201 01fc 0020     		movs	r0, #0
 3202              		@ sp needed
 3203 01fe F8BD     		pop	{r3, r4, r5, r6, r7, pc}
 3204              	.L172:
 3205              		.align	2
 3206              	.L171:
 3207 0200 06040000 		.word	1030
 3208 0204 0080FFFF 		.word	-32768
 3209 0208 02040000 		.word	1026
 3210 020c 0F0F0000 		.word	3855
 3211 0210 80C0FFFF 		.word	-16256
 3212 0214 C080FFFF 		.word	-32576
 3213 0218 BF8FFFFF 		.word	-28737
 3214 021c 8080FFFF 		.word	-32640
 3215              		.cfi_endproc
 3216              	.LFE62:
 3218              		.section	.text.PCD_ReadPMA,"ax",%progbits
 3219              		.align	1
 3220              		.global	PCD_ReadPMA
 3221              		.syntax unified
 3222              		.code	16
 3223              		.thumb_func
 3224              		.fpu softvfp
 3226              	PCD_ReadPMA:
 3227              	.LFB70:
1152:Drivers/STM32F0xx_HAL_Driver/Src/stm32f0xx_hal_pcd.c **** 
ARM GAS  /tmp/ccMLnPi5.s 			page 80


1153:Drivers/STM32F0xx_HAL_Driver/Src/stm32f0xx_hal_pcd.c **** /**
1154:Drivers/STM32F0xx_HAL_Driver/Src/stm32f0xx_hal_pcd.c ****   * @brief Copy a buffer from user memory area to packet memory area (PMA)
1155:Drivers/STM32F0xx_HAL_Driver/Src/stm32f0xx_hal_pcd.c ****   * @param   USBx USB peripheral instance register address.
1156:Drivers/STM32F0xx_HAL_Driver/Src/stm32f0xx_hal_pcd.c ****   * @param   pbUsrBuf    = pointer to user memory area.
1157:Drivers/STM32F0xx_HAL_Driver/Src/stm32f0xx_hal_pcd.c ****   * @param   wPMABufAddr address into PMA.
1158:Drivers/STM32F0xx_HAL_Driver/Src/stm32f0xx_hal_pcd.c ****   * @param   wNBytes no. of bytes to be copied.
1159:Drivers/STM32F0xx_HAL_Driver/Src/stm32f0xx_hal_pcd.c ****   * @retval None
1160:Drivers/STM32F0xx_HAL_Driver/Src/stm32f0xx_hal_pcd.c ****   */
1161:Drivers/STM32F0xx_HAL_Driver/Src/stm32f0xx_hal_pcd.c **** void PCD_ReadPMA(USB_TypeDef  *USBx, uint8_t *pbUsrBuf, uint16_t wPMABufAddr, uint16_t wNBytes)
1162:Drivers/STM32F0xx_HAL_Driver/Src/stm32f0xx_hal_pcd.c **** {
 3228              		.loc 1 1162 0
 3229              		.cfi_startproc
 3230              		@ args = 0, pretend = 0, frame = 0
 3231              		@ frame_needed = 0, uses_anonymous_args = 0
 3232              	.LVL287:
 3233 0000 30B5     		push	{r4, r5, lr}
 3234              	.LCFI12:
 3235              		.cfi_def_cfa_offset 12
 3236              		.cfi_offset 4, -12
 3237              		.cfi_offset 5, -8
 3238              		.cfi_offset 14, -4
1163:Drivers/STM32F0xx_HAL_Driver/Src/stm32f0xx_hal_pcd.c ****   uint32_t n = (uint32_t)wNBytes >> 1U;
 3239              		.loc 1 1163 0
 3240 0002 5D08     		lsrs	r5, r3, #1
 3241              	.LVL288:
1164:Drivers/STM32F0xx_HAL_Driver/Src/stm32f0xx_hal_pcd.c ****   uint32_t i;
1165:Drivers/STM32F0xx_HAL_Driver/Src/stm32f0xx_hal_pcd.c ****   uint16_t *pdwVal;
1166:Drivers/STM32F0xx_HAL_Driver/Src/stm32f0xx_hal_pcd.c ****   uint32_t temp;
1167:Drivers/STM32F0xx_HAL_Driver/Src/stm32f0xx_hal_pcd.c ****   pdwVal = (uint16_t *)((uint32_t)(wPMABufAddr + (uint32_t)USBx + 0x400U));
 3242              		.loc 1 1167 0
 3243 0004 1218     		adds	r2, r2, r0
 3244              	.LVL289:
 3245 0006 8020     		movs	r0, #128
 3246              	.LVL290:
 3247 0008 C000     		lsls	r0, r0, #3
 3248 000a 8446     		mov	ip, r0
 3249 000c 6244     		add	r2, r2, ip
 3250              	.LVL291:
1168:Drivers/STM32F0xx_HAL_Driver/Src/stm32f0xx_hal_pcd.c ****   
1169:Drivers/STM32F0xx_HAL_Driver/Src/stm32f0xx_hal_pcd.c ****   for (i = n; i != 0U; i--)
 3251              		.loc 1 1169 0
 3252 000e 06E0     		b	.L174
 3253              	.LVL292:
 3254              	.L175:
1170:Drivers/STM32F0xx_HAL_Driver/Src/stm32f0xx_hal_pcd.c ****   {
1171:Drivers/STM32F0xx_HAL_Driver/Src/stm32f0xx_hal_pcd.c ****     temp = *pdwVal++;
 3255              		.loc 1 1171 0 discriminator 3
 3256 0010 1488     		ldrh	r4, [r2]
 3257              	.LVL293:
1172:Drivers/STM32F0xx_HAL_Driver/Src/stm32f0xx_hal_pcd.c ****     *pbUsrBuf++ = ((temp >> 0) & 0xFF);
 3258              		.loc 1 1172 0 discriminator 3
 3259 0012 0C70     		strb	r4, [r1]
1173:Drivers/STM32F0xx_HAL_Driver/Src/stm32f0xx_hal_pcd.c ****     *pbUsrBuf++ = ((temp >> 8) & 0xFF);
 3260              		.loc 1 1173 0 discriminator 3
 3261 0014 240A     		lsrs	r4, r4, #8
 3262              	.LVL294:
 3263 0016 4C70     		strb	r4, [r1, #1]
ARM GAS  /tmp/ccMLnPi5.s 			page 81


1169:Drivers/STM32F0xx_HAL_Driver/Src/stm32f0xx_hal_pcd.c ****   {
 3264              		.loc 1 1169 0 discriminator 3
 3265 0018 013D     		subs	r5, r5, #1
 3266              	.LVL295:
1171:Drivers/STM32F0xx_HAL_Driver/Src/stm32f0xx_hal_pcd.c ****     *pbUsrBuf++ = ((temp >> 0) & 0xFF);
 3267              		.loc 1 1171 0 discriminator 3
 3268 001a 0232     		adds	r2, r2, #2
 3269              	.LVL296:
 3270              		.loc 1 1173 0 discriminator 3
 3271 001c 0231     		adds	r1, r1, #2
 3272              	.LVL297:
 3273              	.L174:
1169:Drivers/STM32F0xx_HAL_Driver/Src/stm32f0xx_hal_pcd.c ****   {
 3274              		.loc 1 1169 0 discriminator 1
 3275 001e 002D     		cmp	r5, #0
 3276 0020 F6D1     		bne	.L175
1174:Drivers/STM32F0xx_HAL_Driver/Src/stm32f0xx_hal_pcd.c ****   }
1175:Drivers/STM32F0xx_HAL_Driver/Src/stm32f0xx_hal_pcd.c ****   
1176:Drivers/STM32F0xx_HAL_Driver/Src/stm32f0xx_hal_pcd.c ****   if (wNBytes % 2)
 3277              		.loc 1 1176 0
 3278 0022 DB07     		lsls	r3, r3, #31
 3279 0024 01D5     		bpl	.L173
 3280              	.LVL298:
1177:Drivers/STM32F0xx_HAL_Driver/Src/stm32f0xx_hal_pcd.c ****   {
1178:Drivers/STM32F0xx_HAL_Driver/Src/stm32f0xx_hal_pcd.c ****     temp = *pdwVal++;
 3281              		.loc 1 1178 0
 3282 0026 1388     		ldrh	r3, [r2]
 3283              	.LVL299:
1179:Drivers/STM32F0xx_HAL_Driver/Src/stm32f0xx_hal_pcd.c ****     *pbUsrBuf++ = ((temp >> 0) & 0xFF);
 3284              		.loc 1 1179 0
 3285 0028 0B70     		strb	r3, [r1]
 3286              	.LVL300:
 3287              	.L173:
1180:Drivers/STM32F0xx_HAL_Driver/Src/stm32f0xx_hal_pcd.c ****   }
1181:Drivers/STM32F0xx_HAL_Driver/Src/stm32f0xx_hal_pcd.c **** }
 3288              		.loc 1 1181 0
 3289              		@ sp needed
 3290              	.LVL301:
 3291 002a 30BD     		pop	{r4, r5, pc}
 3292              		.cfi_endproc
 3293              	.LFE70:
 3295              		.section	.text.PCD_EP_ISR_Handler,"ax",%progbits
 3296              		.align	1
 3297              		.syntax unified
 3298              		.code	16
 3299              		.thumb_func
 3300              		.fpu softvfp
 3302              	PCD_EP_ISR_Handler:
 3303              	.LFB71:
1182:Drivers/STM32F0xx_HAL_Driver/Src/stm32f0xx_hal_pcd.c **** 
1183:Drivers/STM32F0xx_HAL_Driver/Src/stm32f0xx_hal_pcd.c **** /**
1184:Drivers/STM32F0xx_HAL_Driver/Src/stm32f0xx_hal_pcd.c ****   * @brief  This function handles PCD Endpoint interrupt request.
1185:Drivers/STM32F0xx_HAL_Driver/Src/stm32f0xx_hal_pcd.c ****   * @param  hpcd PCD handle
1186:Drivers/STM32F0xx_HAL_Driver/Src/stm32f0xx_hal_pcd.c ****   * @retval HAL status
1187:Drivers/STM32F0xx_HAL_Driver/Src/stm32f0xx_hal_pcd.c ****   */
1188:Drivers/STM32F0xx_HAL_Driver/Src/stm32f0xx_hal_pcd.c **** static HAL_StatusTypeDef PCD_EP_ISR_Handler(PCD_HandleTypeDef *hpcd)
1189:Drivers/STM32F0xx_HAL_Driver/Src/stm32f0xx_hal_pcd.c **** {
ARM GAS  /tmp/ccMLnPi5.s 			page 82


 3304              		.loc 1 1189 0
 3305              		.cfi_startproc
 3306              		@ args = 0, pretend = 0, frame = 8
 3307              		@ frame_needed = 0, uses_anonymous_args = 0
 3308              	.LVL302:
 3309 0000 F0B5     		push	{r4, r5, r6, r7, lr}
 3310              	.LCFI13:
 3311              		.cfi_def_cfa_offset 20
 3312              		.cfi_offset 4, -20
 3313              		.cfi_offset 5, -16
 3314              		.cfi_offset 6, -12
 3315              		.cfi_offset 7, -8
 3316              		.cfi_offset 14, -4
 3317 0002 83B0     		sub	sp, sp, #12
 3318              	.LCFI14:
 3319              		.cfi_def_cfa_offset 32
 3320 0004 0500     		movs	r5, r0
 3321              	.LVL303:
1190:Drivers/STM32F0xx_HAL_Driver/Src/stm32f0xx_hal_pcd.c ****   PCD_EPTypeDef *ep;
1191:Drivers/STM32F0xx_HAL_Driver/Src/stm32f0xx_hal_pcd.c ****   uint16_t count=0U;
1192:Drivers/STM32F0xx_HAL_Driver/Src/stm32f0xx_hal_pcd.c ****   uint8_t EPindex;
1193:Drivers/STM32F0xx_HAL_Driver/Src/stm32f0xx_hal_pcd.c ****   __IO uint16_t wIstr;  
1194:Drivers/STM32F0xx_HAL_Driver/Src/stm32f0xx_hal_pcd.c ****   __IO uint16_t wEPVal = 0U;
 3322              		.loc 1 1194 0
 3323 0006 01AB     		add	r3, sp, #4
 3324 0008 0022     		movs	r2, #0
 3325 000a 1A80     		strh	r2, [r3]
 3326              	.LVL304:
 3327              	.L178:
1195:Drivers/STM32F0xx_HAL_Driver/Src/stm32f0xx_hal_pcd.c ****   
1196:Drivers/STM32F0xx_HAL_Driver/Src/stm32f0xx_hal_pcd.c ****   /* stay in loop while pending interrupts */
1197:Drivers/STM32F0xx_HAL_Driver/Src/stm32f0xx_hal_pcd.c ****   while (((wIstr = hpcd->Instance->ISTR) & USB_ISTR_CTR) != 0U)
 3328              		.loc 1 1197 0
 3329 000c 2868     		ldr	r0, [r5]
 3330 000e 4423     		movs	r3, #68
 3331 0010 C35A     		ldrh	r3, [r0, r3]
 3332 0012 9BB2     		uxth	r3, r3
 3333 0014 6A46     		mov	r2, sp
 3334 0016 D380     		strh	r3, [r2, #6]
 3335 0018 1BB2     		sxth	r3, r3
 3336 001a 002B     		cmp	r3, #0
 3337 001c 00DB     		blt	.LCB3495
 3338 001e 41E2     		b	.L201	@long jump
 3339              	.LCB3495:
1198:Drivers/STM32F0xx_HAL_Driver/Src/stm32f0xx_hal_pcd.c ****   {
1199:Drivers/STM32F0xx_HAL_Driver/Src/stm32f0xx_hal_pcd.c ****     /* extract highest priority endpoint number */
1200:Drivers/STM32F0xx_HAL_Driver/Src/stm32f0xx_hal_pcd.c ****     EPindex = (uint8_t)(wIstr & USB_ISTR_EP_ID);
 3340              		.loc 1 1200 0
 3341 0020 6B46     		mov	r3, sp
 3342 0022 DC88     		ldrh	r4, [r3, #6]
 3343 0024 0F23     		movs	r3, #15
 3344 0026 1C40     		ands	r4, r3
 3345              	.LVL305:
1201:Drivers/STM32F0xx_HAL_Driver/Src/stm32f0xx_hal_pcd.c ****     
1202:Drivers/STM32F0xx_HAL_Driver/Src/stm32f0xx_hal_pcd.c ****     if (EPindex == 0U)
 3346              		.loc 1 1202 0
 3347 0028 00D0     		beq	.LCB3505
ARM GAS  /tmp/ccMLnPi5.s 			page 83


 3348 002a B7E0     		b	.L179	@long jump
 3349              	.LCB3505:
1203:Drivers/STM32F0xx_HAL_Driver/Src/stm32f0xx_hal_pcd.c ****     {
1204:Drivers/STM32F0xx_HAL_Driver/Src/stm32f0xx_hal_pcd.c ****       /* Decode and service control endpoint interrupt */
1205:Drivers/STM32F0xx_HAL_Driver/Src/stm32f0xx_hal_pcd.c ****       
1206:Drivers/STM32F0xx_HAL_Driver/Src/stm32f0xx_hal_pcd.c ****       /* DIR bit = origin of the interrupt */   
1207:Drivers/STM32F0xx_HAL_Driver/Src/stm32f0xx_hal_pcd.c ****       if ((wIstr & USB_ISTR_DIR) == 0U)
 3350              		.loc 1 1207 0
 3351 002c 6B46     		mov	r3, sp
 3352 002e 0633     		adds	r3, r3, #6
 3353 0030 1B88     		ldrh	r3, [r3]
 3354 0032 DB06     		lsls	r3, r3, #27
 3355 0034 4DD5     		bpl	.L202
 3356              	.LVL306:
1208:Drivers/STM32F0xx_HAL_Driver/Src/stm32f0xx_hal_pcd.c ****       {
1209:Drivers/STM32F0xx_HAL_Driver/Src/stm32f0xx_hal_pcd.c ****         /* DIR = 0 */
1210:Drivers/STM32F0xx_HAL_Driver/Src/stm32f0xx_hal_pcd.c ****         
1211:Drivers/STM32F0xx_HAL_Driver/Src/stm32f0xx_hal_pcd.c ****         /* DIR = 0      => IN  int */
1212:Drivers/STM32F0xx_HAL_Driver/Src/stm32f0xx_hal_pcd.c ****         /* DIR = 0 implies that (EP_CTR_TX = 1) always  */
1213:Drivers/STM32F0xx_HAL_Driver/Src/stm32f0xx_hal_pcd.c ****         PCD_CLEAR_TX_EP_CTR(hpcd->Instance, PCD_ENDP0);
1214:Drivers/STM32F0xx_HAL_Driver/Src/stm32f0xx_hal_pcd.c ****         ep = &hpcd->IN_ep[0];
1215:Drivers/STM32F0xx_HAL_Driver/Src/stm32f0xx_hal_pcd.c ****         
1216:Drivers/STM32F0xx_HAL_Driver/Src/stm32f0xx_hal_pcd.c ****         ep->xfer_count = PCD_GET_EP_TX_CNT(hpcd->Instance, ep->num);
1217:Drivers/STM32F0xx_HAL_Driver/Src/stm32f0xx_hal_pcd.c ****         ep->xfer_buff += ep->xfer_count;
1218:Drivers/STM32F0xx_HAL_Driver/Src/stm32f0xx_hal_pcd.c ****  
1219:Drivers/STM32F0xx_HAL_Driver/Src/stm32f0xx_hal_pcd.c ****         /* TX COMPLETE */
1220:Drivers/STM32F0xx_HAL_Driver/Src/stm32f0xx_hal_pcd.c ****         HAL_PCD_DataInStageCallback(hpcd, 0U);
1221:Drivers/STM32F0xx_HAL_Driver/Src/stm32f0xx_hal_pcd.c ****         
1222:Drivers/STM32F0xx_HAL_Driver/Src/stm32f0xx_hal_pcd.c ****         
1223:Drivers/STM32F0xx_HAL_Driver/Src/stm32f0xx_hal_pcd.c ****         if((hpcd->USB_Address > 0U)&& ( ep->xfer_len == 0U))
1224:Drivers/STM32F0xx_HAL_Driver/Src/stm32f0xx_hal_pcd.c ****         {
1225:Drivers/STM32F0xx_HAL_Driver/Src/stm32f0xx_hal_pcd.c ****           hpcd->Instance->DADDR = (hpcd->USB_Address | USB_DADDR_EF);
1226:Drivers/STM32F0xx_HAL_Driver/Src/stm32f0xx_hal_pcd.c ****           hpcd->USB_Address = 0U;
1227:Drivers/STM32F0xx_HAL_Driver/Src/stm32f0xx_hal_pcd.c ****         }
1228:Drivers/STM32F0xx_HAL_Driver/Src/stm32f0xx_hal_pcd.c ****         
1229:Drivers/STM32F0xx_HAL_Driver/Src/stm32f0xx_hal_pcd.c ****       }
1230:Drivers/STM32F0xx_HAL_Driver/Src/stm32f0xx_hal_pcd.c ****       else
1231:Drivers/STM32F0xx_HAL_Driver/Src/stm32f0xx_hal_pcd.c ****       {
1232:Drivers/STM32F0xx_HAL_Driver/Src/stm32f0xx_hal_pcd.c ****         /* DIR = 1 */
1233:Drivers/STM32F0xx_HAL_Driver/Src/stm32f0xx_hal_pcd.c ****         
1234:Drivers/STM32F0xx_HAL_Driver/Src/stm32f0xx_hal_pcd.c ****         /* DIR = 1 & CTR_RX       => SETUP or OUT int */
1235:Drivers/STM32F0xx_HAL_Driver/Src/stm32f0xx_hal_pcd.c ****         /* DIR = 1 & (CTR_TX | CTR_RX) => 2 int pending */
1236:Drivers/STM32F0xx_HAL_Driver/Src/stm32f0xx_hal_pcd.c ****         ep = &hpcd->OUT_ep[0];
1237:Drivers/STM32F0xx_HAL_Driver/Src/stm32f0xx_hal_pcd.c ****         wEPVal = PCD_GET_ENDPOINT(hpcd->Instance, PCD_ENDP0);
 3357              		.loc 1 1237 0
 3358 0036 0388     		ldrh	r3, [r0]
 3359 0038 9BB2     		uxth	r3, r3
 3360 003a 01AA     		add	r2, sp, #4
 3361 003c 1380     		strh	r3, [r2]
1238:Drivers/STM32F0xx_HAL_Driver/Src/stm32f0xx_hal_pcd.c ****         
1239:Drivers/STM32F0xx_HAL_Driver/Src/stm32f0xx_hal_pcd.c ****         if ((wEPVal & USB_EP_SETUP) != 0U)
 3362              		.loc 1 1239 0
 3363 003e 1388     		ldrh	r3, [r2]
 3364 0040 1B05     		lsls	r3, r3, #20
 3365 0042 76D4     		bmi	.L203
1240:Drivers/STM32F0xx_HAL_Driver/Src/stm32f0xx_hal_pcd.c ****         {
1241:Drivers/STM32F0xx_HAL_Driver/Src/stm32f0xx_hal_pcd.c ****           /* Get SETUP Packet*/
ARM GAS  /tmp/ccMLnPi5.s 			page 84


1242:Drivers/STM32F0xx_HAL_Driver/Src/stm32f0xx_hal_pcd.c ****           ep->xfer_count = PCD_GET_EP_RX_CNT(hpcd->Instance, ep->num);
1243:Drivers/STM32F0xx_HAL_Driver/Src/stm32f0xx_hal_pcd.c ****           PCD_ReadPMA(hpcd->Instance, (uint8_t*)(void*)hpcd->Setup ,ep->pmaadress , ep->xfer_count)
1244:Drivers/STM32F0xx_HAL_Driver/Src/stm32f0xx_hal_pcd.c ****           /* SETUP bit kept frozen while CTR_RX = 1*/ 
1245:Drivers/STM32F0xx_HAL_Driver/Src/stm32f0xx_hal_pcd.c ****           PCD_CLEAR_RX_EP_CTR(hpcd->Instance, PCD_ENDP0); 
1246:Drivers/STM32F0xx_HAL_Driver/Src/stm32f0xx_hal_pcd.c ****           
1247:Drivers/STM32F0xx_HAL_Driver/Src/stm32f0xx_hal_pcd.c ****           /* Process SETUP Packet*/
1248:Drivers/STM32F0xx_HAL_Driver/Src/stm32f0xx_hal_pcd.c ****           HAL_PCD_SetupStageCallback(hpcd);
1249:Drivers/STM32F0xx_HAL_Driver/Src/stm32f0xx_hal_pcd.c ****         }
1250:Drivers/STM32F0xx_HAL_Driver/Src/stm32f0xx_hal_pcd.c ****         
1251:Drivers/STM32F0xx_HAL_Driver/Src/stm32f0xx_hal_pcd.c ****         else if ((wEPVal & USB_EP_CTR_RX) != 0U)
 3366              		.loc 1 1251 0
 3367 0044 01AB     		add	r3, sp, #4
 3368 0046 1B88     		ldrh	r3, [r3]
 3369 0048 1BB2     		sxth	r3, r3
 3370 004a 002B     		cmp	r3, #0
 3371 004c DEDA     		bge	.L178
1252:Drivers/STM32F0xx_HAL_Driver/Src/stm32f0xx_hal_pcd.c ****         {
1253:Drivers/STM32F0xx_HAL_Driver/Src/stm32f0xx_hal_pcd.c ****           PCD_CLEAR_RX_EP_CTR(hpcd->Instance, PCD_ENDP0);
