ARM GAS  /tmp/ccsaPaYr.s 			page 1


   1              		.cpu cortex-m0
   2              		.eabi_attribute 20, 1
   3              		.eabi_attribute 21, 1
   4              		.eabi_attribute 23, 3
   5              		.eabi_attribute 24, 1
   6              		.eabi_attribute 25, 1
   7              		.eabi_attribute 26, 1
   8              		.eabi_attribute 30, 1
   9              		.eabi_attribute 34, 0
  10              		.eabi_attribute 18, 4
  11              		.file	"stm32f0xx_hal_dma.c"
  12              		.text
  13              	.Ltext0:
  14              		.cfi_sections	.debug_frame
  15              		.section	.text.DMA_SetConfig,"ax",%progbits
  16              		.align	1
  17              		.arch armv6s-m
  18              		.syntax unified
  19              		.code	16
  20              		.thumb_func
  21              		.fpu softvfp
  23              	DMA_SetConfig:
  24              	.LVL0:
  25              	.LFB49:
  26              		.file 1 "Drivers/STM32F0xx_HAL_Driver/Src/stm32f0xx_hal_dma.c"
   1:Drivers/STM32F0xx_HAL_Driver/Src/stm32f0xx_hal_dma.c **** /**
   2:Drivers/STM32F0xx_HAL_Driver/Src/stm32f0xx_hal_dma.c ****   ******************************************************************************
   3:Drivers/STM32F0xx_HAL_Driver/Src/stm32f0xx_hal_dma.c ****   * @file    stm32f0xx_hal_dma.c
   4:Drivers/STM32F0xx_HAL_Driver/Src/stm32f0xx_hal_dma.c ****   * @author  MCD Application Team
   5:Drivers/STM32F0xx_HAL_Driver/Src/stm32f0xx_hal_dma.c ****   * @brief   DMA HAL module driver.
   6:Drivers/STM32F0xx_HAL_Driver/Src/stm32f0xx_hal_dma.c ****   *    
   7:Drivers/STM32F0xx_HAL_Driver/Src/stm32f0xx_hal_dma.c ****   *         This file provides firmware functions to manage the following 
   8:Drivers/STM32F0xx_HAL_Driver/Src/stm32f0xx_hal_dma.c ****   *         functionalities of the Direct Memory Access (DMA) peripheral:
   9:Drivers/STM32F0xx_HAL_Driver/Src/stm32f0xx_hal_dma.c ****   *           + Initialization and de-initialization functions
  10:Drivers/STM32F0xx_HAL_Driver/Src/stm32f0xx_hal_dma.c ****   *           + IO operation functions
  11:Drivers/STM32F0xx_HAL_Driver/Src/stm32f0xx_hal_dma.c ****   *           + Peripheral State and errors functions
  12:Drivers/STM32F0xx_HAL_Driver/Src/stm32f0xx_hal_dma.c ****   @verbatim     
  13:Drivers/STM32F0xx_HAL_Driver/Src/stm32f0xx_hal_dma.c ****   ==============================================================================      
  14:Drivers/STM32F0xx_HAL_Driver/Src/stm32f0xx_hal_dma.c ****                         ##### How to use this driver #####
  15:Drivers/STM32F0xx_HAL_Driver/Src/stm32f0xx_hal_dma.c ****   ============================================================================== 
  16:Drivers/STM32F0xx_HAL_Driver/Src/stm32f0xx_hal_dma.c ****   [..]
  17:Drivers/STM32F0xx_HAL_Driver/Src/stm32f0xx_hal_dma.c ****    (#) Enable and configure the peripheral to be connected to the DMA Channel
  18:Drivers/STM32F0xx_HAL_Driver/Src/stm32f0xx_hal_dma.c ****        (except for internal SRAM / FLASH memories: no initialization is 
  19:Drivers/STM32F0xx_HAL_Driver/Src/stm32f0xx_hal_dma.c ****        necessary). Please refer to Reference manual for connection between peripherals
  20:Drivers/STM32F0xx_HAL_Driver/Src/stm32f0xx_hal_dma.c ****        and DMA requests .
  21:Drivers/STM32F0xx_HAL_Driver/Src/stm32f0xx_hal_dma.c **** 
  22:Drivers/STM32F0xx_HAL_Driver/Src/stm32f0xx_hal_dma.c ****    (#) For a given Channel, program the required configuration through the following parameters:   
  23:Drivers/STM32F0xx_HAL_Driver/Src/stm32f0xx_hal_dma.c ****        Transfer Direction, Source and Destination data formats, 
  24:Drivers/STM32F0xx_HAL_Driver/Src/stm32f0xx_hal_dma.c ****        Circular or Normal mode, Channel Priority level, Source and Destination Increment mode, 
  25:Drivers/STM32F0xx_HAL_Driver/Src/stm32f0xx_hal_dma.c ****        using HAL_DMA_Init() function.
  26:Drivers/STM32F0xx_HAL_Driver/Src/stm32f0xx_hal_dma.c **** 
  27:Drivers/STM32F0xx_HAL_Driver/Src/stm32f0xx_hal_dma.c ****    (#) Use HAL_DMA_GetState() function to return the DMA state and HAL_DMA_GetError() in case of er
  28:Drivers/STM32F0xx_HAL_Driver/Src/stm32f0xx_hal_dma.c ****        detection.
  29:Drivers/STM32F0xx_HAL_Driver/Src/stm32f0xx_hal_dma.c ****                     
  30:Drivers/STM32F0xx_HAL_Driver/Src/stm32f0xx_hal_dma.c ****    (#) Use HAL_DMA_Abort() function to abort the current transfer
  31:Drivers/STM32F0xx_HAL_Driver/Src/stm32f0xx_hal_dma.c ****                    
  32:Drivers/STM32F0xx_HAL_Driver/Src/stm32f0xx_hal_dma.c ****      -@-   In Memory-to-Memory transfer mode, Circular mode is not allowed.
ARM GAS  /tmp/ccsaPaYr.s 			page 2


  33:Drivers/STM32F0xx_HAL_Driver/Src/stm32f0xx_hal_dma.c ****      *** Polling mode IO operation ***
  34:Drivers/STM32F0xx_HAL_Driver/Src/stm32f0xx_hal_dma.c ****      =================================   
  35:Drivers/STM32F0xx_HAL_Driver/Src/stm32f0xx_hal_dma.c ****     [..] 
  36:Drivers/STM32F0xx_HAL_Driver/Src/stm32f0xx_hal_dma.c ****       (+) Use HAL_DMA_Start() to start DMA transfer after the configuration of Source 
  37:Drivers/STM32F0xx_HAL_Driver/Src/stm32f0xx_hal_dma.c ****           address and destination address and the Length of data to be transferred
  38:Drivers/STM32F0xx_HAL_Driver/Src/stm32f0xx_hal_dma.c ****       (+) Use HAL_DMA_PollForTransfer() to poll for the end of current transfer, in this  
  39:Drivers/STM32F0xx_HAL_Driver/Src/stm32f0xx_hal_dma.c ****           case a fixed Timeout can be configured by User depending from his application.
  40:Drivers/STM32F0xx_HAL_Driver/Src/stm32f0xx_hal_dma.c **** 
  41:Drivers/STM32F0xx_HAL_Driver/Src/stm32f0xx_hal_dma.c ****      *** Interrupt mode IO operation ***    
  42:Drivers/STM32F0xx_HAL_Driver/Src/stm32f0xx_hal_dma.c ****      =================================== 
  43:Drivers/STM32F0xx_HAL_Driver/Src/stm32f0xx_hal_dma.c ****     [..]
  44:Drivers/STM32F0xx_HAL_Driver/Src/stm32f0xx_hal_dma.c ****       (+) Configure the DMA interrupt priority using HAL_NVIC_SetPriority()
  45:Drivers/STM32F0xx_HAL_Driver/Src/stm32f0xx_hal_dma.c ****       (+) Enable the DMA IRQ handler using HAL_NVIC_EnableIRQ() 
  46:Drivers/STM32F0xx_HAL_Driver/Src/stm32f0xx_hal_dma.c ****       (+) Use HAL_DMA_Start_IT() to start DMA transfer after the configuration of  
  47:Drivers/STM32F0xx_HAL_Driver/Src/stm32f0xx_hal_dma.c ****           Source address and destination address and the Length of data to be transferred. 
  48:Drivers/STM32F0xx_HAL_Driver/Src/stm32f0xx_hal_dma.c ****           In this case the DMA interrupt is configured 
  49:Drivers/STM32F0xx_HAL_Driver/Src/stm32f0xx_hal_dma.c ****       (+) Use HAL_DMA_Channel_IRQHandler() called under DMA_IRQHandler() Interrupt subroutine
  50:Drivers/STM32F0xx_HAL_Driver/Src/stm32f0xx_hal_dma.c ****       (+) At the end of data transfer HAL_DMA_IRQHandler() function is executed and user can 
  51:Drivers/STM32F0xx_HAL_Driver/Src/stm32f0xx_hal_dma.c ****           add his own function by customization of function pointer XferCpltCallback and 
  52:Drivers/STM32F0xx_HAL_Driver/Src/stm32f0xx_hal_dma.c ****           XferErrorCallback (i.e a member of DMA handle structure). 
  53:Drivers/STM32F0xx_HAL_Driver/Src/stm32f0xx_hal_dma.c **** 
  54:Drivers/STM32F0xx_HAL_Driver/Src/stm32f0xx_hal_dma.c ****      *** DMA HAL driver macros list ***
  55:Drivers/STM32F0xx_HAL_Driver/Src/stm32f0xx_hal_dma.c ****      ============================================= 
  56:Drivers/STM32F0xx_HAL_Driver/Src/stm32f0xx_hal_dma.c ****      [..]
  57:Drivers/STM32F0xx_HAL_Driver/Src/stm32f0xx_hal_dma.c ****        Below the list of most used macros in DMA HAL driver.
  58:Drivers/STM32F0xx_HAL_Driver/Src/stm32f0xx_hal_dma.c **** 
  59:Drivers/STM32F0xx_HAL_Driver/Src/stm32f0xx_hal_dma.c ****      [..] 
  60:Drivers/STM32F0xx_HAL_Driver/Src/stm32f0xx_hal_dma.c ****       (@) You can refer to the DMA HAL driver header file for more useful macros  
  61:Drivers/STM32F0xx_HAL_Driver/Src/stm32f0xx_hal_dma.c **** 
  62:Drivers/STM32F0xx_HAL_Driver/Src/stm32f0xx_hal_dma.c ****   @endverbatim
  63:Drivers/STM32F0xx_HAL_Driver/Src/stm32f0xx_hal_dma.c ****   ******************************************************************************
  64:Drivers/STM32F0xx_HAL_Driver/Src/stm32f0xx_hal_dma.c ****   * @attention
  65:Drivers/STM32F0xx_HAL_Driver/Src/stm32f0xx_hal_dma.c ****   *
  66:Drivers/STM32F0xx_HAL_Driver/Src/stm32f0xx_hal_dma.c ****   * <h2><center>&copy; COPYRIGHT(c) 2016 STMicroelectronics</center></h2>
  67:Drivers/STM32F0xx_HAL_Driver/Src/stm32f0xx_hal_dma.c ****   *
  68:Drivers/STM32F0xx_HAL_Driver/Src/stm32f0xx_hal_dma.c ****   * Redistribution and use in source and binary forms, with or without modification,
  69:Drivers/STM32F0xx_HAL_Driver/Src/stm32f0xx_hal_dma.c ****   * are permitted provided that the following conditions are met:
  70:Drivers/STM32F0xx_HAL_Driver/Src/stm32f0xx_hal_dma.c ****   *   1. Redistributions of source code must retain the above copyright notice,
  71:Drivers/STM32F0xx_HAL_Driver/Src/stm32f0xx_hal_dma.c ****   *      this list of conditions and the following disclaimer.
  72:Drivers/STM32F0xx_HAL_Driver/Src/stm32f0xx_hal_dma.c ****   *   2. Redistributions in binary form must reproduce the above copyright notice,
  73:Drivers/STM32F0xx_HAL_Driver/Src/stm32f0xx_hal_dma.c ****   *      this list of conditions and the following disclaimer in the documentation
  74:Drivers/STM32F0xx_HAL_Driver/Src/stm32f0xx_hal_dma.c ****   *      and/or other materials provided with the distribution.
  75:Drivers/STM32F0xx_HAL_Driver/Src/stm32f0xx_hal_dma.c ****   *   3. Neither the name of STMicroelectronics nor the names of its contributors
  76:Drivers/STM32F0xx_HAL_Driver/Src/stm32f0xx_hal_dma.c ****   *      may be used to endorse or promote products derived from this software
  77:Drivers/STM32F0xx_HAL_Driver/Src/stm32f0xx_hal_dma.c ****   *      without specific prior written permission.
  78:Drivers/STM32F0xx_HAL_Driver/Src/stm32f0xx_hal_dma.c ****   *
  79:Drivers/STM32F0xx_HAL_Driver/Src/stm32f0xx_hal_dma.c ****   * THIS SOFTWARE IS PROVIDED BY THE COPYRIGHT HOLDERS AND CONTRIBUTORS "AS IS"
  80:Drivers/STM32F0xx_HAL_Driver/Src/stm32f0xx_hal_dma.c ****   * AND ANY EXPRESS OR IMPLIED WARRANTIES, INCLUDING, BUT NOT LIMITED TO, THE
  81:Drivers/STM32F0xx_HAL_Driver/Src/stm32f0xx_hal_dma.c ****   * IMPLIED WARRANTIES OF MERCHANTABILITY AND FITNESS FOR A PARTICULAR PURPOSE ARE
  82:Drivers/STM32F0xx_HAL_Driver/Src/stm32f0xx_hal_dma.c ****   * DISCLAIMED. IN NO EVENT SHALL THE COPYRIGHT HOLDER OR CONTRIBUTORS BE LIABLE
  83:Drivers/STM32F0xx_HAL_Driver/Src/stm32f0xx_hal_dma.c ****   * FOR ANY DIRECT, INDIRECT, INCIDENTAL, SPECIAL, EXEMPLARY, OR CONSEQUENTIAL
  84:Drivers/STM32F0xx_HAL_Driver/Src/stm32f0xx_hal_dma.c ****   * DAMAGES (INCLUDING, BUT NOT LIMITED TO, PROCUREMENT OF SUBSTITUTE GOODS OR
  85:Drivers/STM32F0xx_HAL_Driver/Src/stm32f0xx_hal_dma.c ****   * SERVICES; LOSS OF USE, DATA, OR PROFITS; OR BUSINESS INTERRUPTION) HOWEVER
  86:Drivers/STM32F0xx_HAL_Driver/Src/stm32f0xx_hal_dma.c ****   * CAUSED AND ON ANY THEORY OF LIABILITY, WHETHER IN CONTRACT, STRICT LIABILITY,
  87:Drivers/STM32F0xx_HAL_Driver/Src/stm32f0xx_hal_dma.c ****   * OR TORT (INCLUDING NEGLIGENCE OR OTHERWISE) ARISING IN ANY WAY OUT OF THE USE
  88:Drivers/STM32F0xx_HAL_Driver/Src/stm32f0xx_hal_dma.c ****   * OF THIS SOFTWARE, EVEN IF ADVISED OF THE POSSIBILITY OF SUCH DAMAGE.
  89:Drivers/STM32F0xx_HAL_Driver/Src/stm32f0xx_hal_dma.c ****   *
ARM GAS  /tmp/ccsaPaYr.s 			page 3


  90:Drivers/STM32F0xx_HAL_Driver/Src/stm32f0xx_hal_dma.c ****   ******************************************************************************
  91:Drivers/STM32F0xx_HAL_Driver/Src/stm32f0xx_hal_dma.c ****   */ 
  92:Drivers/STM32F0xx_HAL_Driver/Src/stm32f0xx_hal_dma.c **** 
  93:Drivers/STM32F0xx_HAL_Driver/Src/stm32f0xx_hal_dma.c **** /* Includes ------------------------------------------------------------------*/
  94:Drivers/STM32F0xx_HAL_Driver/Src/stm32f0xx_hal_dma.c **** #include "stm32f0xx_hal.h"
  95:Drivers/STM32F0xx_HAL_Driver/Src/stm32f0xx_hal_dma.c **** 
  96:Drivers/STM32F0xx_HAL_Driver/Src/stm32f0xx_hal_dma.c **** /** @addtogroup STM32F0xx_HAL_Driver
  97:Drivers/STM32F0xx_HAL_Driver/Src/stm32f0xx_hal_dma.c ****   * @{
  98:Drivers/STM32F0xx_HAL_Driver/Src/stm32f0xx_hal_dma.c ****   */
  99:Drivers/STM32F0xx_HAL_Driver/Src/stm32f0xx_hal_dma.c **** 
 100:Drivers/STM32F0xx_HAL_Driver/Src/stm32f0xx_hal_dma.c **** 
 101:Drivers/STM32F0xx_HAL_Driver/Src/stm32f0xx_hal_dma.c **** /** @defgroup DMA DMA
 102:Drivers/STM32F0xx_HAL_Driver/Src/stm32f0xx_hal_dma.c ****   * @brief DMA HAL module driver
 103:Drivers/STM32F0xx_HAL_Driver/Src/stm32f0xx_hal_dma.c ****   * @{
 104:Drivers/STM32F0xx_HAL_Driver/Src/stm32f0xx_hal_dma.c ****   */
 105:Drivers/STM32F0xx_HAL_Driver/Src/stm32f0xx_hal_dma.c **** 
 106:Drivers/STM32F0xx_HAL_Driver/Src/stm32f0xx_hal_dma.c **** #ifdef HAL_DMA_MODULE_ENABLED
 107:Drivers/STM32F0xx_HAL_Driver/Src/stm32f0xx_hal_dma.c **** 
 108:Drivers/STM32F0xx_HAL_Driver/Src/stm32f0xx_hal_dma.c **** /* Private typedef -----------------------------------------------------------*/
 109:Drivers/STM32F0xx_HAL_Driver/Src/stm32f0xx_hal_dma.c **** /* Private define ------------------------------------------------------------*/
 110:Drivers/STM32F0xx_HAL_Driver/Src/stm32f0xx_hal_dma.c **** /* Private macro -------------------------------------------------------------*/
 111:Drivers/STM32F0xx_HAL_Driver/Src/stm32f0xx_hal_dma.c **** /* Private variables ---------------------------------------------------------*/
 112:Drivers/STM32F0xx_HAL_Driver/Src/stm32f0xx_hal_dma.c **** /* Private function prototypes -----------------------------------------------*/
 113:Drivers/STM32F0xx_HAL_Driver/Src/stm32f0xx_hal_dma.c **** /** @defgroup DMA_Private_Functions DMA Private Functions
 114:Drivers/STM32F0xx_HAL_Driver/Src/stm32f0xx_hal_dma.c ****   * @{
 115:Drivers/STM32F0xx_HAL_Driver/Src/stm32f0xx_hal_dma.c ****   */
 116:Drivers/STM32F0xx_HAL_Driver/Src/stm32f0xx_hal_dma.c **** static void DMA_SetConfig(DMA_HandleTypeDef *hdma, uint32_t SrcAddress, uint32_t DstAddress, uint32
 117:Drivers/STM32F0xx_HAL_Driver/Src/stm32f0xx_hal_dma.c **** static void DMA_CalcBaseAndBitshift(DMA_HandleTypeDef *hdma);
 118:Drivers/STM32F0xx_HAL_Driver/Src/stm32f0xx_hal_dma.c **** /**
 119:Drivers/STM32F0xx_HAL_Driver/Src/stm32f0xx_hal_dma.c ****   * @}
 120:Drivers/STM32F0xx_HAL_Driver/Src/stm32f0xx_hal_dma.c ****   */
 121:Drivers/STM32F0xx_HAL_Driver/Src/stm32f0xx_hal_dma.c **** 
 122:Drivers/STM32F0xx_HAL_Driver/Src/stm32f0xx_hal_dma.c **** /* Exported functions ---------------------------------------------------------*/
 123:Drivers/STM32F0xx_HAL_Driver/Src/stm32f0xx_hal_dma.c **** 
 124:Drivers/STM32F0xx_HAL_Driver/Src/stm32f0xx_hal_dma.c **** /** @defgroup DMA_Exported_Functions DMA Exported Functions
 125:Drivers/STM32F0xx_HAL_Driver/Src/stm32f0xx_hal_dma.c ****   * @{
 126:Drivers/STM32F0xx_HAL_Driver/Src/stm32f0xx_hal_dma.c ****   */
 127:Drivers/STM32F0xx_HAL_Driver/Src/stm32f0xx_hal_dma.c **** 
 128:Drivers/STM32F0xx_HAL_Driver/Src/stm32f0xx_hal_dma.c **** /** @defgroup DMA_Exported_Functions_Group1 Initialization and de-initialization functions
 129:Drivers/STM32F0xx_HAL_Driver/Src/stm32f0xx_hal_dma.c ****  *  @brief   Initialization and de-initialization functions 
 130:Drivers/STM32F0xx_HAL_Driver/Src/stm32f0xx_hal_dma.c ****  *
 131:Drivers/STM32F0xx_HAL_Driver/Src/stm32f0xx_hal_dma.c **** @verbatim   
 132:Drivers/STM32F0xx_HAL_Driver/Src/stm32f0xx_hal_dma.c ****  ===============================================================================
 133:Drivers/STM32F0xx_HAL_Driver/Src/stm32f0xx_hal_dma.c ****              ##### Initialization and de-initialization functions  #####
 134:Drivers/STM32F0xx_HAL_Driver/Src/stm32f0xx_hal_dma.c ****  ===============================================================================  
 135:Drivers/STM32F0xx_HAL_Driver/Src/stm32f0xx_hal_dma.c ****     [..]
 136:Drivers/STM32F0xx_HAL_Driver/Src/stm32f0xx_hal_dma.c ****     This section provides functions allowing to initialize the DMA Channel source
 137:Drivers/STM32F0xx_HAL_Driver/Src/stm32f0xx_hal_dma.c ****     and destination addresses, incrementation and data sizes, transfer direction, 
 138:Drivers/STM32F0xx_HAL_Driver/Src/stm32f0xx_hal_dma.c ****     circular/normal mode selection, memory-to-memory mode selection and Channel priority value.
 139:Drivers/STM32F0xx_HAL_Driver/Src/stm32f0xx_hal_dma.c ****     [..]
 140:Drivers/STM32F0xx_HAL_Driver/Src/stm32f0xx_hal_dma.c ****     The HAL_DMA_Init() function follows the DMA configuration procedures as described in
 141:Drivers/STM32F0xx_HAL_Driver/Src/stm32f0xx_hal_dma.c ****     reference manual.  
 142:Drivers/STM32F0xx_HAL_Driver/Src/stm32f0xx_hal_dma.c **** 
 143:Drivers/STM32F0xx_HAL_Driver/Src/stm32f0xx_hal_dma.c **** @endverbatim
 144:Drivers/STM32F0xx_HAL_Driver/Src/stm32f0xx_hal_dma.c ****   * @{
 145:Drivers/STM32F0xx_HAL_Driver/Src/stm32f0xx_hal_dma.c ****   */
 146:Drivers/STM32F0xx_HAL_Driver/Src/stm32f0xx_hal_dma.c ****   
ARM GAS  /tmp/ccsaPaYr.s 			page 4


 147:Drivers/STM32F0xx_HAL_Driver/Src/stm32f0xx_hal_dma.c **** /**
 148:Drivers/STM32F0xx_HAL_Driver/Src/stm32f0xx_hal_dma.c ****   * @brief  Initialize the DMA according to the specified
 149:Drivers/STM32F0xx_HAL_Driver/Src/stm32f0xx_hal_dma.c ****   *         parameters in the DMA_InitTypeDef and initialize the associated handle.
 150:Drivers/STM32F0xx_HAL_Driver/Src/stm32f0xx_hal_dma.c ****   * @param  hdma Pointer to a DMA_HandleTypeDef structure that contains
 151:Drivers/STM32F0xx_HAL_Driver/Src/stm32f0xx_hal_dma.c ****   *               the configuration information for the specified DMA Channel.  
 152:Drivers/STM32F0xx_HAL_Driver/Src/stm32f0xx_hal_dma.c ****   * @retval HAL status
 153:Drivers/STM32F0xx_HAL_Driver/Src/stm32f0xx_hal_dma.c ****   */
 154:Drivers/STM32F0xx_HAL_Driver/Src/stm32f0xx_hal_dma.c **** HAL_StatusTypeDef HAL_DMA_Init(DMA_HandleTypeDef *hdma)
 155:Drivers/STM32F0xx_HAL_Driver/Src/stm32f0xx_hal_dma.c **** { 
 156:Drivers/STM32F0xx_HAL_Driver/Src/stm32f0xx_hal_dma.c ****   uint32_t tmp = 0U;
 157:Drivers/STM32F0xx_HAL_Driver/Src/stm32f0xx_hal_dma.c ****   
 158:Drivers/STM32F0xx_HAL_Driver/Src/stm32f0xx_hal_dma.c ****   /* Check the DMA handle allocation */
 159:Drivers/STM32F0xx_HAL_Driver/Src/stm32f0xx_hal_dma.c ****   if(NULL == hdma)
 160:Drivers/STM32F0xx_HAL_Driver/Src/stm32f0xx_hal_dma.c ****   {
 161:Drivers/STM32F0xx_HAL_Driver/Src/stm32f0xx_hal_dma.c ****     return HAL_ERROR;
 162:Drivers/STM32F0xx_HAL_Driver/Src/stm32f0xx_hal_dma.c ****   }
 163:Drivers/STM32F0xx_HAL_Driver/Src/stm32f0xx_hal_dma.c ****   
 164:Drivers/STM32F0xx_HAL_Driver/Src/stm32f0xx_hal_dma.c ****   /* Check the parameters */
 165:Drivers/STM32F0xx_HAL_Driver/Src/stm32f0xx_hal_dma.c ****   assert_param(IS_DMA_ALL_INSTANCE(hdma->Instance));
 166:Drivers/STM32F0xx_HAL_Driver/Src/stm32f0xx_hal_dma.c ****   assert_param(IS_DMA_DIRECTION(hdma->Init.Direction));
 167:Drivers/STM32F0xx_HAL_Driver/Src/stm32f0xx_hal_dma.c ****   assert_param(IS_DMA_PERIPHERAL_INC_STATE(hdma->Init.PeriphInc));
 168:Drivers/STM32F0xx_HAL_Driver/Src/stm32f0xx_hal_dma.c ****   assert_param(IS_DMA_MEMORY_INC_STATE(hdma->Init.MemInc));
 169:Drivers/STM32F0xx_HAL_Driver/Src/stm32f0xx_hal_dma.c ****   assert_param(IS_DMA_PERIPHERAL_DATA_SIZE(hdma->Init.PeriphDataAlignment));
 170:Drivers/STM32F0xx_HAL_Driver/Src/stm32f0xx_hal_dma.c ****   assert_param(IS_DMA_MEMORY_DATA_SIZE(hdma->Init.MemDataAlignment));
 171:Drivers/STM32F0xx_HAL_Driver/Src/stm32f0xx_hal_dma.c ****   assert_param(IS_DMA_MODE(hdma->Init.Mode));
 172:Drivers/STM32F0xx_HAL_Driver/Src/stm32f0xx_hal_dma.c ****   assert_param(IS_DMA_PRIORITY(hdma->Init.Priority));
 173:Drivers/STM32F0xx_HAL_Driver/Src/stm32f0xx_hal_dma.c ****   
 174:Drivers/STM32F0xx_HAL_Driver/Src/stm32f0xx_hal_dma.c ****   /* Change DMA peripheral state */
 175:Drivers/STM32F0xx_HAL_Driver/Src/stm32f0xx_hal_dma.c ****   hdma->State = HAL_DMA_STATE_BUSY;
 176:Drivers/STM32F0xx_HAL_Driver/Src/stm32f0xx_hal_dma.c **** 
 177:Drivers/STM32F0xx_HAL_Driver/Src/stm32f0xx_hal_dma.c ****   /* Get the CR register value */
 178:Drivers/STM32F0xx_HAL_Driver/Src/stm32f0xx_hal_dma.c ****   tmp = hdma->Instance->CCR;
 179:Drivers/STM32F0xx_HAL_Driver/Src/stm32f0xx_hal_dma.c ****   
 180:Drivers/STM32F0xx_HAL_Driver/Src/stm32f0xx_hal_dma.c ****   /* Clear PL, MSIZE, PSIZE, MINC, PINC, CIRC, DIR bits */
 181:Drivers/STM32F0xx_HAL_Driver/Src/stm32f0xx_hal_dma.c ****   tmp &= ((uint32_t)~(DMA_CCR_PL    | DMA_CCR_MSIZE  | DMA_CCR_PSIZE  | \
 182:Drivers/STM32F0xx_HAL_Driver/Src/stm32f0xx_hal_dma.c ****                       DMA_CCR_MINC  | DMA_CCR_PINC   | DMA_CCR_CIRC   | \
 183:Drivers/STM32F0xx_HAL_Driver/Src/stm32f0xx_hal_dma.c ****                       DMA_CCR_DIR));
 184:Drivers/STM32F0xx_HAL_Driver/Src/stm32f0xx_hal_dma.c ****   
 185:Drivers/STM32F0xx_HAL_Driver/Src/stm32f0xx_hal_dma.c ****   /* Prepare the DMA Channel configuration */
 186:Drivers/STM32F0xx_HAL_Driver/Src/stm32f0xx_hal_dma.c ****   tmp |=  hdma->Init.Direction        |
 187:Drivers/STM32F0xx_HAL_Driver/Src/stm32f0xx_hal_dma.c ****           hdma->Init.PeriphInc           | hdma->Init.MemInc           |
 188:Drivers/STM32F0xx_HAL_Driver/Src/stm32f0xx_hal_dma.c ****           hdma->Init.PeriphDataAlignment | hdma->Init.MemDataAlignment |
 189:Drivers/STM32F0xx_HAL_Driver/Src/stm32f0xx_hal_dma.c ****           hdma->Init.Mode                | hdma->Init.Priority;
 190:Drivers/STM32F0xx_HAL_Driver/Src/stm32f0xx_hal_dma.c **** 
 191:Drivers/STM32F0xx_HAL_Driver/Src/stm32f0xx_hal_dma.c ****   /* Write to DMA Channel CR register */
 192:Drivers/STM32F0xx_HAL_Driver/Src/stm32f0xx_hal_dma.c ****   hdma->Instance->CCR = tmp;  
 193:Drivers/STM32F0xx_HAL_Driver/Src/stm32f0xx_hal_dma.c ****   
 194:Drivers/STM32F0xx_HAL_Driver/Src/stm32f0xx_hal_dma.c ****   /* Initialize DmaBaseAddress and ChannelIndex parameters used 
 195:Drivers/STM32F0xx_HAL_Driver/Src/stm32f0xx_hal_dma.c ****      by HAL_DMA_IRQHandler() and HAL_DMA_PollForTransfer() */
 196:Drivers/STM32F0xx_HAL_Driver/Src/stm32f0xx_hal_dma.c ****   DMA_CalcBaseAndBitshift(hdma);
 197:Drivers/STM32F0xx_HAL_Driver/Src/stm32f0xx_hal_dma.c ****   
 198:Drivers/STM32F0xx_HAL_Driver/Src/stm32f0xx_hal_dma.c ****   /* Clean callbacks */
 199:Drivers/STM32F0xx_HAL_Driver/Src/stm32f0xx_hal_dma.c ****   hdma->XferCpltCallback = NULL;
 200:Drivers/STM32F0xx_HAL_Driver/Src/stm32f0xx_hal_dma.c ****   hdma->XferHalfCpltCallback = NULL;
 201:Drivers/STM32F0xx_HAL_Driver/Src/stm32f0xx_hal_dma.c ****   hdma->XferErrorCallback = NULL;
 202:Drivers/STM32F0xx_HAL_Driver/Src/stm32f0xx_hal_dma.c ****   hdma->XferAbortCallback = NULL;
 203:Drivers/STM32F0xx_HAL_Driver/Src/stm32f0xx_hal_dma.c ****   
ARM GAS  /tmp/ccsaPaYr.s 			page 5


 204:Drivers/STM32F0xx_HAL_Driver/Src/stm32f0xx_hal_dma.c ****   /* Initialise the error code */
 205:Drivers/STM32F0xx_HAL_Driver/Src/stm32f0xx_hal_dma.c ****   hdma->ErrorCode = HAL_DMA_ERROR_NONE;
 206:Drivers/STM32F0xx_HAL_Driver/Src/stm32f0xx_hal_dma.c **** 
 207:Drivers/STM32F0xx_HAL_Driver/Src/stm32f0xx_hal_dma.c ****   /* Initialize the DMA state*/
 208:Drivers/STM32F0xx_HAL_Driver/Src/stm32f0xx_hal_dma.c ****   hdma->State = HAL_DMA_STATE_READY;
 209:Drivers/STM32F0xx_HAL_Driver/Src/stm32f0xx_hal_dma.c ****   
 210:Drivers/STM32F0xx_HAL_Driver/Src/stm32f0xx_hal_dma.c ****   /* Allocate lock resource and initialize it */
 211:Drivers/STM32F0xx_HAL_Driver/Src/stm32f0xx_hal_dma.c ****   hdma->Lock = HAL_UNLOCKED;
 212:Drivers/STM32F0xx_HAL_Driver/Src/stm32f0xx_hal_dma.c ****   
 213:Drivers/STM32F0xx_HAL_Driver/Src/stm32f0xx_hal_dma.c ****   return HAL_OK;
 214:Drivers/STM32F0xx_HAL_Driver/Src/stm32f0xx_hal_dma.c **** }  
 215:Drivers/STM32F0xx_HAL_Driver/Src/stm32f0xx_hal_dma.c ****   
 216:Drivers/STM32F0xx_HAL_Driver/Src/stm32f0xx_hal_dma.c **** /**
 217:Drivers/STM32F0xx_HAL_Driver/Src/stm32f0xx_hal_dma.c ****   * @brief  DeInitialize the DMA peripheral 
 218:Drivers/STM32F0xx_HAL_Driver/Src/stm32f0xx_hal_dma.c ****   * @param  hdma pointer to a DMA_HandleTypeDef structure that contains
 219:Drivers/STM32F0xx_HAL_Driver/Src/stm32f0xx_hal_dma.c ****   *               the configuration information for the specified DMA Channel.  
 220:Drivers/STM32F0xx_HAL_Driver/Src/stm32f0xx_hal_dma.c ****   * @retval HAL status
 221:Drivers/STM32F0xx_HAL_Driver/Src/stm32f0xx_hal_dma.c ****   */
 222:Drivers/STM32F0xx_HAL_Driver/Src/stm32f0xx_hal_dma.c **** HAL_StatusTypeDef HAL_DMA_DeInit(DMA_HandleTypeDef *hdma)
 223:Drivers/STM32F0xx_HAL_Driver/Src/stm32f0xx_hal_dma.c **** {
 224:Drivers/STM32F0xx_HAL_Driver/Src/stm32f0xx_hal_dma.c ****   /* Check the DMA handle allocation */
 225:Drivers/STM32F0xx_HAL_Driver/Src/stm32f0xx_hal_dma.c ****   if(NULL == hdma)
 226:Drivers/STM32F0xx_HAL_Driver/Src/stm32f0xx_hal_dma.c ****   {
 227:Drivers/STM32F0xx_HAL_Driver/Src/stm32f0xx_hal_dma.c ****     return HAL_ERROR;
 228:Drivers/STM32F0xx_HAL_Driver/Src/stm32f0xx_hal_dma.c ****   }
 229:Drivers/STM32F0xx_HAL_Driver/Src/stm32f0xx_hal_dma.c ****   
 230:Drivers/STM32F0xx_HAL_Driver/Src/stm32f0xx_hal_dma.c ****   /* Check the parameters */
 231:Drivers/STM32F0xx_HAL_Driver/Src/stm32f0xx_hal_dma.c ****   assert_param(IS_DMA_ALL_INSTANCE(hdma->Instance));
 232:Drivers/STM32F0xx_HAL_Driver/Src/stm32f0xx_hal_dma.c **** 
 233:Drivers/STM32F0xx_HAL_Driver/Src/stm32f0xx_hal_dma.c ****   /* Disable the selected DMA Channelx */
 234:Drivers/STM32F0xx_HAL_Driver/Src/stm32f0xx_hal_dma.c ****   hdma->Instance->CCR &= ~DMA_CCR_EN;
 235:Drivers/STM32F0xx_HAL_Driver/Src/stm32f0xx_hal_dma.c **** 
 236:Drivers/STM32F0xx_HAL_Driver/Src/stm32f0xx_hal_dma.c ****   /* Reset DMA Channel control register */
 237:Drivers/STM32F0xx_HAL_Driver/Src/stm32f0xx_hal_dma.c ****   hdma->Instance->CCR  = 0U;
 238:Drivers/STM32F0xx_HAL_Driver/Src/stm32f0xx_hal_dma.c **** 
 239:Drivers/STM32F0xx_HAL_Driver/Src/stm32f0xx_hal_dma.c ****   /* Reset DMA Channel Number of Data to Transfer register */
 240:Drivers/STM32F0xx_HAL_Driver/Src/stm32f0xx_hal_dma.c ****   hdma->Instance->CNDTR = 0U;
 241:Drivers/STM32F0xx_HAL_Driver/Src/stm32f0xx_hal_dma.c **** 
 242:Drivers/STM32F0xx_HAL_Driver/Src/stm32f0xx_hal_dma.c ****   /* Reset DMA Channel peripheral address register */
 243:Drivers/STM32F0xx_HAL_Driver/Src/stm32f0xx_hal_dma.c ****   hdma->Instance->CPAR  = 0U;
 244:Drivers/STM32F0xx_HAL_Driver/Src/stm32f0xx_hal_dma.c ****   
 245:Drivers/STM32F0xx_HAL_Driver/Src/stm32f0xx_hal_dma.c ****   /* Reset DMA Channel memory address register */
 246:Drivers/STM32F0xx_HAL_Driver/Src/stm32f0xx_hal_dma.c ****   hdma->Instance->CMAR = 0U;
 247:Drivers/STM32F0xx_HAL_Driver/Src/stm32f0xx_hal_dma.c **** 
 248:Drivers/STM32F0xx_HAL_Driver/Src/stm32f0xx_hal_dma.c **** /* Get DMA Base Address */  
 249:Drivers/STM32F0xx_HAL_Driver/Src/stm32f0xx_hal_dma.c ****   DMA_CalcBaseAndBitshift(hdma);
 250:Drivers/STM32F0xx_HAL_Driver/Src/stm32f0xx_hal_dma.c **** 
 251:Drivers/STM32F0xx_HAL_Driver/Src/stm32f0xx_hal_dma.c ****   /* Clear all flags */
 252:Drivers/STM32F0xx_HAL_Driver/Src/stm32f0xx_hal_dma.c ****   hdma->DmaBaseAddress->IFCR = DMA_FLAG_GL1 << hdma->ChannelIndex;
 253:Drivers/STM32F0xx_HAL_Driver/Src/stm32f0xx_hal_dma.c **** 
 254:Drivers/STM32F0xx_HAL_Driver/Src/stm32f0xx_hal_dma.c ****   /* Initialize the error code */
 255:Drivers/STM32F0xx_HAL_Driver/Src/stm32f0xx_hal_dma.c ****   hdma->ErrorCode = HAL_DMA_ERROR_NONE;
 256:Drivers/STM32F0xx_HAL_Driver/Src/stm32f0xx_hal_dma.c **** 
 257:Drivers/STM32F0xx_HAL_Driver/Src/stm32f0xx_hal_dma.c ****   /* Initialize the DMA state */
 258:Drivers/STM32F0xx_HAL_Driver/Src/stm32f0xx_hal_dma.c ****   hdma->State = HAL_DMA_STATE_RESET;
 259:Drivers/STM32F0xx_HAL_Driver/Src/stm32f0xx_hal_dma.c **** 
 260:Drivers/STM32F0xx_HAL_Driver/Src/stm32f0xx_hal_dma.c ****   /* Release Lock */
ARM GAS  /tmp/ccsaPaYr.s 			page 6


 261:Drivers/STM32F0xx_HAL_Driver/Src/stm32f0xx_hal_dma.c ****   __HAL_UNLOCK(hdma);
 262:Drivers/STM32F0xx_HAL_Driver/Src/stm32f0xx_hal_dma.c **** 
 263:Drivers/STM32F0xx_HAL_Driver/Src/stm32f0xx_hal_dma.c ****   return HAL_OK;
 264:Drivers/STM32F0xx_HAL_Driver/Src/stm32f0xx_hal_dma.c **** }
 265:Drivers/STM32F0xx_HAL_Driver/Src/stm32f0xx_hal_dma.c **** 
 266:Drivers/STM32F0xx_HAL_Driver/Src/stm32f0xx_hal_dma.c **** /**
 267:Drivers/STM32F0xx_HAL_Driver/Src/stm32f0xx_hal_dma.c ****   * @}
 268:Drivers/STM32F0xx_HAL_Driver/Src/stm32f0xx_hal_dma.c ****   */
 269:Drivers/STM32F0xx_HAL_Driver/Src/stm32f0xx_hal_dma.c **** 
 270:Drivers/STM32F0xx_HAL_Driver/Src/stm32f0xx_hal_dma.c **** /** @defgroup DMA_Exported_Functions_Group2 Input and Output operation functions 
 271:Drivers/STM32F0xx_HAL_Driver/Src/stm32f0xx_hal_dma.c ****  *  @brief   I/O operation functions  
 272:Drivers/STM32F0xx_HAL_Driver/Src/stm32f0xx_hal_dma.c ****  *
 273:Drivers/STM32F0xx_HAL_Driver/Src/stm32f0xx_hal_dma.c **** @verbatim   
 274:Drivers/STM32F0xx_HAL_Driver/Src/stm32f0xx_hal_dma.c ****  ===============================================================================
 275:Drivers/STM32F0xx_HAL_Driver/Src/stm32f0xx_hal_dma.c ****                       #####  IO operation functions  #####
 276:Drivers/STM32F0xx_HAL_Driver/Src/stm32f0xx_hal_dma.c ****  ===============================================================================  
 277:Drivers/STM32F0xx_HAL_Driver/Src/stm32f0xx_hal_dma.c ****     [..]  This section provides functions allowing to:
 278:Drivers/STM32F0xx_HAL_Driver/Src/stm32f0xx_hal_dma.c ****       (+) Configure the source, destination address and data length and Start DMA transfer
 279:Drivers/STM32F0xx_HAL_Driver/Src/stm32f0xx_hal_dma.c ****       (+) Configure the source, destination address and data length and 
 280:Drivers/STM32F0xx_HAL_Driver/Src/stm32f0xx_hal_dma.c ****           Start DMA transfer with interrupt
 281:Drivers/STM32F0xx_HAL_Driver/Src/stm32f0xx_hal_dma.c ****       (+) Abort DMA transfer
 282:Drivers/STM32F0xx_HAL_Driver/Src/stm32f0xx_hal_dma.c ****       (+) Poll for transfer complete
 283:Drivers/STM32F0xx_HAL_Driver/Src/stm32f0xx_hal_dma.c ****       (+) Handle DMA interrupt request  
 284:Drivers/STM32F0xx_HAL_Driver/Src/stm32f0xx_hal_dma.c **** 
 285:Drivers/STM32F0xx_HAL_Driver/Src/stm32f0xx_hal_dma.c **** @endverbatim
 286:Drivers/STM32F0xx_HAL_Driver/Src/stm32f0xx_hal_dma.c ****   * @{
 287:Drivers/STM32F0xx_HAL_Driver/Src/stm32f0xx_hal_dma.c ****   */
 288:Drivers/STM32F0xx_HAL_Driver/Src/stm32f0xx_hal_dma.c **** 
 289:Drivers/STM32F0xx_HAL_Driver/Src/stm32f0xx_hal_dma.c **** /**
 290:Drivers/STM32F0xx_HAL_Driver/Src/stm32f0xx_hal_dma.c ****   * @brief  Start the DMA Transfer.
 291:Drivers/STM32F0xx_HAL_Driver/Src/stm32f0xx_hal_dma.c ****   * @param  hdma pointer to a DMA_HandleTypeDef structure that contains
 292:Drivers/STM32F0xx_HAL_Driver/Src/stm32f0xx_hal_dma.c ****   *              the configuration information for the specified DMA Channel.  
 293:Drivers/STM32F0xx_HAL_Driver/Src/stm32f0xx_hal_dma.c ****   * @param  SrcAddress The source memory Buffer address
 294:Drivers/STM32F0xx_HAL_Driver/Src/stm32f0xx_hal_dma.c ****   * @param  DstAddress The destination memory Buffer address
 295:Drivers/STM32F0xx_HAL_Driver/Src/stm32f0xx_hal_dma.c ****   * @param  DataLength The length of data to be transferred from source to destination
 296:Drivers/STM32F0xx_HAL_Driver/Src/stm32f0xx_hal_dma.c ****   * @retval HAL status
 297:Drivers/STM32F0xx_HAL_Driver/Src/stm32f0xx_hal_dma.c ****   */
 298:Drivers/STM32F0xx_HAL_Driver/Src/stm32f0xx_hal_dma.c **** HAL_StatusTypeDef HAL_DMA_Start(DMA_HandleTypeDef *hdma, uint32_t SrcAddress, uint32_t DstAddress, 
 299:Drivers/STM32F0xx_HAL_Driver/Src/stm32f0xx_hal_dma.c **** {
 300:Drivers/STM32F0xx_HAL_Driver/Src/stm32f0xx_hal_dma.c **** 	HAL_StatusTypeDef status = HAL_OK;
 301:Drivers/STM32F0xx_HAL_Driver/Src/stm32f0xx_hal_dma.c **** 
 302:Drivers/STM32F0xx_HAL_Driver/Src/stm32f0xx_hal_dma.c ****   /* Check the parameters */
 303:Drivers/STM32F0xx_HAL_Driver/Src/stm32f0xx_hal_dma.c ****   assert_param(IS_DMA_BUFFER_SIZE(DataLength));
 304:Drivers/STM32F0xx_HAL_Driver/Src/stm32f0xx_hal_dma.c ****   
 305:Drivers/STM32F0xx_HAL_Driver/Src/stm32f0xx_hal_dma.c ****   /* Process locked */
 306:Drivers/STM32F0xx_HAL_Driver/Src/stm32f0xx_hal_dma.c ****   __HAL_LOCK(hdma);
 307:Drivers/STM32F0xx_HAL_Driver/Src/stm32f0xx_hal_dma.c ****   
 308:Drivers/STM32F0xx_HAL_Driver/Src/stm32f0xx_hal_dma.c ****   if(HAL_DMA_STATE_READY == hdma->State)
 309:Drivers/STM32F0xx_HAL_Driver/Src/stm32f0xx_hal_dma.c ****   {
 310:Drivers/STM32F0xx_HAL_Driver/Src/stm32f0xx_hal_dma.c ****   	/* Change DMA peripheral state */  
 311:Drivers/STM32F0xx_HAL_Driver/Src/stm32f0xx_hal_dma.c ****   	hdma->State = HAL_DMA_STATE_BUSY;
 312:Drivers/STM32F0xx_HAL_Driver/Src/stm32f0xx_hal_dma.c ****   	
 313:Drivers/STM32F0xx_HAL_Driver/Src/stm32f0xx_hal_dma.c ****   	hdma->ErrorCode = HAL_DMA_ERROR_NONE;
 314:Drivers/STM32F0xx_HAL_Driver/Src/stm32f0xx_hal_dma.c ****   	
 315:Drivers/STM32F0xx_HAL_Driver/Src/stm32f0xx_hal_dma.c ****   	/* Disable the peripheral */
 316:Drivers/STM32F0xx_HAL_Driver/Src/stm32f0xx_hal_dma.c ****   	hdma->Instance->CCR &= ~DMA_CCR_EN;  
 317:Drivers/STM32F0xx_HAL_Driver/Src/stm32f0xx_hal_dma.c ****   	
ARM GAS  /tmp/ccsaPaYr.s 			page 7


 318:Drivers/STM32F0xx_HAL_Driver/Src/stm32f0xx_hal_dma.c ****   	/* Configure the source, destination address and the data length */
 319:Drivers/STM32F0xx_HAL_Driver/Src/stm32f0xx_hal_dma.c ****   	DMA_SetConfig(hdma, SrcAddress, DstAddress, DataLength);
 320:Drivers/STM32F0xx_HAL_Driver/Src/stm32f0xx_hal_dma.c ****   	
 321:Drivers/STM32F0xx_HAL_Driver/Src/stm32f0xx_hal_dma.c ****   	/* Enable the Peripheral */
 322:Drivers/STM32F0xx_HAL_Driver/Src/stm32f0xx_hal_dma.c ****   	hdma->Instance->CCR |= DMA_CCR_EN;  
 323:Drivers/STM32F0xx_HAL_Driver/Src/stm32f0xx_hal_dma.c ****   }
 324:Drivers/STM32F0xx_HAL_Driver/Src/stm32f0xx_hal_dma.c ****   else
 325:Drivers/STM32F0xx_HAL_Driver/Src/stm32f0xx_hal_dma.c ****   {
 326:Drivers/STM32F0xx_HAL_Driver/Src/stm32f0xx_hal_dma.c ****   	/* Process Unlocked */
 327:Drivers/STM32F0xx_HAL_Driver/Src/stm32f0xx_hal_dma.c ****   	__HAL_UNLOCK(hdma);
 328:Drivers/STM32F0xx_HAL_Driver/Src/stm32f0xx_hal_dma.c ****   	
 329:Drivers/STM32F0xx_HAL_Driver/Src/stm32f0xx_hal_dma.c ****   	/* Remain BUSY */
 330:Drivers/STM32F0xx_HAL_Driver/Src/stm32f0xx_hal_dma.c ****   	status = HAL_BUSY;
 331:Drivers/STM32F0xx_HAL_Driver/Src/stm32f0xx_hal_dma.c ****   }  
 332:Drivers/STM32F0xx_HAL_Driver/Src/stm32f0xx_hal_dma.c **** 
 333:Drivers/STM32F0xx_HAL_Driver/Src/stm32f0xx_hal_dma.c ****   return status; 
 334:Drivers/STM32F0xx_HAL_Driver/Src/stm32f0xx_hal_dma.c **** } 
 335:Drivers/STM32F0xx_HAL_Driver/Src/stm32f0xx_hal_dma.c **** 
 336:Drivers/STM32F0xx_HAL_Driver/Src/stm32f0xx_hal_dma.c **** /**
 337:Drivers/STM32F0xx_HAL_Driver/Src/stm32f0xx_hal_dma.c ****   * @brief  Start the DMA Transfer with interrupt enabled.
 338:Drivers/STM32F0xx_HAL_Driver/Src/stm32f0xx_hal_dma.c ****   * @param  hdma       pointer to a DMA_HandleTypeDef structure that contains
 339:Drivers/STM32F0xx_HAL_Driver/Src/stm32f0xx_hal_dma.c ****   *                     the configuration information for the specified DMA Channel.  
 340:Drivers/STM32F0xx_HAL_Driver/Src/stm32f0xx_hal_dma.c ****   * @param  SrcAddress The source memory Buffer address
 341:Drivers/STM32F0xx_HAL_Driver/Src/stm32f0xx_hal_dma.c ****   * @param  DstAddress The destination memory Buffer address
 342:Drivers/STM32F0xx_HAL_Driver/Src/stm32f0xx_hal_dma.c ****   * @param  DataLength The length of data to be transferred from source to destination
 343:Drivers/STM32F0xx_HAL_Driver/Src/stm32f0xx_hal_dma.c ****   * @retval HAL status
 344:Drivers/STM32F0xx_HAL_Driver/Src/stm32f0xx_hal_dma.c ****   */
 345:Drivers/STM32F0xx_HAL_Driver/Src/stm32f0xx_hal_dma.c **** HAL_StatusTypeDef HAL_DMA_Start_IT(DMA_HandleTypeDef *hdma, uint32_t SrcAddress, uint32_t DstAddres
 346:Drivers/STM32F0xx_HAL_Driver/Src/stm32f0xx_hal_dma.c **** {
 347:Drivers/STM32F0xx_HAL_Driver/Src/stm32f0xx_hal_dma.c **** 	HAL_StatusTypeDef status = HAL_OK;
 348:Drivers/STM32F0xx_HAL_Driver/Src/stm32f0xx_hal_dma.c **** 
 349:Drivers/STM32F0xx_HAL_Driver/Src/stm32f0xx_hal_dma.c ****   /* Check the parameters */
 350:Drivers/STM32F0xx_HAL_Driver/Src/stm32f0xx_hal_dma.c ****   assert_param(IS_DMA_BUFFER_SIZE(DataLength));
 351:Drivers/STM32F0xx_HAL_Driver/Src/stm32f0xx_hal_dma.c ****   
 352:Drivers/STM32F0xx_HAL_Driver/Src/stm32f0xx_hal_dma.c ****   /* Process locked */
 353:Drivers/STM32F0xx_HAL_Driver/Src/stm32f0xx_hal_dma.c ****   __HAL_LOCK(hdma);
 354:Drivers/STM32F0xx_HAL_Driver/Src/stm32f0xx_hal_dma.c ****   
 355:Drivers/STM32F0xx_HAL_Driver/Src/stm32f0xx_hal_dma.c ****   if(HAL_DMA_STATE_READY == hdma->State)
 356:Drivers/STM32F0xx_HAL_Driver/Src/stm32f0xx_hal_dma.c ****   {
 357:Drivers/STM32F0xx_HAL_Driver/Src/stm32f0xx_hal_dma.c ****   	/* Change DMA peripheral state */  
 358:Drivers/STM32F0xx_HAL_Driver/Src/stm32f0xx_hal_dma.c ****   	hdma->State = HAL_DMA_STATE_BUSY;
 359:Drivers/STM32F0xx_HAL_Driver/Src/stm32f0xx_hal_dma.c ****   	
 360:Drivers/STM32F0xx_HAL_Driver/Src/stm32f0xx_hal_dma.c ****   	hdma->ErrorCode = HAL_DMA_ERROR_NONE;
 361:Drivers/STM32F0xx_HAL_Driver/Src/stm32f0xx_hal_dma.c ****   	
 362:Drivers/STM32F0xx_HAL_Driver/Src/stm32f0xx_hal_dma.c ****   	/* Disable the peripheral */
 363:Drivers/STM32F0xx_HAL_Driver/Src/stm32f0xx_hal_dma.c ****   	hdma->Instance->CCR &= ~DMA_CCR_EN;
 364:Drivers/STM32F0xx_HAL_Driver/Src/stm32f0xx_hal_dma.c ****   	
 365:Drivers/STM32F0xx_HAL_Driver/Src/stm32f0xx_hal_dma.c ****   	/* Configure the source, destination address and the data length */  
 366:Drivers/STM32F0xx_HAL_Driver/Src/stm32f0xx_hal_dma.c ****   	DMA_SetConfig(hdma, SrcAddress, DstAddress, DataLength);
 367:Drivers/STM32F0xx_HAL_Driver/Src/stm32f0xx_hal_dma.c ****   	
 368:Drivers/STM32F0xx_HAL_Driver/Src/stm32f0xx_hal_dma.c ****   	/* Enable the transfer complete, & transfer error interrupts */
 369:Drivers/STM32F0xx_HAL_Driver/Src/stm32f0xx_hal_dma.c ****   	/* Half transfer interrupt is optional: enable it only if associated callback is available */
 370:Drivers/STM32F0xx_HAL_Driver/Src/stm32f0xx_hal_dma.c ****     if(NULL != hdma->XferHalfCpltCallback )
 371:Drivers/STM32F0xx_HAL_Driver/Src/stm32f0xx_hal_dma.c ****     {
 372:Drivers/STM32F0xx_HAL_Driver/Src/stm32f0xx_hal_dma.c ****       hdma->Instance->CCR |= (DMA_IT_TC | DMA_IT_HT | DMA_IT_TE);
 373:Drivers/STM32F0xx_HAL_Driver/Src/stm32f0xx_hal_dma.c ****     }
 374:Drivers/STM32F0xx_HAL_Driver/Src/stm32f0xx_hal_dma.c ****   	else
ARM GAS  /tmp/ccsaPaYr.s 			page 8


 375:Drivers/STM32F0xx_HAL_Driver/Src/stm32f0xx_hal_dma.c ****   	{
 376:Drivers/STM32F0xx_HAL_Driver/Src/stm32f0xx_hal_dma.c ****   		hdma->Instance->CCR |= (DMA_IT_TC | DMA_IT_TE);
 377:Drivers/STM32F0xx_HAL_Driver/Src/stm32f0xx_hal_dma.c ****   		hdma->Instance->CCR &= ~DMA_IT_HT;
 378:Drivers/STM32F0xx_HAL_Driver/Src/stm32f0xx_hal_dma.c ****   	}
 379:Drivers/STM32F0xx_HAL_Driver/Src/stm32f0xx_hal_dma.c ****   	
 380:Drivers/STM32F0xx_HAL_Driver/Src/stm32f0xx_hal_dma.c ****   	/* Enable the Peripheral */
 381:Drivers/STM32F0xx_HAL_Driver/Src/stm32f0xx_hal_dma.c ****   	hdma->Instance->CCR |= DMA_CCR_EN;
 382:Drivers/STM32F0xx_HAL_Driver/Src/stm32f0xx_hal_dma.c ****   }
 383:Drivers/STM32F0xx_HAL_Driver/Src/stm32f0xx_hal_dma.c ****   else
 384:Drivers/STM32F0xx_HAL_Driver/Src/stm32f0xx_hal_dma.c ****   {
 385:Drivers/STM32F0xx_HAL_Driver/Src/stm32f0xx_hal_dma.c ****   	/* Process Unlocked */
 386:Drivers/STM32F0xx_HAL_Driver/Src/stm32f0xx_hal_dma.c ****     __HAL_UNLOCK(hdma); 
 387:Drivers/STM32F0xx_HAL_Driver/Src/stm32f0xx_hal_dma.c ****   
 388:Drivers/STM32F0xx_HAL_Driver/Src/stm32f0xx_hal_dma.c ****     /* Remain BUSY */
 389:Drivers/STM32F0xx_HAL_Driver/Src/stm32f0xx_hal_dma.c ****     status = HAL_BUSY;
 390:Drivers/STM32F0xx_HAL_Driver/Src/stm32f0xx_hal_dma.c ****   }     
 391:Drivers/STM32F0xx_HAL_Driver/Src/stm32f0xx_hal_dma.c ****   
 392:Drivers/STM32F0xx_HAL_Driver/Src/stm32f0xx_hal_dma.c ****   return status;    
 393:Drivers/STM32F0xx_HAL_Driver/Src/stm32f0xx_hal_dma.c **** } 
 394:Drivers/STM32F0xx_HAL_Driver/Src/stm32f0xx_hal_dma.c **** 
 395:Drivers/STM32F0xx_HAL_Driver/Src/stm32f0xx_hal_dma.c **** /**
 396:Drivers/STM32F0xx_HAL_Driver/Src/stm32f0xx_hal_dma.c ****   * @brief  Abort the DMA Transfer.
 397:Drivers/STM32F0xx_HAL_Driver/Src/stm32f0xx_hal_dma.c ****   * @param  hdma  pointer to a DMA_HandleTypeDef structure that contains
 398:Drivers/STM32F0xx_HAL_Driver/Src/stm32f0xx_hal_dma.c ****   *               the configuration information for the specified DMA Channel.                  
 399:Drivers/STM32F0xx_HAL_Driver/Src/stm32f0xx_hal_dma.c ****   * @retval HAL status
 400:Drivers/STM32F0xx_HAL_Driver/Src/stm32f0xx_hal_dma.c ****   */
 401:Drivers/STM32F0xx_HAL_Driver/Src/stm32f0xx_hal_dma.c **** HAL_StatusTypeDef HAL_DMA_Abort(DMA_HandleTypeDef *hdma)
 402:Drivers/STM32F0xx_HAL_Driver/Src/stm32f0xx_hal_dma.c **** {
 403:Drivers/STM32F0xx_HAL_Driver/Src/stm32f0xx_hal_dma.c **** 	/* Disable DMA IT */
 404:Drivers/STM32F0xx_HAL_Driver/Src/stm32f0xx_hal_dma.c **** 	 hdma->Instance->CCR &= ~(DMA_IT_TC | DMA_IT_HT | DMA_IT_TE);
 405:Drivers/STM32F0xx_HAL_Driver/Src/stm32f0xx_hal_dma.c **** 	
 406:Drivers/STM32F0xx_HAL_Driver/Src/stm32f0xx_hal_dma.c **** 	/* Disable the channel */
 407:Drivers/STM32F0xx_HAL_Driver/Src/stm32f0xx_hal_dma.c **** 	hdma->Instance->CCR &= ~DMA_CCR_EN;
 408:Drivers/STM32F0xx_HAL_Driver/Src/stm32f0xx_hal_dma.c **** 	
 409:Drivers/STM32F0xx_HAL_Driver/Src/stm32f0xx_hal_dma.c **** 	/* Clear all flags */
 410:Drivers/STM32F0xx_HAL_Driver/Src/stm32f0xx_hal_dma.c **** 	hdma->DmaBaseAddress->IFCR = (DMA_FLAG_GL1 << hdma->ChannelIndex);
 411:Drivers/STM32F0xx_HAL_Driver/Src/stm32f0xx_hal_dma.c **** 	
 412:Drivers/STM32F0xx_HAL_Driver/Src/stm32f0xx_hal_dma.c **** 	/* Change the DMA state*/
 413:Drivers/STM32F0xx_HAL_Driver/Src/stm32f0xx_hal_dma.c **** 	hdma->State = HAL_DMA_STATE_READY; 
 414:Drivers/STM32F0xx_HAL_Driver/Src/stm32f0xx_hal_dma.c **** 	
 415:Drivers/STM32F0xx_HAL_Driver/Src/stm32f0xx_hal_dma.c **** 	/* Process Unlocked */
 416:Drivers/STM32F0xx_HAL_Driver/Src/stm32f0xx_hal_dma.c **** 	__HAL_UNLOCK(hdma);
 417:Drivers/STM32F0xx_HAL_Driver/Src/stm32f0xx_hal_dma.c **** 	
 418:Drivers/STM32F0xx_HAL_Driver/Src/stm32f0xx_hal_dma.c **** 	return HAL_OK; 
 419:Drivers/STM32F0xx_HAL_Driver/Src/stm32f0xx_hal_dma.c **** }
 420:Drivers/STM32F0xx_HAL_Driver/Src/stm32f0xx_hal_dma.c **** 
 421:Drivers/STM32F0xx_HAL_Driver/Src/stm32f0xx_hal_dma.c **** /**
 422:Drivers/STM32F0xx_HAL_Driver/Src/stm32f0xx_hal_dma.c ****   * @brief  Abort the DMA Transfer in Interrupt mode.
 423:Drivers/STM32F0xx_HAL_Driver/Src/stm32f0xx_hal_dma.c ****   * @param  hdma  pointer to a DMA_HandleTypeDef structure that contains
 424:Drivers/STM32F0xx_HAL_Driver/Src/stm32f0xx_hal_dma.c ****   *               the configuration information for the specified DMA Stream.
 425:Drivers/STM32F0xx_HAL_Driver/Src/stm32f0xx_hal_dma.c ****   * @retval HAL status
 426:Drivers/STM32F0xx_HAL_Driver/Src/stm32f0xx_hal_dma.c ****   */
 427:Drivers/STM32F0xx_HAL_Driver/Src/stm32f0xx_hal_dma.c **** HAL_StatusTypeDef HAL_DMA_Abort_IT(DMA_HandleTypeDef *hdma)
 428:Drivers/STM32F0xx_HAL_Driver/Src/stm32f0xx_hal_dma.c **** {  
 429:Drivers/STM32F0xx_HAL_Driver/Src/stm32f0xx_hal_dma.c ****   HAL_StatusTypeDef status = HAL_OK;
 430:Drivers/STM32F0xx_HAL_Driver/Src/stm32f0xx_hal_dma.c ****   
 431:Drivers/STM32F0xx_HAL_Driver/Src/stm32f0xx_hal_dma.c ****   if(HAL_DMA_STATE_BUSY != hdma->State)
ARM GAS  /tmp/ccsaPaYr.s 			page 9


 432:Drivers/STM32F0xx_HAL_Driver/Src/stm32f0xx_hal_dma.c ****   {
 433:Drivers/STM32F0xx_HAL_Driver/Src/stm32f0xx_hal_dma.c ****     /* no transfer ongoing */
 434:Drivers/STM32F0xx_HAL_Driver/Src/stm32f0xx_hal_dma.c ****     hdma->ErrorCode = HAL_DMA_ERROR_NO_XFER;
 435:Drivers/STM32F0xx_HAL_Driver/Src/stm32f0xx_hal_dma.c ****         
 436:Drivers/STM32F0xx_HAL_Driver/Src/stm32f0xx_hal_dma.c ****     status = HAL_ERROR;
 437:Drivers/STM32F0xx_HAL_Driver/Src/stm32f0xx_hal_dma.c ****   }
 438:Drivers/STM32F0xx_HAL_Driver/Src/stm32f0xx_hal_dma.c ****   else
 439:Drivers/STM32F0xx_HAL_Driver/Src/stm32f0xx_hal_dma.c ****   { 
 440:Drivers/STM32F0xx_HAL_Driver/Src/stm32f0xx_hal_dma.c ****   
 441:Drivers/STM32F0xx_HAL_Driver/Src/stm32f0xx_hal_dma.c ****     /* Disable DMA IT */
 442:Drivers/STM32F0xx_HAL_Driver/Src/stm32f0xx_hal_dma.c ****     hdma->Instance->CCR &= ~(DMA_IT_TC | DMA_IT_HT | DMA_IT_TE);
 443:Drivers/STM32F0xx_HAL_Driver/Src/stm32f0xx_hal_dma.c ****     
 444:Drivers/STM32F0xx_HAL_Driver/Src/stm32f0xx_hal_dma.c ****     /* Disable the channel */
 445:Drivers/STM32F0xx_HAL_Driver/Src/stm32f0xx_hal_dma.c ****     hdma->Instance->CCR &= ~DMA_CCR_EN;
 446:Drivers/STM32F0xx_HAL_Driver/Src/stm32f0xx_hal_dma.c ****     
 447:Drivers/STM32F0xx_HAL_Driver/Src/stm32f0xx_hal_dma.c ****     /* Clear all flags */
 448:Drivers/STM32F0xx_HAL_Driver/Src/stm32f0xx_hal_dma.c ****     hdma->DmaBaseAddress->IFCR = DMA_FLAG_GL1 << hdma->ChannelIndex;
 449:Drivers/STM32F0xx_HAL_Driver/Src/stm32f0xx_hal_dma.c ****     
 450:Drivers/STM32F0xx_HAL_Driver/Src/stm32f0xx_hal_dma.c ****     /* Change the DMA state */
 451:Drivers/STM32F0xx_HAL_Driver/Src/stm32f0xx_hal_dma.c ****     hdma->State = HAL_DMA_STATE_READY;
 452:Drivers/STM32F0xx_HAL_Driver/Src/stm32f0xx_hal_dma.c ****     
 453:Drivers/STM32F0xx_HAL_Driver/Src/stm32f0xx_hal_dma.c ****     /* Process Unlocked */
 454:Drivers/STM32F0xx_HAL_Driver/Src/stm32f0xx_hal_dma.c ****     __HAL_UNLOCK(hdma);
 455:Drivers/STM32F0xx_HAL_Driver/Src/stm32f0xx_hal_dma.c ****     
 456:Drivers/STM32F0xx_HAL_Driver/Src/stm32f0xx_hal_dma.c ****     /* Call User Abort callback */ 
 457:Drivers/STM32F0xx_HAL_Driver/Src/stm32f0xx_hal_dma.c ****     if(hdma->XferAbortCallback != NULL)
 458:Drivers/STM32F0xx_HAL_Driver/Src/stm32f0xx_hal_dma.c ****     {
 459:Drivers/STM32F0xx_HAL_Driver/Src/stm32f0xx_hal_dma.c ****       hdma->XferAbortCallback(hdma);
 460:Drivers/STM32F0xx_HAL_Driver/Src/stm32f0xx_hal_dma.c ****     } 
 461:Drivers/STM32F0xx_HAL_Driver/Src/stm32f0xx_hal_dma.c ****   }
 462:Drivers/STM32F0xx_HAL_Driver/Src/stm32f0xx_hal_dma.c ****   return status;
 463:Drivers/STM32F0xx_HAL_Driver/Src/stm32f0xx_hal_dma.c **** }
 464:Drivers/STM32F0xx_HAL_Driver/Src/stm32f0xx_hal_dma.c **** 
 465:Drivers/STM32F0xx_HAL_Driver/Src/stm32f0xx_hal_dma.c **** /**
 466:Drivers/STM32F0xx_HAL_Driver/Src/stm32f0xx_hal_dma.c ****   * @brief  Polling for transfer complete.
 467:Drivers/STM32F0xx_HAL_Driver/Src/stm32f0xx_hal_dma.c ****   * @param  hdma    pointer to a DMA_HandleTypeDef structure that contains
 468:Drivers/STM32F0xx_HAL_Driver/Src/stm32f0xx_hal_dma.c ****   *                  the configuration information for the specified DMA Channel.
 469:Drivers/STM32F0xx_HAL_Driver/Src/stm32f0xx_hal_dma.c ****   * @param  CompleteLevel Specifies the DMA level complete.  
 470:Drivers/STM32F0xx_HAL_Driver/Src/stm32f0xx_hal_dma.c ****   * @param  Timeout       Timeout duration.
 471:Drivers/STM32F0xx_HAL_Driver/Src/stm32f0xx_hal_dma.c ****   * @retval HAL status
 472:Drivers/STM32F0xx_HAL_Driver/Src/stm32f0xx_hal_dma.c ****   */
 473:Drivers/STM32F0xx_HAL_Driver/Src/stm32f0xx_hal_dma.c **** HAL_StatusTypeDef HAL_DMA_PollForTransfer(DMA_HandleTypeDef *hdma, uint32_t CompleteLevel, uint32_t
 474:Drivers/STM32F0xx_HAL_Driver/Src/stm32f0xx_hal_dma.c **** {
 475:Drivers/STM32F0xx_HAL_Driver/Src/stm32f0xx_hal_dma.c ****   uint32_t temp;
 476:Drivers/STM32F0xx_HAL_Driver/Src/stm32f0xx_hal_dma.c ****   uint32_t tickstart = 0U;
 477:Drivers/STM32F0xx_HAL_Driver/Src/stm32f0xx_hal_dma.c ****   
 478:Drivers/STM32F0xx_HAL_Driver/Src/stm32f0xx_hal_dma.c ****   if(HAL_DMA_STATE_BUSY != hdma->State)
 479:Drivers/STM32F0xx_HAL_Driver/Src/stm32f0xx_hal_dma.c ****   {
 480:Drivers/STM32F0xx_HAL_Driver/Src/stm32f0xx_hal_dma.c ****     /* no transfer ongoing */
 481:Drivers/STM32F0xx_HAL_Driver/Src/stm32f0xx_hal_dma.c ****     hdma->ErrorCode = HAL_DMA_ERROR_NO_XFER;
 482:Drivers/STM32F0xx_HAL_Driver/Src/stm32f0xx_hal_dma.c ****     __HAL_UNLOCK(hdma);
 483:Drivers/STM32F0xx_HAL_Driver/Src/stm32f0xx_hal_dma.c ****     return HAL_ERROR;
 484:Drivers/STM32F0xx_HAL_Driver/Src/stm32f0xx_hal_dma.c ****   }
 485:Drivers/STM32F0xx_HAL_Driver/Src/stm32f0xx_hal_dma.c ****   
 486:Drivers/STM32F0xx_HAL_Driver/Src/stm32f0xx_hal_dma.c ****   /* Polling mode not supported in circular mode */
 487:Drivers/STM32F0xx_HAL_Driver/Src/stm32f0xx_hal_dma.c ****   if (RESET != (hdma->Instance->CCR & DMA_CCR_CIRC))
 488:Drivers/STM32F0xx_HAL_Driver/Src/stm32f0xx_hal_dma.c ****   {
ARM GAS  /tmp/ccsaPaYr.s 			page 10


 489:Drivers/STM32F0xx_HAL_Driver/Src/stm32f0xx_hal_dma.c ****     hdma->ErrorCode = HAL_DMA_ERROR_NOT_SUPPORTED;
 490:Drivers/STM32F0xx_HAL_Driver/Src/stm32f0xx_hal_dma.c ****     return HAL_ERROR;
 491:Drivers/STM32F0xx_HAL_Driver/Src/stm32f0xx_hal_dma.c ****   }
 492:Drivers/STM32F0xx_HAL_Driver/Src/stm32f0xx_hal_dma.c ****   
 493:Drivers/STM32F0xx_HAL_Driver/Src/stm32f0xx_hal_dma.c ****   /* Get the level transfer complete flag */
 494:Drivers/STM32F0xx_HAL_Driver/Src/stm32f0xx_hal_dma.c ****   if(HAL_DMA_FULL_TRANSFER == CompleteLevel)
 495:Drivers/STM32F0xx_HAL_Driver/Src/stm32f0xx_hal_dma.c ****   {
 496:Drivers/STM32F0xx_HAL_Driver/Src/stm32f0xx_hal_dma.c ****     /* Transfer Complete flag */
 497:Drivers/STM32F0xx_HAL_Driver/Src/stm32f0xx_hal_dma.c ****     temp = DMA_FLAG_TC1 << hdma->ChannelIndex;
 498:Drivers/STM32F0xx_HAL_Driver/Src/stm32f0xx_hal_dma.c ****   }
 499:Drivers/STM32F0xx_HAL_Driver/Src/stm32f0xx_hal_dma.c ****   else
 500:Drivers/STM32F0xx_HAL_Driver/Src/stm32f0xx_hal_dma.c ****   {
 501:Drivers/STM32F0xx_HAL_Driver/Src/stm32f0xx_hal_dma.c ****     /* Half Transfer Complete flag */
 502:Drivers/STM32F0xx_HAL_Driver/Src/stm32f0xx_hal_dma.c ****     temp = DMA_FLAG_HT1 << hdma->ChannelIndex;
 503:Drivers/STM32F0xx_HAL_Driver/Src/stm32f0xx_hal_dma.c ****   }
 504:Drivers/STM32F0xx_HAL_Driver/Src/stm32f0xx_hal_dma.c **** 
 505:Drivers/STM32F0xx_HAL_Driver/Src/stm32f0xx_hal_dma.c ****   /* Get tick */
 506:Drivers/STM32F0xx_HAL_Driver/Src/stm32f0xx_hal_dma.c ****   tickstart = HAL_GetTick();
 507:Drivers/STM32F0xx_HAL_Driver/Src/stm32f0xx_hal_dma.c **** 
 508:Drivers/STM32F0xx_HAL_Driver/Src/stm32f0xx_hal_dma.c ****   while(RESET == (hdma->DmaBaseAddress->ISR & temp))
 509:Drivers/STM32F0xx_HAL_Driver/Src/stm32f0xx_hal_dma.c ****   {
 510:Drivers/STM32F0xx_HAL_Driver/Src/stm32f0xx_hal_dma.c ****     if(RESET != (hdma->DmaBaseAddress->ISR & (DMA_FLAG_TE1 << hdma->ChannelIndex)))
 511:Drivers/STM32F0xx_HAL_Driver/Src/stm32f0xx_hal_dma.c ****     {      
 512:Drivers/STM32F0xx_HAL_Driver/Src/stm32f0xx_hal_dma.c ****       /* When a DMA transfer error occurs */
 513:Drivers/STM32F0xx_HAL_Driver/Src/stm32f0xx_hal_dma.c ****       /* A hardware clear of its EN bits is performed */
 514:Drivers/STM32F0xx_HAL_Driver/Src/stm32f0xx_hal_dma.c ****       /* Clear all flags */
 515:Drivers/STM32F0xx_HAL_Driver/Src/stm32f0xx_hal_dma.c ****       hdma->DmaBaseAddress->IFCR = DMA_FLAG_GL1 << hdma->ChannelIndex;
 516:Drivers/STM32F0xx_HAL_Driver/Src/stm32f0xx_hal_dma.c ****       
 517:Drivers/STM32F0xx_HAL_Driver/Src/stm32f0xx_hal_dma.c ****       /* Update error code */
 518:Drivers/STM32F0xx_HAL_Driver/Src/stm32f0xx_hal_dma.c ****       hdma->ErrorCode = HAL_DMA_ERROR_TE;
 519:Drivers/STM32F0xx_HAL_Driver/Src/stm32f0xx_hal_dma.c **** 
 520:Drivers/STM32F0xx_HAL_Driver/Src/stm32f0xx_hal_dma.c ****       /* Change the DMA state */
 521:Drivers/STM32F0xx_HAL_Driver/Src/stm32f0xx_hal_dma.c ****       hdma->State= HAL_DMA_STATE_READY;       
 522:Drivers/STM32F0xx_HAL_Driver/Src/stm32f0xx_hal_dma.c ****       
 523:Drivers/STM32F0xx_HAL_Driver/Src/stm32f0xx_hal_dma.c ****       /* Process Unlocked */
 524:Drivers/STM32F0xx_HAL_Driver/Src/stm32f0xx_hal_dma.c ****       __HAL_UNLOCK(hdma);
 525:Drivers/STM32F0xx_HAL_Driver/Src/stm32f0xx_hal_dma.c ****       
 526:Drivers/STM32F0xx_HAL_Driver/Src/stm32f0xx_hal_dma.c ****       return HAL_ERROR;      
 527:Drivers/STM32F0xx_HAL_Driver/Src/stm32f0xx_hal_dma.c ****     }      
 528:Drivers/STM32F0xx_HAL_Driver/Src/stm32f0xx_hal_dma.c ****     /* Check for the Timeout */
 529:Drivers/STM32F0xx_HAL_Driver/Src/stm32f0xx_hal_dma.c ****     if(Timeout != HAL_MAX_DELAY)
 530:Drivers/STM32F0xx_HAL_Driver/Src/stm32f0xx_hal_dma.c ****     {
 531:Drivers/STM32F0xx_HAL_Driver/Src/stm32f0xx_hal_dma.c ****       if((Timeout == 0U) || ((HAL_GetTick() - tickstart) > Timeout))
 532:Drivers/STM32F0xx_HAL_Driver/Src/stm32f0xx_hal_dma.c ****       {
 533:Drivers/STM32F0xx_HAL_Driver/Src/stm32f0xx_hal_dma.c ****         /* Update error code */
 534:Drivers/STM32F0xx_HAL_Driver/Src/stm32f0xx_hal_dma.c ****         hdma->ErrorCode = HAL_DMA_ERROR_TIMEOUT;
 535:Drivers/STM32F0xx_HAL_Driver/Src/stm32f0xx_hal_dma.c ****         
 536:Drivers/STM32F0xx_HAL_Driver/Src/stm32f0xx_hal_dma.c ****         /* Change the DMA state */
 537:Drivers/STM32F0xx_HAL_Driver/Src/stm32f0xx_hal_dma.c ****         hdma->State = HAL_DMA_STATE_READY;
 538:Drivers/STM32F0xx_HAL_Driver/Src/stm32f0xx_hal_dma.c **** 
 539:Drivers/STM32F0xx_HAL_Driver/Src/stm32f0xx_hal_dma.c ****         /* Process Unlocked */
 540:Drivers/STM32F0xx_HAL_Driver/Src/stm32f0xx_hal_dma.c ****         __HAL_UNLOCK(hdma);
 541:Drivers/STM32F0xx_HAL_Driver/Src/stm32f0xx_hal_dma.c **** 
 542:Drivers/STM32F0xx_HAL_Driver/Src/stm32f0xx_hal_dma.c ****         return HAL_ERROR;
 543:Drivers/STM32F0xx_HAL_Driver/Src/stm32f0xx_hal_dma.c ****       }
 544:Drivers/STM32F0xx_HAL_Driver/Src/stm32f0xx_hal_dma.c ****     }
 545:Drivers/STM32F0xx_HAL_Driver/Src/stm32f0xx_hal_dma.c ****   }
ARM GAS  /tmp/ccsaPaYr.s 			page 11


 546:Drivers/STM32F0xx_HAL_Driver/Src/stm32f0xx_hal_dma.c **** 
 547:Drivers/STM32F0xx_HAL_Driver/Src/stm32f0xx_hal_dma.c ****   if(HAL_DMA_FULL_TRANSFER == CompleteLevel)
 548:Drivers/STM32F0xx_HAL_Driver/Src/stm32f0xx_hal_dma.c ****   {
 549:Drivers/STM32F0xx_HAL_Driver/Src/stm32f0xx_hal_dma.c ****     /* Clear the transfer complete flag */
 550:Drivers/STM32F0xx_HAL_Driver/Src/stm32f0xx_hal_dma.c ****     hdma->DmaBaseAddress->IFCR = DMA_FLAG_TC1 << hdma->ChannelIndex;
 551:Drivers/STM32F0xx_HAL_Driver/Src/stm32f0xx_hal_dma.c **** 
 552:Drivers/STM32F0xx_HAL_Driver/Src/stm32f0xx_hal_dma.c ****     /* The selected Channelx EN bit is cleared (DMA is disabled and 
 553:Drivers/STM32F0xx_HAL_Driver/Src/stm32f0xx_hal_dma.c ****     all transfers are complete) */
 554:Drivers/STM32F0xx_HAL_Driver/Src/stm32f0xx_hal_dma.c ****     hdma->State = HAL_DMA_STATE_READY;
 555:Drivers/STM32F0xx_HAL_Driver/Src/stm32f0xx_hal_dma.c ****   }
 556:Drivers/STM32F0xx_HAL_Driver/Src/stm32f0xx_hal_dma.c ****   else
 557:Drivers/STM32F0xx_HAL_Driver/Src/stm32f0xx_hal_dma.c ****   { 
 558:Drivers/STM32F0xx_HAL_Driver/Src/stm32f0xx_hal_dma.c ****     /* Clear the half transfer complete flag */
 559:Drivers/STM32F0xx_HAL_Driver/Src/stm32f0xx_hal_dma.c ****     hdma->DmaBaseAddress->IFCR = DMA_FLAG_HT1 << hdma->ChannelIndex;
 560:Drivers/STM32F0xx_HAL_Driver/Src/stm32f0xx_hal_dma.c ****   }
 561:Drivers/STM32F0xx_HAL_Driver/Src/stm32f0xx_hal_dma.c ****   
 562:Drivers/STM32F0xx_HAL_Driver/Src/stm32f0xx_hal_dma.c ****   /* Process unlocked */
 563:Drivers/STM32F0xx_HAL_Driver/Src/stm32f0xx_hal_dma.c ****   __HAL_UNLOCK(hdma);  
 564:Drivers/STM32F0xx_HAL_Driver/Src/stm32f0xx_hal_dma.c **** 
 565:Drivers/STM32F0xx_HAL_Driver/Src/stm32f0xx_hal_dma.c ****   return HAL_OK;
 566:Drivers/STM32F0xx_HAL_Driver/Src/stm32f0xx_hal_dma.c **** }
 567:Drivers/STM32F0xx_HAL_Driver/Src/stm32f0xx_hal_dma.c **** 
 568:Drivers/STM32F0xx_HAL_Driver/Src/stm32f0xx_hal_dma.c **** /**
 569:Drivers/STM32F0xx_HAL_Driver/Src/stm32f0xx_hal_dma.c ****   * @brief  Handle DMA interrupt request.
 570:Drivers/STM32F0xx_HAL_Driver/Src/stm32f0xx_hal_dma.c ****   * @param  hdma pointer to a DMA_HandleTypeDef structure that contains
 571:Drivers/STM32F0xx_HAL_Driver/Src/stm32f0xx_hal_dma.c ****   *               the configuration information for the specified DMA Channel.  
 572:Drivers/STM32F0xx_HAL_Driver/Src/stm32f0xx_hal_dma.c ****   * @retval None
 573:Drivers/STM32F0xx_HAL_Driver/Src/stm32f0xx_hal_dma.c ****   */
 574:Drivers/STM32F0xx_HAL_Driver/Src/stm32f0xx_hal_dma.c **** void HAL_DMA_IRQHandler(DMA_HandleTypeDef *hdma)
 575:Drivers/STM32F0xx_HAL_Driver/Src/stm32f0xx_hal_dma.c **** {
 576:Drivers/STM32F0xx_HAL_Driver/Src/stm32f0xx_hal_dma.c **** 	uint32_t flag_it = hdma->DmaBaseAddress->ISR;
 577:Drivers/STM32F0xx_HAL_Driver/Src/stm32f0xx_hal_dma.c ****   uint32_t source_it = hdma->Instance->CCR;
 578:Drivers/STM32F0xx_HAL_Driver/Src/stm32f0xx_hal_dma.c ****           
 579:Drivers/STM32F0xx_HAL_Driver/Src/stm32f0xx_hal_dma.c ****   /* Half Transfer Complete Interrupt management ******************************/
 580:Drivers/STM32F0xx_HAL_Driver/Src/stm32f0xx_hal_dma.c ****   if ((RESET != (flag_it & (DMA_FLAG_HT1 << hdma->ChannelIndex))) && (RESET != (source_it & DMA_IT_
 581:Drivers/STM32F0xx_HAL_Driver/Src/stm32f0xx_hal_dma.c ****   {
 582:Drivers/STM32F0xx_HAL_Driver/Src/stm32f0xx_hal_dma.c ****   	/* Disable the half transfer interrupt if the DMA mode is not CIRCULAR */
 583:Drivers/STM32F0xx_HAL_Driver/Src/stm32f0xx_hal_dma.c ****   	if((hdma->Instance->CCR & DMA_CCR_CIRC) == 0U)
 584:Drivers/STM32F0xx_HAL_Driver/Src/stm32f0xx_hal_dma.c ****   	{
 585:Drivers/STM32F0xx_HAL_Driver/Src/stm32f0xx_hal_dma.c ****   		/* Disable the half transfer interrupt */
 586:Drivers/STM32F0xx_HAL_Driver/Src/stm32f0xx_hal_dma.c ****   		hdma->Instance->CCR &= ~DMA_IT_HT;
 587:Drivers/STM32F0xx_HAL_Driver/Src/stm32f0xx_hal_dma.c ****   	}
 588:Drivers/STM32F0xx_HAL_Driver/Src/stm32f0xx_hal_dma.c ****   	
 589:Drivers/STM32F0xx_HAL_Driver/Src/stm32f0xx_hal_dma.c ****   	/* Clear the half transfer complete flag */
 590:Drivers/STM32F0xx_HAL_Driver/Src/stm32f0xx_hal_dma.c ****   	hdma->DmaBaseAddress->IFCR = DMA_FLAG_HT1 << hdma->ChannelIndex;
 591:Drivers/STM32F0xx_HAL_Driver/Src/stm32f0xx_hal_dma.c ****   	
 592:Drivers/STM32F0xx_HAL_Driver/Src/stm32f0xx_hal_dma.c ****   	/* DMA peripheral state is not updated in Half Transfer */
 593:Drivers/STM32F0xx_HAL_Driver/Src/stm32f0xx_hal_dma.c ****   	/* State is updated only in Transfer Complete case */
 594:Drivers/STM32F0xx_HAL_Driver/Src/stm32f0xx_hal_dma.c ****   	
 595:Drivers/STM32F0xx_HAL_Driver/Src/stm32f0xx_hal_dma.c ****   	if(hdma->XferHalfCpltCallback != NULL)
 596:Drivers/STM32F0xx_HAL_Driver/Src/stm32f0xx_hal_dma.c ****   	{
 597:Drivers/STM32F0xx_HAL_Driver/Src/stm32f0xx_hal_dma.c ****   		/* Half transfer callback */
 598:Drivers/STM32F0xx_HAL_Driver/Src/stm32f0xx_hal_dma.c ****   		hdma->XferHalfCpltCallback(hdma);
 599:Drivers/STM32F0xx_HAL_Driver/Src/stm32f0xx_hal_dma.c ****   	}
 600:Drivers/STM32F0xx_HAL_Driver/Src/stm32f0xx_hal_dma.c ****   }
 601:Drivers/STM32F0xx_HAL_Driver/Src/stm32f0xx_hal_dma.c ****   
 602:Drivers/STM32F0xx_HAL_Driver/Src/stm32f0xx_hal_dma.c ****   /* Transfer Complete Interrupt management ***********************************/
ARM GAS  /tmp/ccsaPaYr.s 			page 12


 603:Drivers/STM32F0xx_HAL_Driver/Src/stm32f0xx_hal_dma.c ****   else if ((RESET != (flag_it & (DMA_FLAG_TC1 << hdma->ChannelIndex))) && (RESET != (source_it & DM
 604:Drivers/STM32F0xx_HAL_Driver/Src/stm32f0xx_hal_dma.c ****   {
 605:Drivers/STM32F0xx_HAL_Driver/Src/stm32f0xx_hal_dma.c ****   	if((hdma->Instance->CCR & DMA_CCR_CIRC) == 0U)
 606:Drivers/STM32F0xx_HAL_Driver/Src/stm32f0xx_hal_dma.c ****   	{
 607:Drivers/STM32F0xx_HAL_Driver/Src/stm32f0xx_hal_dma.c ****   		/* Disable the transfer complete  & transfer error interrupts */
 608:Drivers/STM32F0xx_HAL_Driver/Src/stm32f0xx_hal_dma.c ****   		/* if the DMA mode is not CIRCULAR */
 609:Drivers/STM32F0xx_HAL_Driver/Src/stm32f0xx_hal_dma.c ****   		hdma->Instance->CCR &= ~(DMA_IT_TC | DMA_IT_TE);
 610:Drivers/STM32F0xx_HAL_Driver/Src/stm32f0xx_hal_dma.c ****   		
 611:Drivers/STM32F0xx_HAL_Driver/Src/stm32f0xx_hal_dma.c ****   		/* Change the DMA state */
 612:Drivers/STM32F0xx_HAL_Driver/Src/stm32f0xx_hal_dma.c ****   		hdma->State = HAL_DMA_STATE_READY;
 613:Drivers/STM32F0xx_HAL_Driver/Src/stm32f0xx_hal_dma.c ****   	}
 614:Drivers/STM32F0xx_HAL_Driver/Src/stm32f0xx_hal_dma.c ****   	
 615:Drivers/STM32F0xx_HAL_Driver/Src/stm32f0xx_hal_dma.c ****   	/* Clear the transfer complete flag */
 616:Drivers/STM32F0xx_HAL_Driver/Src/stm32f0xx_hal_dma.c ****   	hdma->DmaBaseAddress->IFCR = DMA_FLAG_TC1 << hdma->ChannelIndex;
 617:Drivers/STM32F0xx_HAL_Driver/Src/stm32f0xx_hal_dma.c ****   	
 618:Drivers/STM32F0xx_HAL_Driver/Src/stm32f0xx_hal_dma.c ****   	/* Process Unlocked */
 619:Drivers/STM32F0xx_HAL_Driver/Src/stm32f0xx_hal_dma.c ****   	__HAL_UNLOCK(hdma);
 620:Drivers/STM32F0xx_HAL_Driver/Src/stm32f0xx_hal_dma.c ****   	
 621:Drivers/STM32F0xx_HAL_Driver/Src/stm32f0xx_hal_dma.c ****   	if(hdma->XferCpltCallback != NULL)
 622:Drivers/STM32F0xx_HAL_Driver/Src/stm32f0xx_hal_dma.c ****   	{
 623:Drivers/STM32F0xx_HAL_Driver/Src/stm32f0xx_hal_dma.c ****   		/* Transfer complete callback */
 624:Drivers/STM32F0xx_HAL_Driver/Src/stm32f0xx_hal_dma.c ****   		hdma->XferCpltCallback(hdma);
 625:Drivers/STM32F0xx_HAL_Driver/Src/stm32f0xx_hal_dma.c ****   	}
 626:Drivers/STM32F0xx_HAL_Driver/Src/stm32f0xx_hal_dma.c ****   }
 627:Drivers/STM32F0xx_HAL_Driver/Src/stm32f0xx_hal_dma.c ****   
 628:Drivers/STM32F0xx_HAL_Driver/Src/stm32f0xx_hal_dma.c ****   /* Transfer Error Interrupt management ***************************************/
 629:Drivers/STM32F0xx_HAL_Driver/Src/stm32f0xx_hal_dma.c ****   else if (( RESET != (flag_it & (DMA_FLAG_TE1 << hdma->ChannelIndex))) && (RESET != (source_it & D
 630:Drivers/STM32F0xx_HAL_Driver/Src/stm32f0xx_hal_dma.c ****   {
 631:Drivers/STM32F0xx_HAL_Driver/Src/stm32f0xx_hal_dma.c ****   	/* When a DMA transfer error occurs */
 632:Drivers/STM32F0xx_HAL_Driver/Src/stm32f0xx_hal_dma.c ****     /* A hardware clear of its EN bits is performed */
 633:Drivers/STM32F0xx_HAL_Driver/Src/stm32f0xx_hal_dma.c ****     /* Then, disable all DMA interrupts */
 634:Drivers/STM32F0xx_HAL_Driver/Src/stm32f0xx_hal_dma.c ****     hdma->Instance->CCR &= ~(DMA_IT_TC | DMA_IT_HT | DMA_IT_TE);
 635:Drivers/STM32F0xx_HAL_Driver/Src/stm32f0xx_hal_dma.c ****     
 636:Drivers/STM32F0xx_HAL_Driver/Src/stm32f0xx_hal_dma.c ****     /* Clear all flags */
 637:Drivers/STM32F0xx_HAL_Driver/Src/stm32f0xx_hal_dma.c ****     hdma->DmaBaseAddress->IFCR = DMA_FLAG_GL1 << hdma->ChannelIndex;
 638:Drivers/STM32F0xx_HAL_Driver/Src/stm32f0xx_hal_dma.c ****     
 639:Drivers/STM32F0xx_HAL_Driver/Src/stm32f0xx_hal_dma.c ****     /* Update error code */
 640:Drivers/STM32F0xx_HAL_Driver/Src/stm32f0xx_hal_dma.c ****     hdma->ErrorCode = HAL_DMA_ERROR_TE;
 641:Drivers/STM32F0xx_HAL_Driver/Src/stm32f0xx_hal_dma.c ****     
 642:Drivers/STM32F0xx_HAL_Driver/Src/stm32f0xx_hal_dma.c ****     /* Change the DMA state */
 643:Drivers/STM32F0xx_HAL_Driver/Src/stm32f0xx_hal_dma.c ****     hdma->State = HAL_DMA_STATE_READY;    
 644:Drivers/STM32F0xx_HAL_Driver/Src/stm32f0xx_hal_dma.c ****     
 645:Drivers/STM32F0xx_HAL_Driver/Src/stm32f0xx_hal_dma.c ****     /* Process Unlocked */
 646:Drivers/STM32F0xx_HAL_Driver/Src/stm32f0xx_hal_dma.c ****     __HAL_UNLOCK(hdma); 
 647:Drivers/STM32F0xx_HAL_Driver/Src/stm32f0xx_hal_dma.c ****     
 648:Drivers/STM32F0xx_HAL_Driver/Src/stm32f0xx_hal_dma.c ****     if(hdma->XferErrorCallback != NULL)
 649:Drivers/STM32F0xx_HAL_Driver/Src/stm32f0xx_hal_dma.c ****     {
 650:Drivers/STM32F0xx_HAL_Driver/Src/stm32f0xx_hal_dma.c ****     	/* Transfer error callback */
 651:Drivers/STM32F0xx_HAL_Driver/Src/stm32f0xx_hal_dma.c ****     	hdma->XferErrorCallback(hdma);
 652:Drivers/STM32F0xx_HAL_Driver/Src/stm32f0xx_hal_dma.c ****     }
 653:Drivers/STM32F0xx_HAL_Driver/Src/stm32f0xx_hal_dma.c ****    }
 654:Drivers/STM32F0xx_HAL_Driver/Src/stm32f0xx_hal_dma.c **** }  
 655:Drivers/STM32F0xx_HAL_Driver/Src/stm32f0xx_hal_dma.c **** 
 656:Drivers/STM32F0xx_HAL_Driver/Src/stm32f0xx_hal_dma.c **** /**
 657:Drivers/STM32F0xx_HAL_Driver/Src/stm32f0xx_hal_dma.c ****   * @brief  Register callbacks
 658:Drivers/STM32F0xx_HAL_Driver/Src/stm32f0xx_hal_dma.c ****   * @param  hdma                 pointer to a DMA_HandleTypeDef structure that contains
 659:Drivers/STM32F0xx_HAL_Driver/Src/stm32f0xx_hal_dma.c ****   *                               the configuration information for the specified DMA Stream.
ARM GAS  /tmp/ccsaPaYr.s 			page 13


 660:Drivers/STM32F0xx_HAL_Driver/Src/stm32f0xx_hal_dma.c ****   * @param  CallbackID           User Callback identifer
 661:Drivers/STM32F0xx_HAL_Driver/Src/stm32f0xx_hal_dma.c ****   *                               a HAL_DMA_CallbackIDTypeDef ENUM as parameter.
 662:Drivers/STM32F0xx_HAL_Driver/Src/stm32f0xx_hal_dma.c ****   * @param  pCallback            pointer to private callback function which has pointer to 
 663:Drivers/STM32F0xx_HAL_Driver/Src/stm32f0xx_hal_dma.c ****   *                               a DMA_HandleTypeDef structure as parameter.
 664:Drivers/STM32F0xx_HAL_Driver/Src/stm32f0xx_hal_dma.c ****   * @retval HAL status
 665:Drivers/STM32F0xx_HAL_Driver/Src/stm32f0xx_hal_dma.c ****   */                          
 666:Drivers/STM32F0xx_HAL_Driver/Src/stm32f0xx_hal_dma.c **** HAL_StatusTypeDef HAL_DMA_RegisterCallback(DMA_HandleTypeDef *hdma, HAL_DMA_CallbackIDTypeDef Callb
 667:Drivers/STM32F0xx_HAL_Driver/Src/stm32f0xx_hal_dma.c **** {
 668:Drivers/STM32F0xx_HAL_Driver/Src/stm32f0xx_hal_dma.c ****   HAL_StatusTypeDef status = HAL_OK;
 669:Drivers/STM32F0xx_HAL_Driver/Src/stm32f0xx_hal_dma.c ****   
 670:Drivers/STM32F0xx_HAL_Driver/Src/stm32f0xx_hal_dma.c ****   /* Process locked */
 671:Drivers/STM32F0xx_HAL_Driver/Src/stm32f0xx_hal_dma.c ****   __HAL_LOCK(hdma);
 672:Drivers/STM32F0xx_HAL_Driver/Src/stm32f0xx_hal_dma.c ****   
 673:Drivers/STM32F0xx_HAL_Driver/Src/stm32f0xx_hal_dma.c ****   if(HAL_DMA_STATE_READY == hdma->State)
 674:Drivers/STM32F0xx_HAL_Driver/Src/stm32f0xx_hal_dma.c ****   {
 675:Drivers/STM32F0xx_HAL_Driver/Src/stm32f0xx_hal_dma.c ****     switch (CallbackID)
 676:Drivers/STM32F0xx_HAL_Driver/Src/stm32f0xx_hal_dma.c ****     {
 677:Drivers/STM32F0xx_HAL_Driver/Src/stm32f0xx_hal_dma.c ****      case  HAL_DMA_XFER_CPLT_CB_ID:
 678:Drivers/STM32F0xx_HAL_Driver/Src/stm32f0xx_hal_dma.c ****            hdma->XferCpltCallback = pCallback;
 679:Drivers/STM32F0xx_HAL_Driver/Src/stm32f0xx_hal_dma.c ****            break;
 680:Drivers/STM32F0xx_HAL_Driver/Src/stm32f0xx_hal_dma.c ****        
 681:Drivers/STM32F0xx_HAL_Driver/Src/stm32f0xx_hal_dma.c ****      case  HAL_DMA_XFER_HALFCPLT_CB_ID:
 682:Drivers/STM32F0xx_HAL_Driver/Src/stm32f0xx_hal_dma.c ****            hdma->XferHalfCpltCallback = pCallback;
 683:Drivers/STM32F0xx_HAL_Driver/Src/stm32f0xx_hal_dma.c ****            break;         
 684:Drivers/STM32F0xx_HAL_Driver/Src/stm32f0xx_hal_dma.c **** 
 685:Drivers/STM32F0xx_HAL_Driver/Src/stm32f0xx_hal_dma.c ****      case  HAL_DMA_XFER_ERROR_CB_ID:
 686:Drivers/STM32F0xx_HAL_Driver/Src/stm32f0xx_hal_dma.c ****            hdma->XferErrorCallback = pCallback;
 687:Drivers/STM32F0xx_HAL_Driver/Src/stm32f0xx_hal_dma.c ****            break;         
 688:Drivers/STM32F0xx_HAL_Driver/Src/stm32f0xx_hal_dma.c ****            
 689:Drivers/STM32F0xx_HAL_Driver/Src/stm32f0xx_hal_dma.c ****      case  HAL_DMA_XFER_ABORT_CB_ID:
 690:Drivers/STM32F0xx_HAL_Driver/Src/stm32f0xx_hal_dma.c ****            hdma->XferAbortCallback = pCallback;
 691:Drivers/STM32F0xx_HAL_Driver/Src/stm32f0xx_hal_dma.c ****            break; 
 692:Drivers/STM32F0xx_HAL_Driver/Src/stm32f0xx_hal_dma.c ****            
 693:Drivers/STM32F0xx_HAL_Driver/Src/stm32f0xx_hal_dma.c ****      default:
 694:Drivers/STM32F0xx_HAL_Driver/Src/stm32f0xx_hal_dma.c ****            status = HAL_ERROR;
 695:Drivers/STM32F0xx_HAL_Driver/Src/stm32f0xx_hal_dma.c ****            break;                                                            
 696:Drivers/STM32F0xx_HAL_Driver/Src/stm32f0xx_hal_dma.c ****     }
 697:Drivers/STM32F0xx_HAL_Driver/Src/stm32f0xx_hal_dma.c ****   }
 698:Drivers/STM32F0xx_HAL_Driver/Src/stm32f0xx_hal_dma.c ****   else
 699:Drivers/STM32F0xx_HAL_Driver/Src/stm32f0xx_hal_dma.c ****   {
 700:Drivers/STM32F0xx_HAL_Driver/Src/stm32f0xx_hal_dma.c ****     status = HAL_ERROR;
 701:Drivers/STM32F0xx_HAL_Driver/Src/stm32f0xx_hal_dma.c ****   } 
 702:Drivers/STM32F0xx_HAL_Driver/Src/stm32f0xx_hal_dma.c ****   
 703:Drivers/STM32F0xx_HAL_Driver/Src/stm32f0xx_hal_dma.c ****   /* Release Lock */
 704:Drivers/STM32F0xx_HAL_Driver/Src/stm32f0xx_hal_dma.c ****   __HAL_UNLOCK(hdma);
 705:Drivers/STM32F0xx_HAL_Driver/Src/stm32f0xx_hal_dma.c ****   
 706:Drivers/STM32F0xx_HAL_Driver/Src/stm32f0xx_hal_dma.c ****   return status;
 707:Drivers/STM32F0xx_HAL_Driver/Src/stm32f0xx_hal_dma.c **** }
 708:Drivers/STM32F0xx_HAL_Driver/Src/stm32f0xx_hal_dma.c **** 
 709:Drivers/STM32F0xx_HAL_Driver/Src/stm32f0xx_hal_dma.c **** /**
 710:Drivers/STM32F0xx_HAL_Driver/Src/stm32f0xx_hal_dma.c ****   * @brief  UnRegister callbacks
 711:Drivers/STM32F0xx_HAL_Driver/Src/stm32f0xx_hal_dma.c ****   * @param  hdma                 pointer to a DMA_HandleTypeDef structure that contains
 712:Drivers/STM32F0xx_HAL_Driver/Src/stm32f0xx_hal_dma.c ****   *                               the configuration information for the specified DMA Stream.
 713:Drivers/STM32F0xx_HAL_Driver/Src/stm32f0xx_hal_dma.c ****   * @param  CallbackID           User Callback identifer
 714:Drivers/STM32F0xx_HAL_Driver/Src/stm32f0xx_hal_dma.c ****   *                               a HAL_DMA_CallbackIDTypeDef ENUM as parameter.
 715:Drivers/STM32F0xx_HAL_Driver/Src/stm32f0xx_hal_dma.c ****   * @retval HAL status
 716:Drivers/STM32F0xx_HAL_Driver/Src/stm32f0xx_hal_dma.c ****   */              
ARM GAS  /tmp/ccsaPaYr.s 			page 14


 717:Drivers/STM32F0xx_HAL_Driver/Src/stm32f0xx_hal_dma.c **** HAL_StatusTypeDef HAL_DMA_UnRegisterCallback(DMA_HandleTypeDef *hdma, HAL_DMA_CallbackIDTypeDef Cal
 718:Drivers/STM32F0xx_HAL_Driver/Src/stm32f0xx_hal_dma.c **** {
 719:Drivers/STM32F0xx_HAL_Driver/Src/stm32f0xx_hal_dma.c ****   HAL_StatusTypeDef status = HAL_OK;
 720:Drivers/STM32F0xx_HAL_Driver/Src/stm32f0xx_hal_dma.c **** 
 721:Drivers/STM32F0xx_HAL_Driver/Src/stm32f0xx_hal_dma.c ****     /* Process locked */
 722:Drivers/STM32F0xx_HAL_Driver/Src/stm32f0xx_hal_dma.c ****   __HAL_LOCK(hdma);
 723:Drivers/STM32F0xx_HAL_Driver/Src/stm32f0xx_hal_dma.c ****   
 724:Drivers/STM32F0xx_HAL_Driver/Src/stm32f0xx_hal_dma.c ****   if(HAL_DMA_STATE_READY == hdma->State)
 725:Drivers/STM32F0xx_HAL_Driver/Src/stm32f0xx_hal_dma.c ****   {
 726:Drivers/STM32F0xx_HAL_Driver/Src/stm32f0xx_hal_dma.c ****     switch (CallbackID)
 727:Drivers/STM32F0xx_HAL_Driver/Src/stm32f0xx_hal_dma.c ****     {
 728:Drivers/STM32F0xx_HAL_Driver/Src/stm32f0xx_hal_dma.c ****      case  HAL_DMA_XFER_CPLT_CB_ID:
 729:Drivers/STM32F0xx_HAL_Driver/Src/stm32f0xx_hal_dma.c ****            hdma->XferCpltCallback = NULL;
 730:Drivers/STM32F0xx_HAL_Driver/Src/stm32f0xx_hal_dma.c ****            break;
 731:Drivers/STM32F0xx_HAL_Driver/Src/stm32f0xx_hal_dma.c ****        
 732:Drivers/STM32F0xx_HAL_Driver/Src/stm32f0xx_hal_dma.c ****      case  HAL_DMA_XFER_HALFCPLT_CB_ID:
 733:Drivers/STM32F0xx_HAL_Driver/Src/stm32f0xx_hal_dma.c ****            hdma->XferHalfCpltCallback = NULL;
 734:Drivers/STM32F0xx_HAL_Driver/Src/stm32f0xx_hal_dma.c ****            break;         
 735:Drivers/STM32F0xx_HAL_Driver/Src/stm32f0xx_hal_dma.c **** 
 736:Drivers/STM32F0xx_HAL_Driver/Src/stm32f0xx_hal_dma.c ****      case  HAL_DMA_XFER_ERROR_CB_ID:
 737:Drivers/STM32F0xx_HAL_Driver/Src/stm32f0xx_hal_dma.c ****            hdma->XferErrorCallback = NULL;
 738:Drivers/STM32F0xx_HAL_Driver/Src/stm32f0xx_hal_dma.c ****            break;         
 739:Drivers/STM32F0xx_HAL_Driver/Src/stm32f0xx_hal_dma.c ****            
 740:Drivers/STM32F0xx_HAL_Driver/Src/stm32f0xx_hal_dma.c ****      case  HAL_DMA_XFER_ABORT_CB_ID:
 741:Drivers/STM32F0xx_HAL_Driver/Src/stm32f0xx_hal_dma.c ****            hdma->XferAbortCallback = NULL;
 742:Drivers/STM32F0xx_HAL_Driver/Src/stm32f0xx_hal_dma.c ****            break; 
 743:Drivers/STM32F0xx_HAL_Driver/Src/stm32f0xx_hal_dma.c ****      
 744:Drivers/STM32F0xx_HAL_Driver/Src/stm32f0xx_hal_dma.c ****     case   HAL_DMA_XFER_ALL_CB_ID:
 745:Drivers/STM32F0xx_HAL_Driver/Src/stm32f0xx_hal_dma.c ****            hdma->XferCpltCallback = NULL;
 746:Drivers/STM32F0xx_HAL_Driver/Src/stm32f0xx_hal_dma.c ****            hdma->XferHalfCpltCallback = NULL;
 747:Drivers/STM32F0xx_HAL_Driver/Src/stm32f0xx_hal_dma.c ****            hdma->XferErrorCallback = NULL;
 748:Drivers/STM32F0xx_HAL_Driver/Src/stm32f0xx_hal_dma.c ****            hdma->XferAbortCallback = NULL;
 749:Drivers/STM32F0xx_HAL_Driver/Src/stm32f0xx_hal_dma.c ****            break; 
 750:Drivers/STM32F0xx_HAL_Driver/Src/stm32f0xx_hal_dma.c ****      
 751:Drivers/STM32F0xx_HAL_Driver/Src/stm32f0xx_hal_dma.c ****     default:
 752:Drivers/STM32F0xx_HAL_Driver/Src/stm32f0xx_hal_dma.c ****            status = HAL_ERROR;
 753:Drivers/STM32F0xx_HAL_Driver/Src/stm32f0xx_hal_dma.c ****            break;                                                            
 754:Drivers/STM32F0xx_HAL_Driver/Src/stm32f0xx_hal_dma.c ****     }
 755:Drivers/STM32F0xx_HAL_Driver/Src/stm32f0xx_hal_dma.c ****   }
 756:Drivers/STM32F0xx_HAL_Driver/Src/stm32f0xx_hal_dma.c ****   else
 757:Drivers/STM32F0xx_HAL_Driver/Src/stm32f0xx_hal_dma.c ****   {
 758:Drivers/STM32F0xx_HAL_Driver/Src/stm32f0xx_hal_dma.c ****     status = HAL_ERROR;
 759:Drivers/STM32F0xx_HAL_Driver/Src/stm32f0xx_hal_dma.c ****   } 
 760:Drivers/STM32F0xx_HAL_Driver/Src/stm32f0xx_hal_dma.c ****   
 761:Drivers/STM32F0xx_HAL_Driver/Src/stm32f0xx_hal_dma.c ****   /* Release Lock */
 762:Drivers/STM32F0xx_HAL_Driver/Src/stm32f0xx_hal_dma.c ****   __HAL_UNLOCK(hdma);
 763:Drivers/STM32F0xx_HAL_Driver/Src/stm32f0xx_hal_dma.c ****   
 764:Drivers/STM32F0xx_HAL_Driver/Src/stm32f0xx_hal_dma.c ****   return status;
 765:Drivers/STM32F0xx_HAL_Driver/Src/stm32f0xx_hal_dma.c **** }
 766:Drivers/STM32F0xx_HAL_Driver/Src/stm32f0xx_hal_dma.c **** 
 767:Drivers/STM32F0xx_HAL_Driver/Src/stm32f0xx_hal_dma.c **** /**
 768:Drivers/STM32F0xx_HAL_Driver/Src/stm32f0xx_hal_dma.c ****   * @}
 769:Drivers/STM32F0xx_HAL_Driver/Src/stm32f0xx_hal_dma.c ****   */
 770:Drivers/STM32F0xx_HAL_Driver/Src/stm32f0xx_hal_dma.c **** 
 771:Drivers/STM32F0xx_HAL_Driver/Src/stm32f0xx_hal_dma.c **** /** @defgroup DMA_Exported_Functions_Group3 Peripheral State functions
 772:Drivers/STM32F0xx_HAL_Driver/Src/stm32f0xx_hal_dma.c ****  *  @brief    Peripheral State functions 
 773:Drivers/STM32F0xx_HAL_Driver/Src/stm32f0xx_hal_dma.c ****  *
ARM GAS  /tmp/ccsaPaYr.s 			page 15


 774:Drivers/STM32F0xx_HAL_Driver/Src/stm32f0xx_hal_dma.c **** @verbatim   
 775:Drivers/STM32F0xx_HAL_Driver/Src/stm32f0xx_hal_dma.c ****  ===============================================================================
 776:Drivers/STM32F0xx_HAL_Driver/Src/stm32f0xx_hal_dma.c ****                     ##### State and Errors functions #####
 777:Drivers/STM32F0xx_HAL_Driver/Src/stm32f0xx_hal_dma.c ****  ===============================================================================  
 778:Drivers/STM32F0xx_HAL_Driver/Src/stm32f0xx_hal_dma.c ****     [..]
 779:Drivers/STM32F0xx_HAL_Driver/Src/stm32f0xx_hal_dma.c ****     This subsection provides functions allowing to
 780:Drivers/STM32F0xx_HAL_Driver/Src/stm32f0xx_hal_dma.c ****       (+) Check the DMA state
 781:Drivers/STM32F0xx_HAL_Driver/Src/stm32f0xx_hal_dma.c ****       (+) Get error code
 782:Drivers/STM32F0xx_HAL_Driver/Src/stm32f0xx_hal_dma.c **** 
 783:Drivers/STM32F0xx_HAL_Driver/Src/stm32f0xx_hal_dma.c **** @endverbatim
 784:Drivers/STM32F0xx_HAL_Driver/Src/stm32f0xx_hal_dma.c ****   * @{
 785:Drivers/STM32F0xx_HAL_Driver/Src/stm32f0xx_hal_dma.c ****   */  
 786:Drivers/STM32F0xx_HAL_Driver/Src/stm32f0xx_hal_dma.c **** 
 787:Drivers/STM32F0xx_HAL_Driver/Src/stm32f0xx_hal_dma.c **** /**
 788:Drivers/STM32F0xx_HAL_Driver/Src/stm32f0xx_hal_dma.c ****   * @brief  Returns the DMA state.
 789:Drivers/STM32F0xx_HAL_Driver/Src/stm32f0xx_hal_dma.c ****   * @param  hdma pointer to a DMA_HandleTypeDef structure that contains
 790:Drivers/STM32F0xx_HAL_Driver/Src/stm32f0xx_hal_dma.c ****   *               the configuration information for the specified DMA Channel.  
 791:Drivers/STM32F0xx_HAL_Driver/Src/stm32f0xx_hal_dma.c ****   * @retval HAL state
 792:Drivers/STM32F0xx_HAL_Driver/Src/stm32f0xx_hal_dma.c ****   */
 793:Drivers/STM32F0xx_HAL_Driver/Src/stm32f0xx_hal_dma.c **** HAL_DMA_StateTypeDef HAL_DMA_GetState(DMA_HandleTypeDef *hdma)
 794:Drivers/STM32F0xx_HAL_Driver/Src/stm32f0xx_hal_dma.c **** {
 795:Drivers/STM32F0xx_HAL_Driver/Src/stm32f0xx_hal_dma.c ****   return hdma->State;
 796:Drivers/STM32F0xx_HAL_Driver/Src/stm32f0xx_hal_dma.c **** }
 797:Drivers/STM32F0xx_HAL_Driver/Src/stm32f0xx_hal_dma.c **** 
 798:Drivers/STM32F0xx_HAL_Driver/Src/stm32f0xx_hal_dma.c **** /**
 799:Drivers/STM32F0xx_HAL_Driver/Src/stm32f0xx_hal_dma.c ****   * @brief  Return the DMA error code
 800:Drivers/STM32F0xx_HAL_Driver/Src/stm32f0xx_hal_dma.c ****   * @param  hdma pointer to a DMA_HandleTypeDef structure that contains
 801:Drivers/STM32F0xx_HAL_Driver/Src/stm32f0xx_hal_dma.c ****   *              the configuration information for the specified DMA Channel.
 802:Drivers/STM32F0xx_HAL_Driver/Src/stm32f0xx_hal_dma.c ****   * @retval DMA Error Code
 803:Drivers/STM32F0xx_HAL_Driver/Src/stm32f0xx_hal_dma.c ****   */
 804:Drivers/STM32F0xx_HAL_Driver/Src/stm32f0xx_hal_dma.c **** uint32_t HAL_DMA_GetError(DMA_HandleTypeDef *hdma)
 805:Drivers/STM32F0xx_HAL_Driver/Src/stm32f0xx_hal_dma.c **** {
 806:Drivers/STM32F0xx_HAL_Driver/Src/stm32f0xx_hal_dma.c ****   return hdma->ErrorCode;
 807:Drivers/STM32F0xx_HAL_Driver/Src/stm32f0xx_hal_dma.c **** }
 808:Drivers/STM32F0xx_HAL_Driver/Src/stm32f0xx_hal_dma.c **** 
 809:Drivers/STM32F0xx_HAL_Driver/Src/stm32f0xx_hal_dma.c **** /**
 810:Drivers/STM32F0xx_HAL_Driver/Src/stm32f0xx_hal_dma.c ****   * @}
 811:Drivers/STM32F0xx_HAL_Driver/Src/stm32f0xx_hal_dma.c ****   */
 812:Drivers/STM32F0xx_HAL_Driver/Src/stm32f0xx_hal_dma.c **** 
 813:Drivers/STM32F0xx_HAL_Driver/Src/stm32f0xx_hal_dma.c **** /**
 814:Drivers/STM32F0xx_HAL_Driver/Src/stm32f0xx_hal_dma.c ****   * @}
 815:Drivers/STM32F0xx_HAL_Driver/Src/stm32f0xx_hal_dma.c ****   */
 816:Drivers/STM32F0xx_HAL_Driver/Src/stm32f0xx_hal_dma.c **** 
 817:Drivers/STM32F0xx_HAL_Driver/Src/stm32f0xx_hal_dma.c **** /** @addtogroup DMA_Private_Functions
 818:Drivers/STM32F0xx_HAL_Driver/Src/stm32f0xx_hal_dma.c ****   * @{
 819:Drivers/STM32F0xx_HAL_Driver/Src/stm32f0xx_hal_dma.c ****   */
 820:Drivers/STM32F0xx_HAL_Driver/Src/stm32f0xx_hal_dma.c **** 
 821:Drivers/STM32F0xx_HAL_Driver/Src/stm32f0xx_hal_dma.c **** /**
 822:Drivers/STM32F0xx_HAL_Driver/Src/stm32f0xx_hal_dma.c ****   * @brief  Set the DMA Transfer parameters.
 823:Drivers/STM32F0xx_HAL_Driver/Src/stm32f0xx_hal_dma.c ****   * @param  hdma       pointer to a DMA_HandleTypeDef structure that contains
 824:Drivers/STM32F0xx_HAL_Driver/Src/stm32f0xx_hal_dma.c ****   *                     the configuration information for the specified DMA Channel.  
 825:Drivers/STM32F0xx_HAL_Driver/Src/stm32f0xx_hal_dma.c ****   * @param  SrcAddress The source memory Buffer address
 826:Drivers/STM32F0xx_HAL_Driver/Src/stm32f0xx_hal_dma.c ****   * @param  DstAddress The destination memory Buffer address
 827:Drivers/STM32F0xx_HAL_Driver/Src/stm32f0xx_hal_dma.c ****   * @param  DataLength The length of data to be transferred from source to destination
 828:Drivers/STM32F0xx_HAL_Driver/Src/stm32f0xx_hal_dma.c ****   * @retval HAL status
 829:Drivers/STM32F0xx_HAL_Driver/Src/stm32f0xx_hal_dma.c ****   */
 830:Drivers/STM32F0xx_HAL_Driver/Src/stm32f0xx_hal_dma.c **** static void DMA_SetConfig(DMA_HandleTypeDef *hdma, uint32_t SrcAddress, uint32_t DstAddress, uint32
ARM GAS  /tmp/ccsaPaYr.s 			page 16


 831:Drivers/STM32F0xx_HAL_Driver/Src/stm32f0xx_hal_dma.c **** {
  27              		.loc 1 831 1 view -0
  28              		.cfi_startproc
  29              		@ args = 0, pretend = 0, frame = 0
  30              		@ frame_needed = 0, uses_anonymous_args = 0
  31              		.loc 1 831 1 is_stmt 0 view .LVU1
  32 0000 70B5     		push	{r4, r5, r6, lr}
  33              	.LCFI0:
  34              		.cfi_def_cfa_offset 16
  35              		.cfi_offset 4, -16
  36              		.cfi_offset 5, -12
  37              		.cfi_offset 6, -8
  38              		.cfi_offset 14, -4
 832:Drivers/STM32F0xx_HAL_Driver/Src/stm32f0xx_hal_dma.c **** 	/* Clear all flags */
 833:Drivers/STM32F0xx_HAL_Driver/Src/stm32f0xx_hal_dma.c ****   hdma->DmaBaseAddress->IFCR  = (DMA_FLAG_GL1 << hdma->ChannelIndex);
  39              		.loc 1 833 3 is_stmt 1 view .LVU2
  40              		.loc 1 833 7 is_stmt 0 view .LVU3
  41 0002 C56B     		ldr	r5, [r0, #60]
  42              		.loc 1 833 47 view .LVU4
  43 0004 0124     		movs	r4, #1
  44 0006 066C     		ldr	r6, [r0, #64]
  45 0008 B440     		lsls	r4, r4, r6
  46              		.loc 1 833 31 view .LVU5
  47 000a 6C60     		str	r4, [r5, #4]
 834:Drivers/STM32F0xx_HAL_Driver/Src/stm32f0xx_hal_dma.c ****   
 835:Drivers/STM32F0xx_HAL_Driver/Src/stm32f0xx_hal_dma.c ****   /* Configure DMA Channel data length */
 836:Drivers/STM32F0xx_HAL_Driver/Src/stm32f0xx_hal_dma.c ****   hdma->Instance->CNDTR = DataLength;
  48              		.loc 1 836 3 is_stmt 1 view .LVU6
  49              		.loc 1 836 7 is_stmt 0 view .LVU7
  50 000c 0468     		ldr	r4, [r0]
  51              		.loc 1 836 25 view .LVU8
  52 000e 6360     		str	r3, [r4, #4]
 837:Drivers/STM32F0xx_HAL_Driver/Src/stm32f0xx_hal_dma.c ****   
 838:Drivers/STM32F0xx_HAL_Driver/Src/stm32f0xx_hal_dma.c ****   /* Memory to Peripheral */
 839:Drivers/STM32F0xx_HAL_Driver/Src/stm32f0xx_hal_dma.c ****   if((hdma->Init.Direction) == DMA_MEMORY_TO_PERIPH)
  53              		.loc 1 839 3 is_stmt 1 view .LVU9
  54              		.loc 1 839 5 is_stmt 0 view .LVU10
  55 0010 4368     		ldr	r3, [r0, #4]
  56              	.LVL1:
  57              		.loc 1 839 5 view .LVU11
  58 0012 102B     		cmp	r3, #16
  59 0014 04D0     		beq	.L4
 840:Drivers/STM32F0xx_HAL_Driver/Src/stm32f0xx_hal_dma.c ****   {   
 841:Drivers/STM32F0xx_HAL_Driver/Src/stm32f0xx_hal_dma.c ****     /* Configure DMA Channel destination address */
 842:Drivers/STM32F0xx_HAL_Driver/Src/stm32f0xx_hal_dma.c ****     hdma->Instance->CPAR = DstAddress;
 843:Drivers/STM32F0xx_HAL_Driver/Src/stm32f0xx_hal_dma.c ****     
 844:Drivers/STM32F0xx_HAL_Driver/Src/stm32f0xx_hal_dma.c ****     /* Configure DMA Channel source address */
 845:Drivers/STM32F0xx_HAL_Driver/Src/stm32f0xx_hal_dma.c ****     hdma->Instance->CMAR = SrcAddress;
 846:Drivers/STM32F0xx_HAL_Driver/Src/stm32f0xx_hal_dma.c ****   }
 847:Drivers/STM32F0xx_HAL_Driver/Src/stm32f0xx_hal_dma.c ****   /* Peripheral to Memory */
 848:Drivers/STM32F0xx_HAL_Driver/Src/stm32f0xx_hal_dma.c ****   else
 849:Drivers/STM32F0xx_HAL_Driver/Src/stm32f0xx_hal_dma.c ****   {
 850:Drivers/STM32F0xx_HAL_Driver/Src/stm32f0xx_hal_dma.c ****     /* Configure DMA Channel source address */
 851:Drivers/STM32F0xx_HAL_Driver/Src/stm32f0xx_hal_dma.c ****     hdma->Instance->CPAR = SrcAddress;
  60              		.loc 1 851 5 is_stmt 1 view .LVU12
  61              		.loc 1 851 9 is_stmt 0 view .LVU13
  62 0016 0368     		ldr	r3, [r0]
ARM GAS  /tmp/ccsaPaYr.s 			page 17


  63              		.loc 1 851 26 view .LVU14
  64 0018 9960     		str	r1, [r3, #8]
  65              	.LVL2:
 852:Drivers/STM32F0xx_HAL_Driver/Src/stm32f0xx_hal_dma.c ****     
 853:Drivers/STM32F0xx_HAL_Driver/Src/stm32f0xx_hal_dma.c ****     /* Configure DMA Channel destination address */
 854:Drivers/STM32F0xx_HAL_Driver/Src/stm32f0xx_hal_dma.c ****     hdma->Instance->CMAR = DstAddress;
  66              		.loc 1 854 5 is_stmt 1 view .LVU15
  67              		.loc 1 854 9 is_stmt 0 view .LVU16
  68 001a 0368     		ldr	r3, [r0]
  69              		.loc 1 854 26 view .LVU17
  70 001c DA60     		str	r2, [r3, #12]
  71              	.L1:
 855:Drivers/STM32F0xx_HAL_Driver/Src/stm32f0xx_hal_dma.c ****   }
 856:Drivers/STM32F0xx_HAL_Driver/Src/stm32f0xx_hal_dma.c **** }
  72              		.loc 1 856 1 view .LVU18
  73              		@ sp needed
  74 001e 70BD     		pop	{r4, r5, r6, pc}
  75              	.LVL3:
  76              	.L4:
 842:Drivers/STM32F0xx_HAL_Driver/Src/stm32f0xx_hal_dma.c ****     
  77              		.loc 1 842 5 is_stmt 1 view .LVU19
 842:Drivers/STM32F0xx_HAL_Driver/Src/stm32f0xx_hal_dma.c ****     
  78              		.loc 1 842 9 is_stmt 0 view .LVU20
  79 0020 0368     		ldr	r3, [r0]
 842:Drivers/STM32F0xx_HAL_Driver/Src/stm32f0xx_hal_dma.c ****     
  80              		.loc 1 842 26 view .LVU21
  81 0022 9A60     		str	r2, [r3, #8]
  82              	.LVL4:
 845:Drivers/STM32F0xx_HAL_Driver/Src/stm32f0xx_hal_dma.c ****   }
  83              		.loc 1 845 5 is_stmt 1 view .LVU22
 845:Drivers/STM32F0xx_HAL_Driver/Src/stm32f0xx_hal_dma.c ****   }
  84              		.loc 1 845 9 is_stmt 0 view .LVU23
  85 0024 0368     		ldr	r3, [r0]
 845:Drivers/STM32F0xx_HAL_Driver/Src/stm32f0xx_hal_dma.c ****   }
  86              		.loc 1 845 26 view .LVU24
  87 0026 D960     		str	r1, [r3, #12]
  88 0028 F9E7     		b	.L1
  89              		.cfi_endproc
  90              	.LFE49:
  92              		.global	__aeabi_uidiv
  93              		.section	.text.DMA_CalcBaseAndBitshift,"ax",%progbits
  94              		.align	1
  95              		.syntax unified
  96              		.code	16
  97              		.thumb_func
  98              		.fpu softvfp
 100              	DMA_CalcBaseAndBitshift:
 101              	.LVL5:
 102              	.LFB50:
 857:Drivers/STM32F0xx_HAL_Driver/Src/stm32f0xx_hal_dma.c **** 
 858:Drivers/STM32F0xx_HAL_Driver/Src/stm32f0xx_hal_dma.c **** /**
 859:Drivers/STM32F0xx_HAL_Driver/Src/stm32f0xx_hal_dma.c ****   * @brief  set the DMA base address and channel index depending on DMA instance
 860:Drivers/STM32F0xx_HAL_Driver/Src/stm32f0xx_hal_dma.c ****   * @param  hdma       pointer to a DMA_HandleTypeDef structure that contains
 861:Drivers/STM32F0xx_HAL_Driver/Src/stm32f0xx_hal_dma.c ****   *                     the configuration information for the specified DMA Stream. 
 862:Drivers/STM32F0xx_HAL_Driver/Src/stm32f0xx_hal_dma.c ****   * @retval None
 863:Drivers/STM32F0xx_HAL_Driver/Src/stm32f0xx_hal_dma.c ****   */
 864:Drivers/STM32F0xx_HAL_Driver/Src/stm32f0xx_hal_dma.c **** static void DMA_CalcBaseAndBitshift(DMA_HandleTypeDef *hdma)
ARM GAS  /tmp/ccsaPaYr.s 			page 18


 865:Drivers/STM32F0xx_HAL_Driver/Src/stm32f0xx_hal_dma.c **** {
 103              		.loc 1 865 1 is_stmt 1 view -0
 104              		.cfi_startproc
 105              		@ args = 0, pretend = 0, frame = 0
 106              		@ frame_needed = 0, uses_anonymous_args = 0
 107              		.loc 1 865 1 is_stmt 0 view .LVU26
 108 0000 10B5     		push	{r4, lr}
 109              	.LCFI1:
 110              		.cfi_def_cfa_offset 8
 111              		.cfi_offset 4, -8
 112              		.cfi_offset 14, -4
 113 0002 0400     		movs	r4, r0
 866:Drivers/STM32F0xx_HAL_Driver/Src/stm32f0xx_hal_dma.c **** #if defined (DMA2)
 867:Drivers/STM32F0xx_HAL_Driver/Src/stm32f0xx_hal_dma.c ****   /* calculation of the channel index */
 868:Drivers/STM32F0xx_HAL_Driver/Src/stm32f0xx_hal_dma.c ****   if ((uint32_t)(hdma->Instance) < (uint32_t)(DMA2_Channel1))
 869:Drivers/STM32F0xx_HAL_Driver/Src/stm32f0xx_hal_dma.c ****   {
 870:Drivers/STM32F0xx_HAL_Driver/Src/stm32f0xx_hal_dma.c ****     /* DMA1 */
 871:Drivers/STM32F0xx_HAL_Driver/Src/stm32f0xx_hal_dma.c ****     hdma->ChannelIndex = (((uint32_t)hdma->Instance - (uint32_t)DMA1_Channel1) / ((uint32_t)DMA1_Ch
 872:Drivers/STM32F0xx_HAL_Driver/Src/stm32f0xx_hal_dma.c ****     hdma->DmaBaseAddress = DMA1;
 873:Drivers/STM32F0xx_HAL_Driver/Src/stm32f0xx_hal_dma.c ****   }
 874:Drivers/STM32F0xx_HAL_Driver/Src/stm32f0xx_hal_dma.c ****   else 
 875:Drivers/STM32F0xx_HAL_Driver/Src/stm32f0xx_hal_dma.c ****   {
 876:Drivers/STM32F0xx_HAL_Driver/Src/stm32f0xx_hal_dma.c ****     /* DMA2 */
 877:Drivers/STM32F0xx_HAL_Driver/Src/stm32f0xx_hal_dma.c ****     hdma->ChannelIndex = (((uint32_t)hdma->Instance - (uint32_t)DMA2_Channel1) / ((uint32_t)DMA2_Ch
 878:Drivers/STM32F0xx_HAL_Driver/Src/stm32f0xx_hal_dma.c ****     hdma->DmaBaseAddress = DMA2;
 879:Drivers/STM32F0xx_HAL_Driver/Src/stm32f0xx_hal_dma.c ****   }
 880:Drivers/STM32F0xx_HAL_Driver/Src/stm32f0xx_hal_dma.c **** #else
 881:Drivers/STM32F0xx_HAL_Driver/Src/stm32f0xx_hal_dma.c ****   /* calculation of the channel index */
 882:Drivers/STM32F0xx_HAL_Driver/Src/stm32f0xx_hal_dma.c ****   /* DMA1 */
 883:Drivers/STM32F0xx_HAL_Driver/Src/stm32f0xx_hal_dma.c ****   hdma->ChannelIndex = (((uint32_t)hdma->Instance - (uint32_t)DMA1_Channel1) / ((uint32_t)DMA1_Chan
 114              		.loc 1 883 3 is_stmt 1 view .LVU27
 115              		.loc 1 883 51 is_stmt 0 view .LVU28
 116 0004 0368     		ldr	r3, [r0]
 117 0006 064A     		ldr	r2, .L6
 118 0008 9446     		mov	ip, r2
 119 000a 6344     		add	r3, r3, ip
 120 000c 1800     		movs	r0, r3
 121              	.LVL6:
 122              		.loc 1 883 78 view .LVU29
 123 000e 1421     		movs	r1, #20
 124 0010 FFF7FEFF 		bl	__aeabi_uidiv
 125              	.LVL7:
 126              		.loc 1 883 133 view .LVU30
 127 0014 8000     		lsls	r0, r0, #2
 128              		.loc 1 883 22 view .LVU31
 129 0016 2064     		str	r0, [r4, #64]
 884:Drivers/STM32F0xx_HAL_Driver/Src/stm32f0xx_hal_dma.c ****   hdma->DmaBaseAddress = DMA1;
 130              		.loc 1 884 3 is_stmt 1 view .LVU32
 131              		.loc 1 884 24 is_stmt 0 view .LVU33
 132 0018 024B     		ldr	r3, .L6+4
 133 001a E363     		str	r3, [r4, #60]
 885:Drivers/STM32F0xx_HAL_Driver/Src/stm32f0xx_hal_dma.c **** #endif
 886:Drivers/STM32F0xx_HAL_Driver/Src/stm32f0xx_hal_dma.c **** }
 134              		.loc 1 886 1 view .LVU34
 135              		@ sp needed
 136              	.LVL8:
 137              		.loc 1 886 1 view .LVU35
ARM GAS  /tmp/ccsaPaYr.s 			page 19


 138 001c 10BD     		pop	{r4, pc}
 139              	.L7:
 140 001e C046     		.align	2
 141              	.L6:
 142 0020 F8FFFDBF 		.word	-1073872904
 143 0024 00000240 		.word	1073872896
 144              		.cfi_endproc
 145              	.LFE50:
 147              		.section	.text.HAL_DMA_Init,"ax",%progbits
 148              		.align	1
 149              		.global	HAL_DMA_Init
 150              		.syntax unified
 151              		.code	16
 152              		.thumb_func
 153              		.fpu softvfp
 155              	HAL_DMA_Init:
 156              	.LVL9:
 157              	.LFB37:
 155:Drivers/STM32F0xx_HAL_Driver/Src/stm32f0xx_hal_dma.c ****   uint32_t tmp = 0U;
 158              		.loc 1 155 1 is_stmt 1 view -0
 159              		.cfi_startproc
 160              		@ args = 0, pretend = 0, frame = 0
 161              		@ frame_needed = 0, uses_anonymous_args = 0
 155:Drivers/STM32F0xx_HAL_Driver/Src/stm32f0xx_hal_dma.c ****   uint32_t tmp = 0U;
 162              		.loc 1 155 1 is_stmt 0 view .LVU37
 163 0000 70B5     		push	{r4, r5, r6, lr}
 164              	.LCFI2:
 165              		.cfi_def_cfa_offset 16
 166              		.cfi_offset 4, -16
 167              		.cfi_offset 5, -12
 168              		.cfi_offset 6, -8
 169              		.cfi_offset 14, -4
 170 0002 041E     		subs	r4, r0, #0
 156:Drivers/STM32F0xx_HAL_Driver/Src/stm32f0xx_hal_dma.c ****   
 171              		.loc 1 156 3 is_stmt 1 view .LVU38
 172              	.LVL10:
 159:Drivers/STM32F0xx_HAL_Driver/Src/stm32f0xx_hal_dma.c ****   {
 173              		.loc 1 159 3 view .LVU39
 159:Drivers/STM32F0xx_HAL_Driver/Src/stm32f0xx_hal_dma.c ****   {
 174              		.loc 1 159 5 is_stmt 0 view .LVU40
 175 0004 24D0     		beq	.L10
 165:Drivers/STM32F0xx_HAL_Driver/Src/stm32f0xx_hal_dma.c ****   assert_param(IS_DMA_DIRECTION(hdma->Init.Direction));
 176              		.loc 1 165 3 is_stmt 1 view .LVU41
 166:Drivers/STM32F0xx_HAL_Driver/Src/stm32f0xx_hal_dma.c ****   assert_param(IS_DMA_PERIPHERAL_INC_STATE(hdma->Init.PeriphInc));
 177              		.loc 1 166 3 view .LVU42
 167:Drivers/STM32F0xx_HAL_Driver/Src/stm32f0xx_hal_dma.c ****   assert_param(IS_DMA_MEMORY_INC_STATE(hdma->Init.MemInc));
 178              		.loc 1 167 3 view .LVU43
 168:Drivers/STM32F0xx_HAL_Driver/Src/stm32f0xx_hal_dma.c ****   assert_param(IS_DMA_PERIPHERAL_DATA_SIZE(hdma->Init.PeriphDataAlignment));
 179              		.loc 1 168 3 view .LVU44
 169:Drivers/STM32F0xx_HAL_Driver/Src/stm32f0xx_hal_dma.c ****   assert_param(IS_DMA_MEMORY_DATA_SIZE(hdma->Init.MemDataAlignment));
 180              		.loc 1 169 3 view .LVU45
 170:Drivers/STM32F0xx_HAL_Driver/Src/stm32f0xx_hal_dma.c ****   assert_param(IS_DMA_MODE(hdma->Init.Mode));
 181              		.loc 1 170 3 view .LVU46
 171:Drivers/STM32F0xx_HAL_Driver/Src/stm32f0xx_hal_dma.c ****   assert_param(IS_DMA_PRIORITY(hdma->Init.Priority));
 182              		.loc 1 171 3 view .LVU47
 172:Drivers/STM32F0xx_HAL_Driver/Src/stm32f0xx_hal_dma.c ****   
 183              		.loc 1 172 3 view .LVU48
ARM GAS  /tmp/ccsaPaYr.s 			page 20


 175:Drivers/STM32F0xx_HAL_Driver/Src/stm32f0xx_hal_dma.c **** 
 184              		.loc 1 175 3 view .LVU49
 175:Drivers/STM32F0xx_HAL_Driver/Src/stm32f0xx_hal_dma.c **** 
 185              		.loc 1 175 15 is_stmt 0 view .LVU50
 186 0006 2125     		movs	r5, #33
 187 0008 0223     		movs	r3, #2
 188 000a 4355     		strb	r3, [r0, r5]
 178:Drivers/STM32F0xx_HAL_Driver/Src/stm32f0xx_hal_dma.c ****   
 189              		.loc 1 178 3 is_stmt 1 view .LVU51
 178:Drivers/STM32F0xx_HAL_Driver/Src/stm32f0xx_hal_dma.c ****   
 190              		.loc 1 178 13 is_stmt 0 view .LVU52
 191 000c 0168     		ldr	r1, [r0]
 178:Drivers/STM32F0xx_HAL_Driver/Src/stm32f0xx_hal_dma.c ****   
 192              		.loc 1 178 7 view .LVU53
 193 000e 0B68     		ldr	r3, [r1]
 194              	.LVL11:
 181:Drivers/STM32F0xx_HAL_Driver/Src/stm32f0xx_hal_dma.c ****                       DMA_CCR_MINC  | DMA_CCR_PINC   | DMA_CCR_CIRC   | \
 195              		.loc 1 181 3 is_stmt 1 view .LVU54
 181:Drivers/STM32F0xx_HAL_Driver/Src/stm32f0xx_hal_dma.c ****                       DMA_CCR_MINC  | DMA_CCR_PINC   | DMA_CCR_CIRC   | \
 196              		.loc 1 181 7 is_stmt 0 view .LVU55
 197 0010 104A     		ldr	r2, .L11
 198 0012 1A40     		ands	r2, r3
 199              	.LVL12:
 186:Drivers/STM32F0xx_HAL_Driver/Src/stm32f0xx_hal_dma.c ****           hdma->Init.PeriphInc           | hdma->Init.MemInc           |
 200              		.loc 1 186 3 is_stmt 1 view .LVU56
 186:Drivers/STM32F0xx_HAL_Driver/Src/stm32f0xx_hal_dma.c ****           hdma->Init.PeriphInc           | hdma->Init.MemInc           |
 201              		.loc 1 186 39 is_stmt 0 view .LVU57
 202 0014 4368     		ldr	r3, [r0, #4]
 203 0016 8068     		ldr	r0, [r0, #8]
 204              	.LVL13:
 186:Drivers/STM32F0xx_HAL_Driver/Src/stm32f0xx_hal_dma.c ****           hdma->Init.PeriphInc           | hdma->Init.MemInc           |
 205              		.loc 1 186 39 view .LVU58
 206 0018 0343     		orrs	r3, r0
 187:Drivers/STM32F0xx_HAL_Driver/Src/stm32f0xx_hal_dma.c ****           hdma->Init.PeriphDataAlignment | hdma->Init.MemDataAlignment |
 207              		.loc 1 187 42 view .LVU59
 208 001a E068     		ldr	r0, [r4, #12]
 209 001c 0343     		orrs	r3, r0
 187:Drivers/STM32F0xx_HAL_Driver/Src/stm32f0xx_hal_dma.c ****           hdma->Init.PeriphDataAlignment | hdma->Init.MemDataAlignment |
 210              		.loc 1 187 72 view .LVU60
 211 001e 2069     		ldr	r0, [r4, #16]
 212 0020 0343     		orrs	r3, r0
 188:Drivers/STM32F0xx_HAL_Driver/Src/stm32f0xx_hal_dma.c ****           hdma->Init.Mode                | hdma->Init.Priority;
 213              		.loc 1 188 42 view .LVU61
 214 0022 6069     		ldr	r0, [r4, #20]
 215 0024 0343     		orrs	r3, r0
 188:Drivers/STM32F0xx_HAL_Driver/Src/stm32f0xx_hal_dma.c ****           hdma->Init.Mode                | hdma->Init.Priority;
 216              		.loc 1 188 72 view .LVU62
 217 0026 A069     		ldr	r0, [r4, #24]
 218 0028 0343     		orrs	r3, r0
 189:Drivers/STM32F0xx_HAL_Driver/Src/stm32f0xx_hal_dma.c **** 
 219              		.loc 1 189 42 view .LVU63
 220 002a E069     		ldr	r0, [r4, #28]
 221 002c 0343     		orrs	r3, r0
 186:Drivers/STM32F0xx_HAL_Driver/Src/stm32f0xx_hal_dma.c ****           hdma->Init.PeriphInc           | hdma->Init.MemInc           |
 222              		.loc 1 186 7 view .LVU64
 223 002e 1343     		orrs	r3, r2
 224              	.LVL14:
ARM GAS  /tmp/ccsaPaYr.s 			page 21


 192:Drivers/STM32F0xx_HAL_Driver/Src/stm32f0xx_hal_dma.c ****   
 225              		.loc 1 192 3 is_stmt 1 view .LVU65
 192:Drivers/STM32F0xx_HAL_Driver/Src/stm32f0xx_hal_dma.c ****   
 226              		.loc 1 192 23 is_stmt 0 view .LVU66
 227 0030 0B60     		str	r3, [r1]
 196:Drivers/STM32F0xx_HAL_Driver/Src/stm32f0xx_hal_dma.c ****   
 228              		.loc 1 196 3 is_stmt 1 view .LVU67
 229 0032 2000     		movs	r0, r4
 230 0034 FFF7FEFF 		bl	DMA_CalcBaseAndBitshift
 231              	.LVL15:
 199:Drivers/STM32F0xx_HAL_Driver/Src/stm32f0xx_hal_dma.c ****   hdma->XferHalfCpltCallback = NULL;
 232              		.loc 1 199 3 view .LVU68
 199:Drivers/STM32F0xx_HAL_Driver/Src/stm32f0xx_hal_dma.c ****   hdma->XferHalfCpltCallback = NULL;
 233              		.loc 1 199 26 is_stmt 0 view .LVU69
 234 0038 0023     		movs	r3, #0
 235 003a A362     		str	r3, [r4, #40]
 200:Drivers/STM32F0xx_HAL_Driver/Src/stm32f0xx_hal_dma.c ****   hdma->XferErrorCallback = NULL;
 236              		.loc 1 200 3 is_stmt 1 view .LVU70
 200:Drivers/STM32F0xx_HAL_Driver/Src/stm32f0xx_hal_dma.c ****   hdma->XferErrorCallback = NULL;
 237              		.loc 1 200 30 is_stmt 0 view .LVU71
 238 003c E362     		str	r3, [r4, #44]
 201:Drivers/STM32F0xx_HAL_Driver/Src/stm32f0xx_hal_dma.c ****   hdma->XferAbortCallback = NULL;
 239              		.loc 1 201 3 is_stmt 1 view .LVU72
 201:Drivers/STM32F0xx_HAL_Driver/Src/stm32f0xx_hal_dma.c ****   hdma->XferAbortCallback = NULL;
 240              		.loc 1 201 27 is_stmt 0 view .LVU73
 241 003e 2363     		str	r3, [r4, #48]
 202:Drivers/STM32F0xx_HAL_Driver/Src/stm32f0xx_hal_dma.c ****   
 242              		.loc 1 202 3 is_stmt 1 view .LVU74
 202:Drivers/STM32F0xx_HAL_Driver/Src/stm32f0xx_hal_dma.c ****   
 243              		.loc 1 202 27 is_stmt 0 view .LVU75
 244 0040 6363     		str	r3, [r4, #52]
 205:Drivers/STM32F0xx_HAL_Driver/Src/stm32f0xx_hal_dma.c **** 
 245              		.loc 1 205 3 is_stmt 1 view .LVU76
 205:Drivers/STM32F0xx_HAL_Driver/Src/stm32f0xx_hal_dma.c **** 
 246              		.loc 1 205 19 is_stmt 0 view .LVU77
 247 0042 A363     		str	r3, [r4, #56]
 208:Drivers/STM32F0xx_HAL_Driver/Src/stm32f0xx_hal_dma.c ****   
 248              		.loc 1 208 3 is_stmt 1 view .LVU78
 208:Drivers/STM32F0xx_HAL_Driver/Src/stm32f0xx_hal_dma.c ****   
 249              		.loc 1 208 15 is_stmt 0 view .LVU79
 250 0044 0122     		movs	r2, #1
 251 0046 6255     		strb	r2, [r4, r5]
 211:Drivers/STM32F0xx_HAL_Driver/Src/stm32f0xx_hal_dma.c ****   
 252              		.loc 1 211 3 is_stmt 1 view .LVU80
 211:Drivers/STM32F0xx_HAL_Driver/Src/stm32f0xx_hal_dma.c ****   
 253              		.loc 1 211 14 is_stmt 0 view .LVU81
 254 0048 1F32     		adds	r2, r2, #31
 255 004a A354     		strb	r3, [r4, r2]
 213:Drivers/STM32F0xx_HAL_Driver/Src/stm32f0xx_hal_dma.c **** }  
 256              		.loc 1 213 3 is_stmt 1 view .LVU82
 213:Drivers/STM32F0xx_HAL_Driver/Src/stm32f0xx_hal_dma.c **** }  
 257              		.loc 1 213 10 is_stmt 0 view .LVU83
 258 004c 0020     		movs	r0, #0
 259              	.L9:
 214:Drivers/STM32F0xx_HAL_Driver/Src/stm32f0xx_hal_dma.c ****   
 260              		.loc 1 214 1 view .LVU84
 261              		@ sp needed
ARM GAS  /tmp/ccsaPaYr.s 			page 22


 262              	.LVL16:
 214:Drivers/STM32F0xx_HAL_Driver/Src/stm32f0xx_hal_dma.c ****   
 263              		.loc 1 214 1 view .LVU85
 264 004e 70BD     		pop	{r4, r5, r6, pc}
 265              	.LVL17:
 266              	.L10:
 161:Drivers/STM32F0xx_HAL_Driver/Src/stm32f0xx_hal_dma.c ****   }
 267              		.loc 1 161 12 view .LVU86
 268 0050 0120     		movs	r0, #1
 269              	.LVL18:
 161:Drivers/STM32F0xx_HAL_Driver/Src/stm32f0xx_hal_dma.c ****   }
 270              		.loc 1 161 12 view .LVU87
 271 0052 FCE7     		b	.L9
 272              	.L12:
 273              		.align	2
 274              	.L11:
 275 0054 0FC0FFFF 		.word	-16369
 276              		.cfi_endproc
 277              	.LFE37:
 279              		.section	.text.HAL_DMA_DeInit,"ax",%progbits
 280              		.align	1
 281              		.global	HAL_DMA_DeInit
 282              		.syntax unified
 283              		.code	16
 284              		.thumb_func
 285              		.fpu softvfp
 287              	HAL_DMA_DeInit:
 288              	.LVL19:
 289              	.LFB38:
 223:Drivers/STM32F0xx_HAL_Driver/Src/stm32f0xx_hal_dma.c ****   /* Check the DMA handle allocation */
 290              		.loc 1 223 1 is_stmt 1 view -0
 291              		.cfi_startproc
 292              		@ args = 0, pretend = 0, frame = 0
 293              		@ frame_needed = 0, uses_anonymous_args = 0
 223:Drivers/STM32F0xx_HAL_Driver/Src/stm32f0xx_hal_dma.c ****   /* Check the DMA handle allocation */
 294              		.loc 1 223 1 is_stmt 0 view .LVU89
 295 0000 70B5     		push	{r4, r5, r6, lr}
 296              	.LCFI3:
 297              		.cfi_def_cfa_offset 16
 298              		.cfi_offset 4, -16
 299              		.cfi_offset 5, -12
 300              		.cfi_offset 6, -8
 301              		.cfi_offset 14, -4
 302 0002 041E     		subs	r4, r0, #0
 225:Drivers/STM32F0xx_HAL_Driver/Src/stm32f0xx_hal_dma.c ****   {
 303              		.loc 1 225 3 is_stmt 1 view .LVU90
 225:Drivers/STM32F0xx_HAL_Driver/Src/stm32f0xx_hal_dma.c ****   {
 304              		.loc 1 225 5 is_stmt 0 view .LVU91
 305 0004 1AD0     		beq	.L15
 231:Drivers/STM32F0xx_HAL_Driver/Src/stm32f0xx_hal_dma.c **** 
 306              		.loc 1 231 3 is_stmt 1 view .LVU92
 234:Drivers/STM32F0xx_HAL_Driver/Src/stm32f0xx_hal_dma.c **** 
 307              		.loc 1 234 3 view .LVU93
 234:Drivers/STM32F0xx_HAL_Driver/Src/stm32f0xx_hal_dma.c **** 
 308              		.loc 1 234 7 is_stmt 0 view .LVU94
 309 0006 0268     		ldr	r2, [r0]
 234:Drivers/STM32F0xx_HAL_Driver/Src/stm32f0xx_hal_dma.c **** 
ARM GAS  /tmp/ccsaPaYr.s 			page 23


 310              		.loc 1 234 23 view .LVU95
 311 0008 1368     		ldr	r3, [r2]
 312 000a 0126     		movs	r6, #1
 313 000c B343     		bics	r3, r6
 314 000e 1360     		str	r3, [r2]
 237:Drivers/STM32F0xx_HAL_Driver/Src/stm32f0xx_hal_dma.c **** 
 315              		.loc 1 237 3 is_stmt 1 view .LVU96
 237:Drivers/STM32F0xx_HAL_Driver/Src/stm32f0xx_hal_dma.c **** 
 316              		.loc 1 237 7 is_stmt 0 view .LVU97
 317 0010 0368     		ldr	r3, [r0]
 237:Drivers/STM32F0xx_HAL_Driver/Src/stm32f0xx_hal_dma.c **** 
 318              		.loc 1 237 24 view .LVU98
 319 0012 0025     		movs	r5, #0
 320 0014 1D60     		str	r5, [r3]
 240:Drivers/STM32F0xx_HAL_Driver/Src/stm32f0xx_hal_dma.c **** 
 321              		.loc 1 240 3 is_stmt 1 view .LVU99
 240:Drivers/STM32F0xx_HAL_Driver/Src/stm32f0xx_hal_dma.c **** 
 322              		.loc 1 240 7 is_stmt 0 view .LVU100
 323 0016 0368     		ldr	r3, [r0]
 240:Drivers/STM32F0xx_HAL_Driver/Src/stm32f0xx_hal_dma.c **** 
 324              		.loc 1 240 25 view .LVU101
 325 0018 5D60     		str	r5, [r3, #4]
 243:Drivers/STM32F0xx_HAL_Driver/Src/stm32f0xx_hal_dma.c ****   
 326              		.loc 1 243 3 is_stmt 1 view .LVU102
 243:Drivers/STM32F0xx_HAL_Driver/Src/stm32f0xx_hal_dma.c ****   
 327              		.loc 1 243 7 is_stmt 0 view .LVU103
 328 001a 0368     		ldr	r3, [r0]
 243:Drivers/STM32F0xx_HAL_Driver/Src/stm32f0xx_hal_dma.c ****   
 329              		.loc 1 243 25 view .LVU104
 330 001c 9D60     		str	r5, [r3, #8]
 246:Drivers/STM32F0xx_HAL_Driver/Src/stm32f0xx_hal_dma.c **** 
 331              		.loc 1 246 3 is_stmt 1 view .LVU105
 246:Drivers/STM32F0xx_HAL_Driver/Src/stm32f0xx_hal_dma.c **** 
 332              		.loc 1 246 7 is_stmt 0 view .LVU106
 333 001e 0368     		ldr	r3, [r0]
 246:Drivers/STM32F0xx_HAL_Driver/Src/stm32f0xx_hal_dma.c **** 
 334              		.loc 1 246 24 view .LVU107
 335 0020 DD60     		str	r5, [r3, #12]
 249:Drivers/STM32F0xx_HAL_Driver/Src/stm32f0xx_hal_dma.c **** 
 336              		.loc 1 249 3 is_stmt 1 view .LVU108
 337 0022 FFF7FEFF 		bl	DMA_CalcBaseAndBitshift
 338              	.LVL20:
 252:Drivers/STM32F0xx_HAL_Driver/Src/stm32f0xx_hal_dma.c **** 
 339              		.loc 1 252 3 view .LVU109
 252:Drivers/STM32F0xx_HAL_Driver/Src/stm32f0xx_hal_dma.c **** 
 340              		.loc 1 252 7 is_stmt 0 view .LVU110
 341 0026 E36B     		ldr	r3, [r4, #60]
 252:Drivers/STM32F0xx_HAL_Driver/Src/stm32f0xx_hal_dma.c **** 
 342              		.loc 1 252 45 view .LVU111
 343 0028 226C     		ldr	r2, [r4, #64]
 344 002a 9640     		lsls	r6, r6, r2
 252:Drivers/STM32F0xx_HAL_Driver/Src/stm32f0xx_hal_dma.c **** 
 345              		.loc 1 252 30 view .LVU112
 346 002c 5E60     		str	r6, [r3, #4]
 255:Drivers/STM32F0xx_HAL_Driver/Src/stm32f0xx_hal_dma.c **** 
 347              		.loc 1 255 3 is_stmt 1 view .LVU113
 255:Drivers/STM32F0xx_HAL_Driver/Src/stm32f0xx_hal_dma.c **** 
ARM GAS  /tmp/ccsaPaYr.s 			page 24


 348              		.loc 1 255 19 is_stmt 0 view .LVU114
 349 002e A563     		str	r5, [r4, #56]
 258:Drivers/STM32F0xx_HAL_Driver/Src/stm32f0xx_hal_dma.c **** 
 350              		.loc 1 258 3 is_stmt 1 view .LVU115
 258:Drivers/STM32F0xx_HAL_Driver/Src/stm32f0xx_hal_dma.c **** 
 351              		.loc 1 258 15 is_stmt 0 view .LVU116
 352 0030 2123     		movs	r3, #33
 353 0032 E554     		strb	r5, [r4, r3]
 261:Drivers/STM32F0xx_HAL_Driver/Src/stm32f0xx_hal_dma.c **** 
 354              		.loc 1 261 3 is_stmt 1 view .LVU117
 261:Drivers/STM32F0xx_HAL_Driver/Src/stm32f0xx_hal_dma.c **** 
 355              		.loc 1 261 3 view .LVU118
 356 0034 013B     		subs	r3, r3, #1
 357 0036 E554     		strb	r5, [r4, r3]
 263:Drivers/STM32F0xx_HAL_Driver/Src/stm32f0xx_hal_dma.c **** }
 358              		.loc 1 263 3 view .LVU119
 263:Drivers/STM32F0xx_HAL_Driver/Src/stm32f0xx_hal_dma.c **** }
 359              		.loc 1 263 10 is_stmt 0 view .LVU120
 360 0038 0020     		movs	r0, #0
 361              	.L14:
 264:Drivers/STM32F0xx_HAL_Driver/Src/stm32f0xx_hal_dma.c **** 
 362              		.loc 1 264 1 view .LVU121
 363              		@ sp needed
 364              	.LVL21:
 264:Drivers/STM32F0xx_HAL_Driver/Src/stm32f0xx_hal_dma.c **** 
 365              		.loc 1 264 1 view .LVU122
 366 003a 70BD     		pop	{r4, r5, r6, pc}
 367              	.LVL22:
 368              	.L15:
 227:Drivers/STM32F0xx_HAL_Driver/Src/stm32f0xx_hal_dma.c ****   }
 369              		.loc 1 227 12 view .LVU123
 370 003c 0120     		movs	r0, #1
 371              	.LVL23:
 227:Drivers/STM32F0xx_HAL_Driver/Src/stm32f0xx_hal_dma.c ****   }
 372              		.loc 1 227 12 view .LVU124
 373 003e FCE7     		b	.L14
 374              		.cfi_endproc
 375              	.LFE38:
 377              		.section	.text.HAL_DMA_Start,"ax",%progbits
 378              		.align	1
 379              		.global	HAL_DMA_Start
 380              		.syntax unified
 381              		.code	16
 382              		.thumb_func
 383              		.fpu softvfp
 385              	HAL_DMA_Start:
 386              	.LVL24:
 387              	.LFB39:
 299:Drivers/STM32F0xx_HAL_Driver/Src/stm32f0xx_hal_dma.c **** 	HAL_StatusTypeDef status = HAL_OK;
 388              		.loc 1 299 1 is_stmt 1 view -0
 389              		.cfi_startproc
 390              		@ args = 0, pretend = 0, frame = 0
 391              		@ frame_needed = 0, uses_anonymous_args = 0
 299:Drivers/STM32F0xx_HAL_Driver/Src/stm32f0xx_hal_dma.c **** 	HAL_StatusTypeDef status = HAL_OK;
 392              		.loc 1 299 1 is_stmt 0 view .LVU126
 393 0000 70B5     		push	{r4, r5, r6, lr}
 394              	.LCFI4:
ARM GAS  /tmp/ccsaPaYr.s 			page 25


 395              		.cfi_def_cfa_offset 16
 396              		.cfi_offset 4, -16
 397              		.cfi_offset 5, -12
 398              		.cfi_offset 6, -8
 399              		.cfi_offset 14, -4
 400 0002 0400     		movs	r4, r0
 300:Drivers/STM32F0xx_HAL_Driver/Src/stm32f0xx_hal_dma.c **** 
 401              		.loc 1 300 2 is_stmt 1 view .LVU127
 402              	.LVL25:
 303:Drivers/STM32F0xx_HAL_Driver/Src/stm32f0xx_hal_dma.c ****   
 403              		.loc 1 303 3 view .LVU128
 306:Drivers/STM32F0xx_HAL_Driver/Src/stm32f0xx_hal_dma.c ****   
 404              		.loc 1 306 3 view .LVU129
 306:Drivers/STM32F0xx_HAL_Driver/Src/stm32f0xx_hal_dma.c ****   
 405              		.loc 1 306 3 view .LVU130
 406 0004 2020     		movs	r0, #32
 407              	.LVL26:
 306:Drivers/STM32F0xx_HAL_Driver/Src/stm32f0xx_hal_dma.c ****   
 408              		.loc 1 306 3 is_stmt 0 view .LVU131
 409 0006 205C     		ldrb	r0, [r4, r0]
 410 0008 0128     		cmp	r0, #1
 411 000a 1ED0     		beq	.L19
 306:Drivers/STM32F0xx_HAL_Driver/Src/stm32f0xx_hal_dma.c ****   
 412              		.loc 1 306 3 is_stmt 1 discriminator 2 view .LVU132
 413 000c 2020     		movs	r0, #32
 414 000e 0125     		movs	r5, #1
 415 0010 2554     		strb	r5, [r4, r0]
 308:Drivers/STM32F0xx_HAL_Driver/Src/stm32f0xx_hal_dma.c ****   {
 416              		.loc 1 308 3 discriminator 2 view .LVU133
 308:Drivers/STM32F0xx_HAL_Driver/Src/stm32f0xx_hal_dma.c ****   {
 417              		.loc 1 308 33 is_stmt 0 discriminator 2 view .LVU134
 418 0012 0130     		adds	r0, r0, #1
 419 0014 205C     		ldrb	r0, [r4, r0]
 308:Drivers/STM32F0xx_HAL_Driver/Src/stm32f0xx_hal_dma.c ****   {
 420              		.loc 1 308 5 discriminator 2 view .LVU135
 421 0016 0128     		cmp	r0, #1
 422 0018 04D0     		beq	.L20
 327:Drivers/STM32F0xx_HAL_Driver/Src/stm32f0xx_hal_dma.c ****   	
 423              		.loc 1 327 4 is_stmt 1 view .LVU136
 327:Drivers/STM32F0xx_HAL_Driver/Src/stm32f0xx_hal_dma.c ****   	
 424              		.loc 1 327 4 view .LVU137
 425 001a 2023     		movs	r3, #32
 426              	.LVL27:
 327:Drivers/STM32F0xx_HAL_Driver/Src/stm32f0xx_hal_dma.c ****   	
 427              		.loc 1 327 4 is_stmt 0 view .LVU138
 428 001c 0022     		movs	r2, #0
 429              	.LVL28:
 327:Drivers/STM32F0xx_HAL_Driver/Src/stm32f0xx_hal_dma.c ****   	
 430              		.loc 1 327 4 view .LVU139
 431 001e E254     		strb	r2, [r4, r3]
 330:Drivers/STM32F0xx_HAL_Driver/Src/stm32f0xx_hal_dma.c ****   }  
 432              		.loc 1 330 4 is_stmt 1 view .LVU140
 433              	.LVL29:
 330:Drivers/STM32F0xx_HAL_Driver/Src/stm32f0xx_hal_dma.c ****   }  
 434              		.loc 1 330 11 is_stmt 0 view .LVU141
 435 0020 0220     		movs	r0, #2
 436              	.LVL30:
ARM GAS  /tmp/ccsaPaYr.s 			page 26


 437              	.L17:
 334:Drivers/STM32F0xx_HAL_Driver/Src/stm32f0xx_hal_dma.c **** 
 438              		.loc 1 334 1 view .LVU142
 439              		@ sp needed
 440              	.LVL31:
 334:Drivers/STM32F0xx_HAL_Driver/Src/stm32f0xx_hal_dma.c **** 
 441              		.loc 1 334 1 view .LVU143
 442 0022 70BD     		pop	{r4, r5, r6, pc}
 443              	.LVL32:
 444              	.L20:
 311:Drivers/STM32F0xx_HAL_Driver/Src/stm32f0xx_hal_dma.c ****   	
 445              		.loc 1 311 4 is_stmt 1 view .LVU144
 311:Drivers/STM32F0xx_HAL_Driver/Src/stm32f0xx_hal_dma.c ****   	
 446              		.loc 1 311 16 is_stmt 0 view .LVU145
 447 0024 2030     		adds	r0, r0, #32
 448 0026 0135     		adds	r5, r5, #1
 449 0028 2554     		strb	r5, [r4, r0]
 313:Drivers/STM32F0xx_HAL_Driver/Src/stm32f0xx_hal_dma.c ****   	
 450              		.loc 1 313 4 is_stmt 1 view .LVU146
 313:Drivers/STM32F0xx_HAL_Driver/Src/stm32f0xx_hal_dma.c ****   	
 451              		.loc 1 313 20 is_stmt 0 view .LVU147
 452 002a 0020     		movs	r0, #0
 453 002c A063     		str	r0, [r4, #56]
 316:Drivers/STM32F0xx_HAL_Driver/Src/stm32f0xx_hal_dma.c ****   	
 454              		.loc 1 316 4 is_stmt 1 view .LVU148
 316:Drivers/STM32F0xx_HAL_Driver/Src/stm32f0xx_hal_dma.c ****   	
 455              		.loc 1 316 8 is_stmt 0 view .LVU149
 456 002e 2668     		ldr	r6, [r4]
 316:Drivers/STM32F0xx_HAL_Driver/Src/stm32f0xx_hal_dma.c ****   	
 457              		.loc 1 316 24 view .LVU150
 458 0030 3068     		ldr	r0, [r6]
 459 0032 013D     		subs	r5, r5, #1
 460 0034 A843     		bics	r0, r5
 461 0036 3060     		str	r0, [r6]
 319:Drivers/STM32F0xx_HAL_Driver/Src/stm32f0xx_hal_dma.c ****   	
 462              		.loc 1 319 4 is_stmt 1 view .LVU151
 463 0038 2000     		movs	r0, r4
 464 003a FFF7FEFF 		bl	DMA_SetConfig
 465              	.LVL33:
 322:Drivers/STM32F0xx_HAL_Driver/Src/stm32f0xx_hal_dma.c ****   }
 466              		.loc 1 322 4 view .LVU152
 322:Drivers/STM32F0xx_HAL_Driver/Src/stm32f0xx_hal_dma.c ****   }
 467              		.loc 1 322 8 is_stmt 0 view .LVU153
 468 003e 2268     		ldr	r2, [r4]
 322:Drivers/STM32F0xx_HAL_Driver/Src/stm32f0xx_hal_dma.c ****   }
 469              		.loc 1 322 24 view .LVU154
 470 0040 1368     		ldr	r3, [r2]
 471 0042 2B43     		orrs	r3, r5
 472 0044 1360     		str	r3, [r2]
 300:Drivers/STM32F0xx_HAL_Driver/Src/stm32f0xx_hal_dma.c **** 
 473              		.loc 1 300 20 view .LVU155
 474 0046 0020     		movs	r0, #0
 475 0048 EBE7     		b	.L17
 476              	.LVL34:
 477              	.L19:
 306:Drivers/STM32F0xx_HAL_Driver/Src/stm32f0xx_hal_dma.c ****   
 478              		.loc 1 306 3 view .LVU156
ARM GAS  /tmp/ccsaPaYr.s 			page 27


 479 004a 0220     		movs	r0, #2
 480 004c E9E7     		b	.L17
 481              		.cfi_endproc
 482              	.LFE39:
 484              		.section	.text.HAL_DMA_Start_IT,"ax",%progbits
 485              		.align	1
 486              		.global	HAL_DMA_Start_IT
 487              		.syntax unified
 488              		.code	16
 489              		.thumb_func
 490              		.fpu softvfp
 492              	HAL_DMA_Start_IT:
 493              	.LVL35:
 494              	.LFB40:
 346:Drivers/STM32F0xx_HAL_Driver/Src/stm32f0xx_hal_dma.c **** 	HAL_StatusTypeDef status = HAL_OK;
 495              		.loc 1 346 1 is_stmt 1 view -0
 496              		.cfi_startproc
 497              		@ args = 0, pretend = 0, frame = 0
 498              		@ frame_needed = 0, uses_anonymous_args = 0
 346:Drivers/STM32F0xx_HAL_Driver/Src/stm32f0xx_hal_dma.c **** 	HAL_StatusTypeDef status = HAL_OK;
 499              		.loc 1 346 1 is_stmt 0 view .LVU158
 500 0000 70B5     		push	{r4, r5, r6, lr}
 501              	.LCFI5:
 502              		.cfi_def_cfa_offset 16
 503              		.cfi_offset 4, -16
 504              		.cfi_offset 5, -12
 505              		.cfi_offset 6, -8
 506              		.cfi_offset 14, -4
 507 0002 0400     		movs	r4, r0
 347:Drivers/STM32F0xx_HAL_Driver/Src/stm32f0xx_hal_dma.c **** 
 508              		.loc 1 347 2 is_stmt 1 view .LVU159
 509              	.LVL36:
 350:Drivers/STM32F0xx_HAL_Driver/Src/stm32f0xx_hal_dma.c ****   
 510              		.loc 1 350 3 view .LVU160
 353:Drivers/STM32F0xx_HAL_Driver/Src/stm32f0xx_hal_dma.c ****   
 511              		.loc 1 353 3 view .LVU161
 353:Drivers/STM32F0xx_HAL_Driver/Src/stm32f0xx_hal_dma.c ****   
 512              		.loc 1 353 3 view .LVU162
 513 0004 2020     		movs	r0, #32
 514              	.LVL37:
 353:Drivers/STM32F0xx_HAL_Driver/Src/stm32f0xx_hal_dma.c ****   
 515              		.loc 1 353 3 is_stmt 0 view .LVU163
 516 0006 205C     		ldrb	r0, [r4, r0]
 517 0008 0128     		cmp	r0, #1
 518 000a 32D0     		beq	.L26
 353:Drivers/STM32F0xx_HAL_Driver/Src/stm32f0xx_hal_dma.c ****   
 519              		.loc 1 353 3 is_stmt 1 discriminator 2 view .LVU164
 520 000c 2020     		movs	r0, #32
 521 000e 0125     		movs	r5, #1
 522 0010 2554     		strb	r5, [r4, r0]
 355:Drivers/STM32F0xx_HAL_Driver/Src/stm32f0xx_hal_dma.c ****   {
 523              		.loc 1 355 3 discriminator 2 view .LVU165
 355:Drivers/STM32F0xx_HAL_Driver/Src/stm32f0xx_hal_dma.c ****   {
 524              		.loc 1 355 33 is_stmt 0 discriminator 2 view .LVU166
 525 0012 0130     		adds	r0, r0, #1
 526 0014 205C     		ldrb	r0, [r4, r0]
 355:Drivers/STM32F0xx_HAL_Driver/Src/stm32f0xx_hal_dma.c ****   {
ARM GAS  /tmp/ccsaPaYr.s 			page 28


 527              		.loc 1 355 5 discriminator 2 view .LVU167
 528 0016 0128     		cmp	r0, #1
 529 0018 04D0     		beq	.L27
 386:Drivers/STM32F0xx_HAL_Driver/Src/stm32f0xx_hal_dma.c ****   
 530              		.loc 1 386 5 is_stmt 1 view .LVU168
 386:Drivers/STM32F0xx_HAL_Driver/Src/stm32f0xx_hal_dma.c ****   
 531              		.loc 1 386 5 view .LVU169
 532 001a 2023     		movs	r3, #32
 533              	.LVL38:
 386:Drivers/STM32F0xx_HAL_Driver/Src/stm32f0xx_hal_dma.c ****   
 534              		.loc 1 386 5 is_stmt 0 view .LVU170
 535 001c 0022     		movs	r2, #0
 536              	.LVL39:
 386:Drivers/STM32F0xx_HAL_Driver/Src/stm32f0xx_hal_dma.c ****   
 537              		.loc 1 386 5 view .LVU171
 538 001e E254     		strb	r2, [r4, r3]
 389:Drivers/STM32F0xx_HAL_Driver/Src/stm32f0xx_hal_dma.c ****   }     
 539              		.loc 1 389 5 is_stmt 1 view .LVU172
 540              	.LVL40:
 389:Drivers/STM32F0xx_HAL_Driver/Src/stm32f0xx_hal_dma.c ****   }     
 541              		.loc 1 389 12 is_stmt 0 view .LVU173
 542 0020 0220     		movs	r0, #2
 543              	.LVL41:
 544              	.L22:
 393:Drivers/STM32F0xx_HAL_Driver/Src/stm32f0xx_hal_dma.c **** 
 545              		.loc 1 393 1 view .LVU174
 546              		@ sp needed
 547              	.LVL42:
 393:Drivers/STM32F0xx_HAL_Driver/Src/stm32f0xx_hal_dma.c **** 
 548              		.loc 1 393 1 view .LVU175
 549 0022 70BD     		pop	{r4, r5, r6, pc}
 550              	.LVL43:
 551              	.L27:
 358:Drivers/STM32F0xx_HAL_Driver/Src/stm32f0xx_hal_dma.c ****   	
 552              		.loc 1 358 4 is_stmt 1 view .LVU176
 358:Drivers/STM32F0xx_HAL_Driver/Src/stm32f0xx_hal_dma.c ****   	
 553              		.loc 1 358 16 is_stmt 0 view .LVU177
 554 0024 2030     		adds	r0, r0, #32
 555 0026 0135     		adds	r5, r5, #1
 556 0028 2554     		strb	r5, [r4, r0]
 360:Drivers/STM32F0xx_HAL_Driver/Src/stm32f0xx_hal_dma.c ****   	
 557              		.loc 1 360 4 is_stmt 1 view .LVU178
 360:Drivers/STM32F0xx_HAL_Driver/Src/stm32f0xx_hal_dma.c ****   	
 558              		.loc 1 360 20 is_stmt 0 view .LVU179
 559 002a 0020     		movs	r0, #0
 560 002c A063     		str	r0, [r4, #56]
 363:Drivers/STM32F0xx_HAL_Driver/Src/stm32f0xx_hal_dma.c ****   	
 561              		.loc 1 363 4 is_stmt 1 view .LVU180
 363:Drivers/STM32F0xx_HAL_Driver/Src/stm32f0xx_hal_dma.c ****   	
 562              		.loc 1 363 8 is_stmt 0 view .LVU181
 563 002e 2568     		ldr	r5, [r4]
 363:Drivers/STM32F0xx_HAL_Driver/Src/stm32f0xx_hal_dma.c ****   	
 564              		.loc 1 363 24 view .LVU182
 565 0030 2868     		ldr	r0, [r5]
 566 0032 0126     		movs	r6, #1
 567 0034 B043     		bics	r0, r6
 568 0036 2860     		str	r0, [r5]
ARM GAS  /tmp/ccsaPaYr.s 			page 29


 366:Drivers/STM32F0xx_HAL_Driver/Src/stm32f0xx_hal_dma.c ****   	
 569              		.loc 1 366 4 is_stmt 1 view .LVU183
 570 0038 2000     		movs	r0, r4
 571 003a FFF7FEFF 		bl	DMA_SetConfig
 572              	.LVL44:
 370:Drivers/STM32F0xx_HAL_Driver/Src/stm32f0xx_hal_dma.c ****     {
 573              		.loc 1 370 5 view .LVU184
 370:Drivers/STM32F0xx_HAL_Driver/Src/stm32f0xx_hal_dma.c ****     {
 574              		.loc 1 370 7 is_stmt 0 view .LVU185
 575 003e E36A     		ldr	r3, [r4, #44]
 576 0040 002B     		cmp	r3, #0
 577 0042 0BD0     		beq	.L24
 372:Drivers/STM32F0xx_HAL_Driver/Src/stm32f0xx_hal_dma.c ****     }
 578              		.loc 1 372 7 is_stmt 1 view .LVU186
 372:Drivers/STM32F0xx_HAL_Driver/Src/stm32f0xx_hal_dma.c ****     }
 579              		.loc 1 372 11 is_stmt 0 view .LVU187
 580 0044 2268     		ldr	r2, [r4]
 372:Drivers/STM32F0xx_HAL_Driver/Src/stm32f0xx_hal_dma.c ****     }
 581              		.loc 1 372 27 view .LVU188
 582 0046 1368     		ldr	r3, [r2]
 583 0048 0E21     		movs	r1, #14
 584 004a 0B43     		orrs	r3, r1
 585 004c 1360     		str	r3, [r2]
 586              	.L25:
 381:Drivers/STM32F0xx_HAL_Driver/Src/stm32f0xx_hal_dma.c ****   }
 587              		.loc 1 381 4 is_stmt 1 view .LVU189
 381:Drivers/STM32F0xx_HAL_Driver/Src/stm32f0xx_hal_dma.c ****   }
 588              		.loc 1 381 8 is_stmt 0 view .LVU190
 589 004e 2268     		ldr	r2, [r4]
 381:Drivers/STM32F0xx_HAL_Driver/Src/stm32f0xx_hal_dma.c ****   }
 590              		.loc 1 381 24 view .LVU191
 591 0050 1368     		ldr	r3, [r2]
 592 0052 0121     		movs	r1, #1
 593 0054 0B43     		orrs	r3, r1
 594 0056 1360     		str	r3, [r2]
 347:Drivers/STM32F0xx_HAL_Driver/Src/stm32f0xx_hal_dma.c **** 
 595              		.loc 1 347 20 view .LVU192
 596 0058 0020     		movs	r0, #0
 597 005a E2E7     		b	.L22
 598              	.L24:
 376:Drivers/STM32F0xx_HAL_Driver/Src/stm32f0xx_hal_dma.c ****   		hdma->Instance->CCR &= ~DMA_IT_HT;
 599              		.loc 1 376 5 is_stmt 1 view .LVU193
 376:Drivers/STM32F0xx_HAL_Driver/Src/stm32f0xx_hal_dma.c ****   		hdma->Instance->CCR &= ~DMA_IT_HT;
 600              		.loc 1 376 9 is_stmt 0 view .LVU194
 601 005c 2268     		ldr	r2, [r4]
 376:Drivers/STM32F0xx_HAL_Driver/Src/stm32f0xx_hal_dma.c ****   		hdma->Instance->CCR &= ~DMA_IT_HT;
 602              		.loc 1 376 25 view .LVU195
 603 005e 1368     		ldr	r3, [r2]
 604 0060 0A21     		movs	r1, #10
 605 0062 0B43     		orrs	r3, r1
 606 0064 1360     		str	r3, [r2]
 377:Drivers/STM32F0xx_HAL_Driver/Src/stm32f0xx_hal_dma.c ****   	}
 607              		.loc 1 377 5 is_stmt 1 view .LVU196
 377:Drivers/STM32F0xx_HAL_Driver/Src/stm32f0xx_hal_dma.c ****   	}
 608              		.loc 1 377 9 is_stmt 0 view .LVU197
 609 0066 2268     		ldr	r2, [r4]
 377:Drivers/STM32F0xx_HAL_Driver/Src/stm32f0xx_hal_dma.c ****   	}
ARM GAS  /tmp/ccsaPaYr.s 			page 30


 610              		.loc 1 377 25 view .LVU198
 611 0068 1368     		ldr	r3, [r2]
 612 006a 0639     		subs	r1, r1, #6
 613 006c 8B43     		bics	r3, r1
 614 006e 1360     		str	r3, [r2]
 615 0070 EDE7     		b	.L25
 616              	.LVL45:
 617              	.L26:
 353:Drivers/STM32F0xx_HAL_Driver/Src/stm32f0xx_hal_dma.c ****   
 618              		.loc 1 353 3 view .LVU199
 619 0072 0220     		movs	r0, #2
 620 0074 D5E7     		b	.L22
 621              		.cfi_endproc
 622              	.LFE40:
 624              		.section	.text.HAL_DMA_Abort,"ax",%progbits
 625              		.align	1
 626              		.global	HAL_DMA_Abort
 627              		.syntax unified
 628              		.code	16
 629              		.thumb_func
 630              		.fpu softvfp
 632              	HAL_DMA_Abort:
 633              	.LVL46:
 634              	.LFB41:
 402:Drivers/STM32F0xx_HAL_Driver/Src/stm32f0xx_hal_dma.c **** 	/* Disable DMA IT */
 635              		.loc 1 402 1 is_stmt 1 view -0
 636              		.cfi_startproc
 637              		@ args = 0, pretend = 0, frame = 0
 638              		@ frame_needed = 0, uses_anonymous_args = 0
 402:Drivers/STM32F0xx_HAL_Driver/Src/stm32f0xx_hal_dma.c **** 	/* Disable DMA IT */
 639              		.loc 1 402 1 is_stmt 0 view .LVU201
 640 0000 10B5     		push	{r4, lr}
 641              	.LCFI6:
 642              		.cfi_def_cfa_offset 8
 643              		.cfi_offset 4, -8
 644              		.cfi_offset 14, -4
 404:Drivers/STM32F0xx_HAL_Driver/Src/stm32f0xx_hal_dma.c **** 	
 645              		.loc 1 404 3 is_stmt 1 view .LVU202
 404:Drivers/STM32F0xx_HAL_Driver/Src/stm32f0xx_hal_dma.c **** 	
 646              		.loc 1 404 7 is_stmt 0 view .LVU203
 647 0002 0268     		ldr	r2, [r0]
 404:Drivers/STM32F0xx_HAL_Driver/Src/stm32f0xx_hal_dma.c **** 	
 648              		.loc 1 404 23 view .LVU204
 649 0004 1368     		ldr	r3, [r2]
 650 0006 0E21     		movs	r1, #14
 651 0008 8B43     		bics	r3, r1
 652 000a 1360     		str	r3, [r2]
 407:Drivers/STM32F0xx_HAL_Driver/Src/stm32f0xx_hal_dma.c **** 	
 653              		.loc 1 407 2 is_stmt 1 view .LVU205
 407:Drivers/STM32F0xx_HAL_Driver/Src/stm32f0xx_hal_dma.c **** 	
 654              		.loc 1 407 6 is_stmt 0 view .LVU206
 655 000c 0168     		ldr	r1, [r0]
 407:Drivers/STM32F0xx_HAL_Driver/Src/stm32f0xx_hal_dma.c **** 	
 656              		.loc 1 407 22 view .LVU207
 657 000e 0A68     		ldr	r2, [r1]
 658 0010 0123     		movs	r3, #1
 659 0012 9A43     		bics	r2, r3
ARM GAS  /tmp/ccsaPaYr.s 			page 31


 660 0014 0A60     		str	r2, [r1]
 410:Drivers/STM32F0xx_HAL_Driver/Src/stm32f0xx_hal_dma.c **** 	
 661              		.loc 1 410 2 is_stmt 1 view .LVU208
 410:Drivers/STM32F0xx_HAL_Driver/Src/stm32f0xx_hal_dma.c **** 	
 662              		.loc 1 410 6 is_stmt 0 view .LVU209
 663 0016 C26B     		ldr	r2, [r0, #60]
 410:Drivers/STM32F0xx_HAL_Driver/Src/stm32f0xx_hal_dma.c **** 	
 664              		.loc 1 410 45 view .LVU210
 665 0018 1900     		movs	r1, r3
 666 001a 046C     		ldr	r4, [r0, #64]
 667 001c A140     		lsls	r1, r1, r4
 410:Drivers/STM32F0xx_HAL_Driver/Src/stm32f0xx_hal_dma.c **** 	
 668              		.loc 1 410 29 view .LVU211
 669 001e 5160     		str	r1, [r2, #4]
 413:Drivers/STM32F0xx_HAL_Driver/Src/stm32f0xx_hal_dma.c **** 	
 670              		.loc 1 413 2 is_stmt 1 view .LVU212
 413:Drivers/STM32F0xx_HAL_Driver/Src/stm32f0xx_hal_dma.c **** 	
 671              		.loc 1 413 14 is_stmt 0 view .LVU213
 672 0020 2122     		movs	r2, #33
 673 0022 8354     		strb	r3, [r0, r2]
 416:Drivers/STM32F0xx_HAL_Driver/Src/stm32f0xx_hal_dma.c **** 	
 674              		.loc 1 416 2 is_stmt 1 view .LVU214
 416:Drivers/STM32F0xx_HAL_Driver/Src/stm32f0xx_hal_dma.c **** 	
 675              		.loc 1 416 2 view .LVU215
 676 0024 1F33     		adds	r3, r3, #31
 677 0026 0022     		movs	r2, #0
 678 0028 C254     		strb	r2, [r0, r3]
 418:Drivers/STM32F0xx_HAL_Driver/Src/stm32f0xx_hal_dma.c **** }
 679              		.loc 1 418 2 view .LVU216
 419:Drivers/STM32F0xx_HAL_Driver/Src/stm32f0xx_hal_dma.c **** 
 680              		.loc 1 419 1 is_stmt 0 view .LVU217
 681 002a 0020     		movs	r0, #0
 682              	.LVL47:
 419:Drivers/STM32F0xx_HAL_Driver/Src/stm32f0xx_hal_dma.c **** 
 683              		.loc 1 419 1 view .LVU218
 684              		@ sp needed
 685 002c 10BD     		pop	{r4, pc}
 686              		.cfi_endproc
 687              	.LFE41:
 689              		.section	.text.HAL_DMA_Abort_IT,"ax",%progbits
 690              		.align	1
 691              		.global	HAL_DMA_Abort_IT
 692              		.syntax unified
 693              		.code	16
 694              		.thumb_func
 695              		.fpu softvfp
 697              	HAL_DMA_Abort_IT:
 698              	.LVL48:
 699              	.LFB42:
 428:Drivers/STM32F0xx_HAL_Driver/Src/stm32f0xx_hal_dma.c ****   HAL_StatusTypeDef status = HAL_OK;
 700              		.loc 1 428 1 is_stmt 1 view -0
 701              		.cfi_startproc
 702              		@ args = 0, pretend = 0, frame = 0
 703              		@ frame_needed = 0, uses_anonymous_args = 0
 428:Drivers/STM32F0xx_HAL_Driver/Src/stm32f0xx_hal_dma.c ****   HAL_StatusTypeDef status = HAL_OK;
 704              		.loc 1 428 1 is_stmt 0 view .LVU220
 705 0000 10B5     		push	{r4, lr}
ARM GAS  /tmp/ccsaPaYr.s 			page 32


 706              	.LCFI7:
 707              		.cfi_def_cfa_offset 8
 708              		.cfi_offset 4, -8
 709              		.cfi_offset 14, -4
 429:Drivers/STM32F0xx_HAL_Driver/Src/stm32f0xx_hal_dma.c ****   
 710              		.loc 1 429 3 is_stmt 1 view .LVU221
 711              	.LVL49:
 431:Drivers/STM32F0xx_HAL_Driver/Src/stm32f0xx_hal_dma.c ****   {
 712              		.loc 1 431 3 view .LVU222
 431:Drivers/STM32F0xx_HAL_Driver/Src/stm32f0xx_hal_dma.c ****   {
 713              		.loc 1 431 32 is_stmt 0 view .LVU223
 714 0002 2123     		movs	r3, #33
 715 0004 C35C     		ldrb	r3, [r0, r3]
 431:Drivers/STM32F0xx_HAL_Driver/Src/stm32f0xx_hal_dma.c ****   {
 716              		.loc 1 431 5 view .LVU224
 717 0006 022B     		cmp	r3, #2
 718 0008 03D0     		beq	.L30
 434:Drivers/STM32F0xx_HAL_Driver/Src/stm32f0xx_hal_dma.c ****         
 719              		.loc 1 434 5 is_stmt 1 view .LVU225
 434:Drivers/STM32F0xx_HAL_Driver/Src/stm32f0xx_hal_dma.c ****         
 720              		.loc 1 434 21 is_stmt 0 view .LVU226
 721 000a 0423     		movs	r3, #4
 722 000c 8363     		str	r3, [r0, #56]
 436:Drivers/STM32F0xx_HAL_Driver/Src/stm32f0xx_hal_dma.c ****   }
 723              		.loc 1 436 5 is_stmt 1 view .LVU227
 724              	.LVL50:
 436:Drivers/STM32F0xx_HAL_Driver/Src/stm32f0xx_hal_dma.c ****   }
 725              		.loc 1 436 12 is_stmt 0 view .LVU228
 726 000e 0120     		movs	r0, #1
 727              	.LVL51:
 728              	.L31:
 462:Drivers/STM32F0xx_HAL_Driver/Src/stm32f0xx_hal_dma.c **** }
 729              		.loc 1 462 3 is_stmt 1 view .LVU229
 463:Drivers/STM32F0xx_HAL_Driver/Src/stm32f0xx_hal_dma.c **** 
 730              		.loc 1 463 1 is_stmt 0 view .LVU230
 731              		@ sp needed
 732 0010 10BD     		pop	{r4, pc}
 733              	.LVL52:
 734              	.L30:
 442:Drivers/STM32F0xx_HAL_Driver/Src/stm32f0xx_hal_dma.c ****     
 735              		.loc 1 442 5 is_stmt 1 view .LVU231
 442:Drivers/STM32F0xx_HAL_Driver/Src/stm32f0xx_hal_dma.c ****     
 736              		.loc 1 442 9 is_stmt 0 view .LVU232
 737 0012 0268     		ldr	r2, [r0]
 442:Drivers/STM32F0xx_HAL_Driver/Src/stm32f0xx_hal_dma.c ****     
 738              		.loc 1 442 25 view .LVU233
 739 0014 1368     		ldr	r3, [r2]
 740 0016 0E21     		movs	r1, #14
 741 0018 8B43     		bics	r3, r1
 742 001a 1360     		str	r3, [r2]
 445:Drivers/STM32F0xx_HAL_Driver/Src/stm32f0xx_hal_dma.c ****     
 743              		.loc 1 445 5 is_stmt 1 view .LVU234
 445:Drivers/STM32F0xx_HAL_Driver/Src/stm32f0xx_hal_dma.c ****     
 744              		.loc 1 445 9 is_stmt 0 view .LVU235
 745 001c 0168     		ldr	r1, [r0]
 445:Drivers/STM32F0xx_HAL_Driver/Src/stm32f0xx_hal_dma.c ****     
 746              		.loc 1 445 25 view .LVU236
ARM GAS  /tmp/ccsaPaYr.s 			page 33


 747 001e 0A68     		ldr	r2, [r1]
 748 0020 0123     		movs	r3, #1
 749 0022 9A43     		bics	r2, r3
 750 0024 0A60     		str	r2, [r1]
 448:Drivers/STM32F0xx_HAL_Driver/Src/stm32f0xx_hal_dma.c ****     
 751              		.loc 1 448 5 is_stmt 1 view .LVU237
 448:Drivers/STM32F0xx_HAL_Driver/Src/stm32f0xx_hal_dma.c ****     
 752              		.loc 1 448 9 is_stmt 0 view .LVU238
 753 0026 C26B     		ldr	r2, [r0, #60]
 448:Drivers/STM32F0xx_HAL_Driver/Src/stm32f0xx_hal_dma.c ****     
 754              		.loc 1 448 47 view .LVU239
 755 0028 1900     		movs	r1, r3
 756 002a 046C     		ldr	r4, [r0, #64]
 757 002c A140     		lsls	r1, r1, r4
 448:Drivers/STM32F0xx_HAL_Driver/Src/stm32f0xx_hal_dma.c ****     
 758              		.loc 1 448 32 view .LVU240
 759 002e 5160     		str	r1, [r2, #4]
 451:Drivers/STM32F0xx_HAL_Driver/Src/stm32f0xx_hal_dma.c ****     
 760              		.loc 1 451 5 is_stmt 1 view .LVU241
 451:Drivers/STM32F0xx_HAL_Driver/Src/stm32f0xx_hal_dma.c ****     
 761              		.loc 1 451 17 is_stmt 0 view .LVU242
 762 0030 2122     		movs	r2, #33
 763 0032 8354     		strb	r3, [r0, r2]
 454:Drivers/STM32F0xx_HAL_Driver/Src/stm32f0xx_hal_dma.c ****     
 764              		.loc 1 454 5 is_stmt 1 view .LVU243
 454:Drivers/STM32F0xx_HAL_Driver/Src/stm32f0xx_hal_dma.c ****     
 765              		.loc 1 454 5 view .LVU244
 766 0034 1F33     		adds	r3, r3, #31
 767 0036 0022     		movs	r2, #0
 768 0038 C254     		strb	r2, [r0, r3]
 457:Drivers/STM32F0xx_HAL_Driver/Src/stm32f0xx_hal_dma.c ****     {
 769              		.loc 1 457 5 view .LVU245
 457:Drivers/STM32F0xx_HAL_Driver/Src/stm32f0xx_hal_dma.c ****     {
 770              		.loc 1 457 12 is_stmt 0 view .LVU246
 771 003a 436B     		ldr	r3, [r0, #52]
 457:Drivers/STM32F0xx_HAL_Driver/Src/stm32f0xx_hal_dma.c ****     {
 772              		.loc 1 457 7 view .LVU247
 773 003c 002B     		cmp	r3, #0
 774 003e 02D0     		beq	.L32
 459:Drivers/STM32F0xx_HAL_Driver/Src/stm32f0xx_hal_dma.c ****     } 
 775              		.loc 1 459 7 is_stmt 1 view .LVU248
 776 0040 9847     		blx	r3
 777              	.LVL53:
 429:Drivers/STM32F0xx_HAL_Driver/Src/stm32f0xx_hal_dma.c ****   
 778              		.loc 1 429 21 is_stmt 0 view .LVU249
 779 0042 0020     		movs	r0, #0
 780 0044 E4E7     		b	.L31
 781              	.LVL54:
 782              	.L32:
 429:Drivers/STM32F0xx_HAL_Driver/Src/stm32f0xx_hal_dma.c ****   
 783              		.loc 1 429 21 view .LVU250
 784 0046 0020     		movs	r0, #0
 785              	.LVL55:
 429:Drivers/STM32F0xx_HAL_Driver/Src/stm32f0xx_hal_dma.c ****   
 786              		.loc 1 429 21 view .LVU251
 787 0048 E2E7     		b	.L31
 788              		.cfi_endproc
ARM GAS  /tmp/ccsaPaYr.s 			page 34


 789              	.LFE42:
 791              		.section	.text.HAL_DMA_PollForTransfer,"ax",%progbits
 792              		.align	1
 793              		.global	HAL_DMA_PollForTransfer
 794              		.syntax unified
 795              		.code	16
 796              		.thumb_func
 797              		.fpu softvfp
 799              	HAL_DMA_PollForTransfer:
 800              	.LVL56:
 801              	.LFB43:
 474:Drivers/STM32F0xx_HAL_Driver/Src/stm32f0xx_hal_dma.c ****   uint32_t temp;
 802              		.loc 1 474 1 is_stmt 1 view -0
 803              		.cfi_startproc
 804              		@ args = 0, pretend = 0, frame = 8
 805              		@ frame_needed = 0, uses_anonymous_args = 0
 474:Drivers/STM32F0xx_HAL_Driver/Src/stm32f0xx_hal_dma.c ****   uint32_t temp;
 806              		.loc 1 474 1 is_stmt 0 view .LVU253
 807 0000 F0B5     		push	{r4, r5, r6, r7, lr}
 808              	.LCFI8:
 809              		.cfi_def_cfa_offset 20
 810              		.cfi_offset 4, -20
 811              		.cfi_offset 5, -16
 812              		.cfi_offset 6, -12
 813              		.cfi_offset 7, -8
 814              		.cfi_offset 14, -4
 815 0002 83B0     		sub	sp, sp, #12
 816              	.LCFI9:
 817              		.cfi_def_cfa_offset 32
 818 0004 0600     		movs	r6, r0
 819 0006 0C00     		movs	r4, r1
 820 0008 1700     		movs	r7, r2
 475:Drivers/STM32F0xx_HAL_Driver/Src/stm32f0xx_hal_dma.c ****   uint32_t tickstart = 0U;
 821              		.loc 1 475 3 is_stmt 1 view .LVU254
 476:Drivers/STM32F0xx_HAL_Driver/Src/stm32f0xx_hal_dma.c ****   
 822              		.loc 1 476 3 view .LVU255
 823              	.LVL57:
 478:Drivers/STM32F0xx_HAL_Driver/Src/stm32f0xx_hal_dma.c ****   {
 824              		.loc 1 478 3 view .LVU256
 478:Drivers/STM32F0xx_HAL_Driver/Src/stm32f0xx_hal_dma.c ****   {
 825              		.loc 1 478 32 is_stmt 0 view .LVU257
 826 000a 2123     		movs	r3, #33
 827 000c C35C     		ldrb	r3, [r0, r3]
 478:Drivers/STM32F0xx_HAL_Driver/Src/stm32f0xx_hal_dma.c ****   {
 828              		.loc 1 478 5 view .LVU258
 829 000e 022B     		cmp	r3, #2
 830 0010 07D0     		beq	.L34
 481:Drivers/STM32F0xx_HAL_Driver/Src/stm32f0xx_hal_dma.c ****     __HAL_UNLOCK(hdma);
 831              		.loc 1 481 5 is_stmt 1 view .LVU259
 481:Drivers/STM32F0xx_HAL_Driver/Src/stm32f0xx_hal_dma.c ****     __HAL_UNLOCK(hdma);
 832              		.loc 1 481 21 is_stmt 0 view .LVU260
 833 0012 0423     		movs	r3, #4
 834 0014 8363     		str	r3, [r0, #56]
 482:Drivers/STM32F0xx_HAL_Driver/Src/stm32f0xx_hal_dma.c ****     return HAL_ERROR;
 835              		.loc 1 482 5 is_stmt 1 view .LVU261
 482:Drivers/STM32F0xx_HAL_Driver/Src/stm32f0xx_hal_dma.c ****     return HAL_ERROR;
 836              		.loc 1 482 5 view .LVU262
ARM GAS  /tmp/ccsaPaYr.s 			page 35


 837 0016 1C33     		adds	r3, r3, #28
 838 0018 0022     		movs	r2, #0
 839              	.LVL58:
 482:Drivers/STM32F0xx_HAL_Driver/Src/stm32f0xx_hal_dma.c ****     return HAL_ERROR;
 840              		.loc 1 482 5 is_stmt 0 view .LVU263
 841 001a C254     		strb	r2, [r0, r3]
 483:Drivers/STM32F0xx_HAL_Driver/Src/stm32f0xx_hal_dma.c ****   }
 842              		.loc 1 483 5 is_stmt 1 view .LVU264
 483:Drivers/STM32F0xx_HAL_Driver/Src/stm32f0xx_hal_dma.c ****   }
 843              		.loc 1 483 12 is_stmt 0 view .LVU265
 844 001c 0120     		movs	r0, #1
 845              	.LVL59:
 846              	.L35:
 566:Drivers/STM32F0xx_HAL_Driver/Src/stm32f0xx_hal_dma.c **** 
 847              		.loc 1 566 1 view .LVU266
 848 001e 03B0     		add	sp, sp, #12
 849              		@ sp needed
 850              	.LVL60:
 851              	.LVL61:
 852              	.LVL62:
 566:Drivers/STM32F0xx_HAL_Driver/Src/stm32f0xx_hal_dma.c **** 
 853              		.loc 1 566 1 view .LVU267
 854 0020 F0BD     		pop	{r4, r5, r6, r7, pc}
 855              	.LVL63:
 856              	.L34:
 487:Drivers/STM32F0xx_HAL_Driver/Src/stm32f0xx_hal_dma.c ****   {
 857              		.loc 1 487 3 is_stmt 1 view .LVU268
 487:Drivers/STM32F0xx_HAL_Driver/Src/stm32f0xx_hal_dma.c ****   {
 858              		.loc 1 487 21 is_stmt 0 view .LVU269
 859 0022 0368     		ldr	r3, [r0]
 487:Drivers/STM32F0xx_HAL_Driver/Src/stm32f0xx_hal_dma.c ****   {
 860              		.loc 1 487 31 view .LVU270
 861 0024 1B68     		ldr	r3, [r3]
 487:Drivers/STM32F0xx_HAL_Driver/Src/stm32f0xx_hal_dma.c ****   {
 862              		.loc 1 487 6 view .LVU271
 863 0026 9B06     		lsls	r3, r3, #26
 864 0028 24D4     		bmi	.L46
 494:Drivers/STM32F0xx_HAL_Driver/Src/stm32f0xx_hal_dma.c ****   {
 865              		.loc 1 494 3 is_stmt 1 view .LVU272
 494:Drivers/STM32F0xx_HAL_Driver/Src/stm32f0xx_hal_dma.c ****   {
 866              		.loc 1 494 5 is_stmt 0 view .LVU273
 867 002a 0029     		cmp	r1, #0
 868 002c 27D1     		bne	.L37
 497:Drivers/STM32F0xx_HAL_Driver/Src/stm32f0xx_hal_dma.c ****   }
 869              		.loc 1 497 5 is_stmt 1 view .LVU274
 497:Drivers/STM32F0xx_HAL_Driver/Src/stm32f0xx_hal_dma.c ****   }
 870              		.loc 1 497 10 is_stmt 0 view .LVU275
 871 002e 0225     		movs	r5, #2
 872 0030 036C     		ldr	r3, [r0, #64]
 873 0032 9D40     		lsls	r5, r5, r3
 874              	.LVL64:
 875              	.L38:
 506:Drivers/STM32F0xx_HAL_Driver/Src/stm32f0xx_hal_dma.c **** 
 876              		.loc 1 506 3 is_stmt 1 view .LVU276
 506:Drivers/STM32F0xx_HAL_Driver/Src/stm32f0xx_hal_dma.c **** 
 877              		.loc 1 506 15 is_stmt 0 view .LVU277
 878 0034 FFF7FEFF 		bl	HAL_GetTick
ARM GAS  /tmp/ccsaPaYr.s 			page 36


 879              	.LVL65:
 506:Drivers/STM32F0xx_HAL_Driver/Src/stm32f0xx_hal_dma.c **** 
 880              		.loc 1 506 15 view .LVU278
 881 0038 0190     		str	r0, [sp, #4]
 882              	.LVL66:
 508:Drivers/STM32F0xx_HAL_Driver/Src/stm32f0xx_hal_dma.c ****   {
 883              		.loc 1 508 3 is_stmt 1 view .LVU279
 884              	.L41:
 508:Drivers/STM32F0xx_HAL_Driver/Src/stm32f0xx_hal_dma.c ****   {
 885              		.loc 1 508 23 is_stmt 0 view .LVU280
 886 003a F16B     		ldr	r1, [r6, #60]
 508:Drivers/STM32F0xx_HAL_Driver/Src/stm32f0xx_hal_dma.c ****   {
 887              		.loc 1 508 39 view .LVU281
 888 003c 0B68     		ldr	r3, [r1]
 508:Drivers/STM32F0xx_HAL_Driver/Src/stm32f0xx_hal_dma.c ****   {
 889              		.loc 1 508 8 view .LVU282
 890 003e 1D42     		tst	r5, r3
 891 0040 2DD1     		bne	.L47
 510:Drivers/STM32F0xx_HAL_Driver/Src/stm32f0xx_hal_dma.c ****     {      
 892              		.loc 1 510 5 is_stmt 1 view .LVU283
 510:Drivers/STM32F0xx_HAL_Driver/Src/stm32f0xx_hal_dma.c ****     {      
 893              		.loc 1 510 38 is_stmt 0 view .LVU284
 894 0042 0868     		ldr	r0, [r1]
 510:Drivers/STM32F0xx_HAL_Driver/Src/stm32f0xx_hal_dma.c ****     {      
 895              		.loc 1 510 67 view .LVU285
 896 0044 326C     		ldr	r2, [r6, #64]
 510:Drivers/STM32F0xx_HAL_Driver/Src/stm32f0xx_hal_dma.c ****     {      
 897              		.loc 1 510 60 view .LVU286
 898 0046 0823     		movs	r3, #8
 899 0048 9340     		lsls	r3, r3, r2
 510:Drivers/STM32F0xx_HAL_Driver/Src/stm32f0xx_hal_dma.c ****     {      
 900              		.loc 1 510 7 view .LVU287
 901 004a 0342     		tst	r3, r0
 902 004c 1BD1     		bne	.L48
 529:Drivers/STM32F0xx_HAL_Driver/Src/stm32f0xx_hal_dma.c ****     {
 903              		.loc 1 529 5 is_stmt 1 view .LVU288
 529:Drivers/STM32F0xx_HAL_Driver/Src/stm32f0xx_hal_dma.c ****     {
 904              		.loc 1 529 7 is_stmt 0 view .LVU289
 905 004e 7B1C     		adds	r3, r7, #1
 906 0050 F3D0     		beq	.L41
 531:Drivers/STM32F0xx_HAL_Driver/Src/stm32f0xx_hal_dma.c ****       {
 907              		.loc 1 531 7 is_stmt 1 view .LVU290
 531:Drivers/STM32F0xx_HAL_Driver/Src/stm32f0xx_hal_dma.c ****       {
 908              		.loc 1 531 9 is_stmt 0 view .LVU291
 909 0052 002F     		cmp	r7, #0
 910 0054 05D0     		beq	.L42
 531:Drivers/STM32F0xx_HAL_Driver/Src/stm32f0xx_hal_dma.c ****       {
 911              		.loc 1 531 31 discriminator 1 view .LVU292
 912 0056 FFF7FEFF 		bl	HAL_GetTick
 913              	.LVL67:
 531:Drivers/STM32F0xx_HAL_Driver/Src/stm32f0xx_hal_dma.c ****       {
 914              		.loc 1 531 45 discriminator 1 view .LVU293
 915 005a 019B     		ldr	r3, [sp, #4]
 916 005c C01A     		subs	r0, r0, r3
 531:Drivers/STM32F0xx_HAL_Driver/Src/stm32f0xx_hal_dma.c ****       {
 917              		.loc 1 531 26 discriminator 1 view .LVU294
 918 005e B842     		cmp	r0, r7
ARM GAS  /tmp/ccsaPaYr.s 			page 37


 919 0060 EBD9     		bls	.L41
 920              	.L42:
 534:Drivers/STM32F0xx_HAL_Driver/Src/stm32f0xx_hal_dma.c ****         
 921              		.loc 1 534 9 is_stmt 1 view .LVU295
 534:Drivers/STM32F0xx_HAL_Driver/Src/stm32f0xx_hal_dma.c ****         
 922              		.loc 1 534 25 is_stmt 0 view .LVU296
 923 0062 2023     		movs	r3, #32
 924 0064 B363     		str	r3, [r6, #56]
 537:Drivers/STM32F0xx_HAL_Driver/Src/stm32f0xx_hal_dma.c **** 
 925              		.loc 1 537 9 is_stmt 1 view .LVU297
 537:Drivers/STM32F0xx_HAL_Driver/Src/stm32f0xx_hal_dma.c **** 
 926              		.loc 1 537 21 is_stmt 0 view .LVU298
 927 0066 2122     		movs	r2, #33
 928 0068 0121     		movs	r1, #1
 929 006a B154     		strb	r1, [r6, r2]
 540:Drivers/STM32F0xx_HAL_Driver/Src/stm32f0xx_hal_dma.c **** 
 930              		.loc 1 540 9 is_stmt 1 view .LVU299
 540:Drivers/STM32F0xx_HAL_Driver/Src/stm32f0xx_hal_dma.c **** 
 931              		.loc 1 540 9 view .LVU300
 932 006c 0022     		movs	r2, #0
 933 006e F254     		strb	r2, [r6, r3]
 542:Drivers/STM32F0xx_HAL_Driver/Src/stm32f0xx_hal_dma.c ****       }
 934              		.loc 1 542 9 view .LVU301
 542:Drivers/STM32F0xx_HAL_Driver/Src/stm32f0xx_hal_dma.c ****       }
 935              		.loc 1 542 16 is_stmt 0 view .LVU302
 936 0070 0120     		movs	r0, #1
 937 0072 D4E7     		b	.L35
 938              	.LVL68:
 939              	.L46:
 489:Drivers/STM32F0xx_HAL_Driver/Src/stm32f0xx_hal_dma.c ****     return HAL_ERROR;
 940              		.loc 1 489 5 is_stmt 1 view .LVU303
 489:Drivers/STM32F0xx_HAL_Driver/Src/stm32f0xx_hal_dma.c ****     return HAL_ERROR;
 941              		.loc 1 489 21 is_stmt 0 view .LVU304
 942 0074 8023     		movs	r3, #128
 943 0076 5B00     		lsls	r3, r3, #1
 944 0078 8363     		str	r3, [r0, #56]
 490:Drivers/STM32F0xx_HAL_Driver/Src/stm32f0xx_hal_dma.c ****   }
 945              		.loc 1 490 5 is_stmt 1 view .LVU305
 490:Drivers/STM32F0xx_HAL_Driver/Src/stm32f0xx_hal_dma.c ****   }
 946              		.loc 1 490 12 is_stmt 0 view .LVU306
 947 007a 0120     		movs	r0, #1
 948              	.LVL69:
 490:Drivers/STM32F0xx_HAL_Driver/Src/stm32f0xx_hal_dma.c ****   }
 949              		.loc 1 490 12 view .LVU307
 950 007c CFE7     		b	.L35
 951              	.LVL70:
 952              	.L37:
 502:Drivers/STM32F0xx_HAL_Driver/Src/stm32f0xx_hal_dma.c ****   }
 953              		.loc 1 502 5 is_stmt 1 view .LVU308
 502:Drivers/STM32F0xx_HAL_Driver/Src/stm32f0xx_hal_dma.c ****   }
 954              		.loc 1 502 10 is_stmt 0 view .LVU309
 955 007e 0425     		movs	r5, #4
 956 0080 036C     		ldr	r3, [r0, #64]
 957 0082 9D40     		lsls	r5, r5, r3
 958              	.LVL71:
 502:Drivers/STM32F0xx_HAL_Driver/Src/stm32f0xx_hal_dma.c ****   }
 959              		.loc 1 502 10 view .LVU310
ARM GAS  /tmp/ccsaPaYr.s 			page 38


 960 0084 D6E7     		b	.L38
 961              	.LVL72:
 962              	.L48:
 515:Drivers/STM32F0xx_HAL_Driver/Src/stm32f0xx_hal_dma.c ****       
 963              		.loc 1 515 7 is_stmt 1 view .LVU311
 515:Drivers/STM32F0xx_HAL_Driver/Src/stm32f0xx_hal_dma.c ****       
 964              		.loc 1 515 49 is_stmt 0 view .LVU312
 965 0086 0123     		movs	r3, #1
 966 0088 1800     		movs	r0, r3
 967 008a 9040     		lsls	r0, r0, r2
 515:Drivers/STM32F0xx_HAL_Driver/Src/stm32f0xx_hal_dma.c ****       
 968              		.loc 1 515 34 view .LVU313
 969 008c 4860     		str	r0, [r1, #4]
 518:Drivers/STM32F0xx_HAL_Driver/Src/stm32f0xx_hal_dma.c **** 
 970              		.loc 1 518 7 is_stmt 1 view .LVU314
 518:Drivers/STM32F0xx_HAL_Driver/Src/stm32f0xx_hal_dma.c **** 
 971              		.loc 1 518 23 is_stmt 0 view .LVU315
 972 008e B363     		str	r3, [r6, #56]
 521:Drivers/STM32F0xx_HAL_Driver/Src/stm32f0xx_hal_dma.c ****       
 973              		.loc 1 521 7 is_stmt 1 view .LVU316
 521:Drivers/STM32F0xx_HAL_Driver/Src/stm32f0xx_hal_dma.c ****       
 974              		.loc 1 521 18 is_stmt 0 view .LVU317
 975 0090 2122     		movs	r2, #33
 976 0092 B354     		strb	r3, [r6, r2]
 524:Drivers/STM32F0xx_HAL_Driver/Src/stm32f0xx_hal_dma.c ****       
 977              		.loc 1 524 7 is_stmt 1 view .LVU318
 524:Drivers/STM32F0xx_HAL_Driver/Src/stm32f0xx_hal_dma.c ****       
 978              		.loc 1 524 7 view .LVU319
 979 0094 1F33     		adds	r3, r3, #31
 980 0096 0022     		movs	r2, #0
 981 0098 F254     		strb	r2, [r6, r3]
 526:Drivers/STM32F0xx_HAL_Driver/Src/stm32f0xx_hal_dma.c ****     }      
 982              		.loc 1 526 7 view .LVU320
 526:Drivers/STM32F0xx_HAL_Driver/Src/stm32f0xx_hal_dma.c ****     }      
 983              		.loc 1 526 14 is_stmt 0 view .LVU321
 984 009a 0120     		movs	r0, #1
 985 009c BFE7     		b	.L35
 986              	.L47:
 547:Drivers/STM32F0xx_HAL_Driver/Src/stm32f0xx_hal_dma.c ****   {
 987              		.loc 1 547 3 is_stmt 1 view .LVU322
 547:Drivers/STM32F0xx_HAL_Driver/Src/stm32f0xx_hal_dma.c ****   {
 988              		.loc 1 547 5 is_stmt 0 view .LVU323
 989 009e 002C     		cmp	r4, #0
 990 00a0 0BD1     		bne	.L44
 550:Drivers/STM32F0xx_HAL_Driver/Src/stm32f0xx_hal_dma.c **** 
 991              		.loc 1 550 5 is_stmt 1 view .LVU324
 550:Drivers/STM32F0xx_HAL_Driver/Src/stm32f0xx_hal_dma.c **** 
 992              		.loc 1 550 47 is_stmt 0 view .LVU325
 993 00a2 0223     		movs	r3, #2
 994 00a4 326C     		ldr	r2, [r6, #64]
 995 00a6 9340     		lsls	r3, r3, r2
 550:Drivers/STM32F0xx_HAL_Driver/Src/stm32f0xx_hal_dma.c **** 
 996              		.loc 1 550 32 view .LVU326
 997 00a8 4B60     		str	r3, [r1, #4]
 554:Drivers/STM32F0xx_HAL_Driver/Src/stm32f0xx_hal_dma.c ****   }
 998              		.loc 1 554 5 is_stmt 1 view .LVU327
 554:Drivers/STM32F0xx_HAL_Driver/Src/stm32f0xx_hal_dma.c ****   }
ARM GAS  /tmp/ccsaPaYr.s 			page 39


 999              		.loc 1 554 17 is_stmt 0 view .LVU328
 1000 00aa 2123     		movs	r3, #33
 1001 00ac 0122     		movs	r2, #1
 1002 00ae F254     		strb	r2, [r6, r3]
 1003              	.L45:
 563:Drivers/STM32F0xx_HAL_Driver/Src/stm32f0xx_hal_dma.c **** 
 1004              		.loc 1 563 3 is_stmt 1 view .LVU329
 563:Drivers/STM32F0xx_HAL_Driver/Src/stm32f0xx_hal_dma.c **** 
 1005              		.loc 1 563 3 view .LVU330
 1006 00b0 2023     		movs	r3, #32
 1007 00b2 0022     		movs	r2, #0
 1008 00b4 F254     		strb	r2, [r6, r3]
 565:Drivers/STM32F0xx_HAL_Driver/Src/stm32f0xx_hal_dma.c **** }
 1009              		.loc 1 565 3 view .LVU331
 565:Drivers/STM32F0xx_HAL_Driver/Src/stm32f0xx_hal_dma.c **** }
 1010              		.loc 1 565 10 is_stmt 0 view .LVU332
 1011 00b6 0020     		movs	r0, #0
 1012 00b8 B1E7     		b	.L35
 1013              	.L44:
 559:Drivers/STM32F0xx_HAL_Driver/Src/stm32f0xx_hal_dma.c ****   }
 1014              		.loc 1 559 5 is_stmt 1 view .LVU333
 559:Drivers/STM32F0xx_HAL_Driver/Src/stm32f0xx_hal_dma.c ****   }
 1015              		.loc 1 559 47 is_stmt 0 view .LVU334
 1016 00ba 0423     		movs	r3, #4
 1017 00bc 326C     		ldr	r2, [r6, #64]
 1018 00be 9340     		lsls	r3, r3, r2
 559:Drivers/STM32F0xx_HAL_Driver/Src/stm32f0xx_hal_dma.c ****   }
 1019              		.loc 1 559 32 view .LVU335
 1020 00c0 4B60     		str	r3, [r1, #4]
 1021 00c2 F5E7     		b	.L45
 1022              		.cfi_endproc
 1023              	.LFE43:
 1025              		.section	.text.HAL_DMA_IRQHandler,"ax",%progbits
 1026              		.align	1
 1027              		.global	HAL_DMA_IRQHandler
 1028              		.syntax unified
 1029              		.code	16
 1030              		.thumb_func
 1031              		.fpu softvfp
 1033              	HAL_DMA_IRQHandler:
 1034              	.LVL73:
 1035              	.LFB44:
 575:Drivers/STM32F0xx_HAL_Driver/Src/stm32f0xx_hal_dma.c **** 	uint32_t flag_it = hdma->DmaBaseAddress->ISR;
 1036              		.loc 1 575 1 is_stmt 1 view -0
 1037              		.cfi_startproc
 1038              		@ args = 0, pretend = 0, frame = 0
 1039              		@ frame_needed = 0, uses_anonymous_args = 0
 575:Drivers/STM32F0xx_HAL_Driver/Src/stm32f0xx_hal_dma.c **** 	uint32_t flag_it = hdma->DmaBaseAddress->ISR;
 1040              		.loc 1 575 1 is_stmt 0 view .LVU337
 1041 0000 70B5     		push	{r4, r5, r6, lr}
 1042              	.LCFI10:
 1043              		.cfi_def_cfa_offset 16
 1044              		.cfi_offset 4, -16
 1045              		.cfi_offset 5, -12
 1046              		.cfi_offset 6, -8
 1047              		.cfi_offset 14, -4
 576:Drivers/STM32F0xx_HAL_Driver/Src/stm32f0xx_hal_dma.c ****   uint32_t source_it = hdma->Instance->CCR;
ARM GAS  /tmp/ccsaPaYr.s 			page 40


 1048              		.loc 1 576 2 is_stmt 1 view .LVU338
 576:Drivers/STM32F0xx_HAL_Driver/Src/stm32f0xx_hal_dma.c ****   uint32_t source_it = hdma->Instance->CCR;
 1049              		.loc 1 576 25 is_stmt 0 view .LVU339
 1050 0002 C36B     		ldr	r3, [r0, #60]
 576:Drivers/STM32F0xx_HAL_Driver/Src/stm32f0xx_hal_dma.c ****   uint32_t source_it = hdma->Instance->CCR;
 1051              		.loc 1 576 11 view .LVU340
 1052 0004 1A68     		ldr	r2, [r3]
 1053              	.LVL74:
 577:Drivers/STM32F0xx_HAL_Driver/Src/stm32f0xx_hal_dma.c ****           
 1054              		.loc 1 577 3 is_stmt 1 view .LVU341
 577:Drivers/STM32F0xx_HAL_Driver/Src/stm32f0xx_hal_dma.c ****           
 1055              		.loc 1 577 28 is_stmt 0 view .LVU342
 1056 0006 0468     		ldr	r4, [r0]
 577:Drivers/STM32F0xx_HAL_Driver/Src/stm32f0xx_hal_dma.c ****           
 1057              		.loc 1 577 12 view .LVU343
 1058 0008 2568     		ldr	r5, [r4]
 1059              	.LVL75:
 580:Drivers/STM32F0xx_HAL_Driver/Src/stm32f0xx_hal_dma.c ****   {
 1060              		.loc 1 580 3 is_stmt 1 view .LVU344
 580:Drivers/STM32F0xx_HAL_Driver/Src/stm32f0xx_hal_dma.c ****   {
 1061              		.loc 1 580 49 is_stmt 0 view .LVU345
 1062 000a 016C     		ldr	r1, [r0, #64]
 580:Drivers/STM32F0xx_HAL_Driver/Src/stm32f0xx_hal_dma.c ****   {
 1063              		.loc 1 580 42 view .LVU346
 1064 000c 0423     		movs	r3, #4
 1065 000e 8B40     		lsls	r3, r3, r1
 580:Drivers/STM32F0xx_HAL_Driver/Src/stm32f0xx_hal_dma.c ****   {
 1066              		.loc 1 580 6 view .LVU347
 1067 0010 1A42     		tst	r2, r3
 1068 0012 12D0     		beq	.L50
 580:Drivers/STM32F0xx_HAL_Driver/Src/stm32f0xx_hal_dma.c ****   {
 1069              		.loc 1 580 67 discriminator 1 view .LVU348
 1070 0014 6B07     		lsls	r3, r5, #29
 1071 0016 10D5     		bpl	.L50
 583:Drivers/STM32F0xx_HAL_Driver/Src/stm32f0xx_hal_dma.c ****   	{
 1072              		.loc 1 583 4 is_stmt 1 view .LVU349
 583:Drivers/STM32F0xx_HAL_Driver/Src/stm32f0xx_hal_dma.c ****   	{
 1073              		.loc 1 583 22 is_stmt 0 view .LVU350
 1074 0018 2368     		ldr	r3, [r4]
 583:Drivers/STM32F0xx_HAL_Driver/Src/stm32f0xx_hal_dma.c ****   	{
 1075              		.loc 1 583 6 view .LVU351
 1076 001a 9B06     		lsls	r3, r3, #26
 1077 001c 03D4     		bmi	.L51
 586:Drivers/STM32F0xx_HAL_Driver/Src/stm32f0xx_hal_dma.c ****   	}
 1078              		.loc 1 586 5 is_stmt 1 view .LVU352
 586:Drivers/STM32F0xx_HAL_Driver/Src/stm32f0xx_hal_dma.c ****   	}
 1079              		.loc 1 586 25 is_stmt 0 view .LVU353
 1080 001e 2368     		ldr	r3, [r4]
 1081 0020 0422     		movs	r2, #4
 1082              	.LVL76:
 586:Drivers/STM32F0xx_HAL_Driver/Src/stm32f0xx_hal_dma.c ****   	}
 1083              		.loc 1 586 25 view .LVU354
 1084 0022 9343     		bics	r3, r2
 1085 0024 2360     		str	r3, [r4]
 1086              	.L51:
 590:Drivers/STM32F0xx_HAL_Driver/Src/stm32f0xx_hal_dma.c ****   	
 1087              		.loc 1 590 4 is_stmt 1 view .LVU355
ARM GAS  /tmp/ccsaPaYr.s 			page 41


 590:Drivers/STM32F0xx_HAL_Driver/Src/stm32f0xx_hal_dma.c ****   	
 1088              		.loc 1 590 8 is_stmt 0 view .LVU356
 1089 0026 C26B     		ldr	r2, [r0, #60]
 590:Drivers/STM32F0xx_HAL_Driver/Src/stm32f0xx_hal_dma.c ****   	
 1090              		.loc 1 590 46 view .LVU357
 1091 0028 0423     		movs	r3, #4
 1092 002a 016C     		ldr	r1, [r0, #64]
 1093 002c 8B40     		lsls	r3, r3, r1
 590:Drivers/STM32F0xx_HAL_Driver/Src/stm32f0xx_hal_dma.c ****   	
 1094              		.loc 1 590 31 view .LVU358
 1095 002e 5360     		str	r3, [r2, #4]
 595:Drivers/STM32F0xx_HAL_Driver/Src/stm32f0xx_hal_dma.c ****   	{
 1096              		.loc 1 595 4 is_stmt 1 view .LVU359
 595:Drivers/STM32F0xx_HAL_Driver/Src/stm32f0xx_hal_dma.c ****   	{
 1097              		.loc 1 595 11 is_stmt 0 view .LVU360
 1098 0030 C36A     		ldr	r3, [r0, #44]
 595:Drivers/STM32F0xx_HAL_Driver/Src/stm32f0xx_hal_dma.c ****   	{
 1099              		.loc 1 595 6 view .LVU361
 1100 0032 002B     		cmp	r3, #0
 1101 0034 00D0     		beq	.L49
 598:Drivers/STM32F0xx_HAL_Driver/Src/stm32f0xx_hal_dma.c ****   	}
 1102              		.loc 1 598 5 is_stmt 1 view .LVU362
 1103 0036 9847     		blx	r3
 1104              	.LVL77:
 1105              	.L49:
 654:Drivers/STM32F0xx_HAL_Driver/Src/stm32f0xx_hal_dma.c **** 
 1106              		.loc 1 654 1 is_stmt 0 view .LVU363
 1107              		@ sp needed
 1108              	.LVL78:
 654:Drivers/STM32F0xx_HAL_Driver/Src/stm32f0xx_hal_dma.c **** 
 1109              		.loc 1 654 1 view .LVU364
 1110 0038 70BD     		pop	{r4, r5, r6, pc}
 1111              	.LVL79:
 1112              	.L50:
 603:Drivers/STM32F0xx_HAL_Driver/Src/stm32f0xx_hal_dma.c ****   {
 1113              		.loc 1 603 8 is_stmt 1 view .LVU365
 603:Drivers/STM32F0xx_HAL_Driver/Src/stm32f0xx_hal_dma.c ****   {
 1114              		.loc 1 603 47 is_stmt 0 view .LVU366
 1115 003a 0223     		movs	r3, #2
 1116 003c 8B40     		lsls	r3, r3, r1
 603:Drivers/STM32F0xx_HAL_Driver/Src/stm32f0xx_hal_dma.c ****   {
 1117              		.loc 1 603 11 view .LVU367
 1118 003e 1A42     		tst	r2, r3
 1119 0040 18D0     		beq	.L53
 603:Drivers/STM32F0xx_HAL_Driver/Src/stm32f0xx_hal_dma.c ****   {
 1120              		.loc 1 603 72 discriminator 1 view .LVU368
 1121 0042 AB07     		lsls	r3, r5, #30
 1122 0044 16D5     		bpl	.L53
 605:Drivers/STM32F0xx_HAL_Driver/Src/stm32f0xx_hal_dma.c ****   	{
 1123              		.loc 1 605 4 is_stmt 1 view .LVU369
 605:Drivers/STM32F0xx_HAL_Driver/Src/stm32f0xx_hal_dma.c ****   	{
 1124              		.loc 1 605 22 is_stmt 0 view .LVU370
 1125 0046 2368     		ldr	r3, [r4]
 605:Drivers/STM32F0xx_HAL_Driver/Src/stm32f0xx_hal_dma.c ****   	{
 1126              		.loc 1 605 6 view .LVU371
 1127 0048 9B06     		lsls	r3, r3, #26
 1128 004a 06D4     		bmi	.L54
ARM GAS  /tmp/ccsaPaYr.s 			page 42


 609:Drivers/STM32F0xx_HAL_Driver/Src/stm32f0xx_hal_dma.c ****   		
 1129              		.loc 1 609 5 is_stmt 1 view .LVU372
 609:Drivers/STM32F0xx_HAL_Driver/Src/stm32f0xx_hal_dma.c ****   		
 1130              		.loc 1 609 25 is_stmt 0 view .LVU373
 1131 004c 2368     		ldr	r3, [r4]
 1132 004e 0A22     		movs	r2, #10
 1133              	.LVL80:
 609:Drivers/STM32F0xx_HAL_Driver/Src/stm32f0xx_hal_dma.c ****   		
 1134              		.loc 1 609 25 view .LVU374
 1135 0050 9343     		bics	r3, r2
 1136 0052 2360     		str	r3, [r4]
 612:Drivers/STM32F0xx_HAL_Driver/Src/stm32f0xx_hal_dma.c ****   	}
 1137              		.loc 1 612 5 is_stmt 1 view .LVU375
 612:Drivers/STM32F0xx_HAL_Driver/Src/stm32f0xx_hal_dma.c ****   	}
 1138              		.loc 1 612 17 is_stmt 0 view .LVU376
 1139 0054 2123     		movs	r3, #33
 1140 0056 093A     		subs	r2, r2, #9
 1141 0058 C254     		strb	r2, [r0, r3]
 1142              	.L54:
 616:Drivers/STM32F0xx_HAL_Driver/Src/stm32f0xx_hal_dma.c ****   	
 1143              		.loc 1 616 4 is_stmt 1 view .LVU377
 616:Drivers/STM32F0xx_HAL_Driver/Src/stm32f0xx_hal_dma.c ****   	
 1144              		.loc 1 616 8 is_stmt 0 view .LVU378
 1145 005a C26B     		ldr	r2, [r0, #60]
 616:Drivers/STM32F0xx_HAL_Driver/Src/stm32f0xx_hal_dma.c ****   	
 1146              		.loc 1 616 46 view .LVU379
 1147 005c 0223     		movs	r3, #2
 1148 005e 016C     		ldr	r1, [r0, #64]
 1149 0060 8B40     		lsls	r3, r3, r1
 616:Drivers/STM32F0xx_HAL_Driver/Src/stm32f0xx_hal_dma.c ****   	
 1150              		.loc 1 616 31 view .LVU380
 1151 0062 5360     		str	r3, [r2, #4]
 619:Drivers/STM32F0xx_HAL_Driver/Src/stm32f0xx_hal_dma.c ****   	
 1152              		.loc 1 619 4 is_stmt 1 view .LVU381
 619:Drivers/STM32F0xx_HAL_Driver/Src/stm32f0xx_hal_dma.c ****   	
 1153              		.loc 1 619 4 view .LVU382
 1154 0064 2023     		movs	r3, #32
 1155 0066 0022     		movs	r2, #0
 1156 0068 C254     		strb	r2, [r0, r3]
 621:Drivers/STM32F0xx_HAL_Driver/Src/stm32f0xx_hal_dma.c ****   	{
 1157              		.loc 1 621 4 view .LVU383
 621:Drivers/STM32F0xx_HAL_Driver/Src/stm32f0xx_hal_dma.c ****   	{
 1158              		.loc 1 621 11 is_stmt 0 view .LVU384
 1159 006a 836A     		ldr	r3, [r0, #40]
 621:Drivers/STM32F0xx_HAL_Driver/Src/stm32f0xx_hal_dma.c ****   	{
 1160              		.loc 1 621 6 view .LVU385
 1161 006c 002B     		cmp	r3, #0
 1162 006e E3D0     		beq	.L49
 624:Drivers/STM32F0xx_HAL_Driver/Src/stm32f0xx_hal_dma.c ****   	}
 1163              		.loc 1 624 5 is_stmt 1 view .LVU386
 1164 0070 9847     		blx	r3
 1165              	.LVL81:
 624:Drivers/STM32F0xx_HAL_Driver/Src/stm32f0xx_hal_dma.c ****   	}
 1166              		.loc 1 624 5 is_stmt 0 view .LVU387
 1167 0072 E1E7     		b	.L49
 1168              	.LVL82:
 1169              	.L53:
ARM GAS  /tmp/ccsaPaYr.s 			page 43


 629:Drivers/STM32F0xx_HAL_Driver/Src/stm32f0xx_hal_dma.c ****   {
 1170              		.loc 1 629 8 is_stmt 1 view .LVU388
 629:Drivers/STM32F0xx_HAL_Driver/Src/stm32f0xx_hal_dma.c ****   {
 1171              		.loc 1 629 48 is_stmt 0 view .LVU389
 1172 0074 0823     		movs	r3, #8
 1173 0076 8B40     		lsls	r3, r3, r1
 629:Drivers/STM32F0xx_HAL_Driver/Src/stm32f0xx_hal_dma.c ****   {
 1174              		.loc 1 629 11 view .LVU390
 1175 0078 1A42     		tst	r2, r3
 1176 007a DDD0     		beq	.L49
 629:Drivers/STM32F0xx_HAL_Driver/Src/stm32f0xx_hal_dma.c ****   {
 1177              		.loc 1 629 73 discriminator 1 view .LVU391
 1178 007c 2B07     		lsls	r3, r5, #28
 1179 007e DBD5     		bpl	.L49
 634:Drivers/STM32F0xx_HAL_Driver/Src/stm32f0xx_hal_dma.c ****     
 1180              		.loc 1 634 5 is_stmt 1 view .LVU392
 634:Drivers/STM32F0xx_HAL_Driver/Src/stm32f0xx_hal_dma.c ****     
 1181              		.loc 1 634 25 is_stmt 0 view .LVU393
 1182 0080 2368     		ldr	r3, [r4]
 1183 0082 0E22     		movs	r2, #14
 1184              	.LVL83:
 634:Drivers/STM32F0xx_HAL_Driver/Src/stm32f0xx_hal_dma.c ****     
 1185              		.loc 1 634 25 view .LVU394
 1186 0084 9343     		bics	r3, r2
 1187 0086 2360     		str	r3, [r4]
 637:Drivers/STM32F0xx_HAL_Driver/Src/stm32f0xx_hal_dma.c ****     
 1188              		.loc 1 637 5 is_stmt 1 view .LVU395
 637:Drivers/STM32F0xx_HAL_Driver/Src/stm32f0xx_hal_dma.c ****     
 1189              		.loc 1 637 9 is_stmt 0 view .LVU396
 1190 0088 C26B     		ldr	r2, [r0, #60]
 637:Drivers/STM32F0xx_HAL_Driver/Src/stm32f0xx_hal_dma.c ****     
 1191              		.loc 1 637 47 view .LVU397
 1192 008a 0123     		movs	r3, #1
 1193 008c 1900     		movs	r1, r3
 1194 008e 046C     		ldr	r4, [r0, #64]
 1195 0090 A140     		lsls	r1, r1, r4
 637:Drivers/STM32F0xx_HAL_Driver/Src/stm32f0xx_hal_dma.c ****     
 1196              		.loc 1 637 32 view .LVU398
 1197 0092 5160     		str	r1, [r2, #4]
 640:Drivers/STM32F0xx_HAL_Driver/Src/stm32f0xx_hal_dma.c ****     
 1198              		.loc 1 640 5 is_stmt 1 view .LVU399
 640:Drivers/STM32F0xx_HAL_Driver/Src/stm32f0xx_hal_dma.c ****     
 1199              		.loc 1 640 21 is_stmt 0 view .LVU400
 1200 0094 8363     		str	r3, [r0, #56]
 643:Drivers/STM32F0xx_HAL_Driver/Src/stm32f0xx_hal_dma.c ****     
 1201              		.loc 1 643 5 is_stmt 1 view .LVU401
 643:Drivers/STM32F0xx_HAL_Driver/Src/stm32f0xx_hal_dma.c ****     
 1202              		.loc 1 643 17 is_stmt 0 view .LVU402
 1203 0096 2122     		movs	r2, #33
 1204 0098 8354     		strb	r3, [r0, r2]
 646:Drivers/STM32F0xx_HAL_Driver/Src/stm32f0xx_hal_dma.c ****     
 1205              		.loc 1 646 5 is_stmt 1 view .LVU403
 646:Drivers/STM32F0xx_HAL_Driver/Src/stm32f0xx_hal_dma.c ****     
 1206              		.loc 1 646 5 view .LVU404
 1207 009a 1F33     		adds	r3, r3, #31
 1208 009c 0022     		movs	r2, #0
 1209 009e C254     		strb	r2, [r0, r3]
ARM GAS  /tmp/ccsaPaYr.s 			page 44


 648:Drivers/STM32F0xx_HAL_Driver/Src/stm32f0xx_hal_dma.c ****     {
 1210              		.loc 1 648 5 view .LVU405
 648:Drivers/STM32F0xx_HAL_Driver/Src/stm32f0xx_hal_dma.c ****     {
 1211              		.loc 1 648 12 is_stmt 0 view .LVU406
 1212 00a0 036B     		ldr	r3, [r0, #48]
 648:Drivers/STM32F0xx_HAL_Driver/Src/stm32f0xx_hal_dma.c ****     {
 1213              		.loc 1 648 7 view .LVU407
 1214 00a2 002B     		cmp	r3, #0
 1215 00a4 C8D0     		beq	.L49
 651:Drivers/STM32F0xx_HAL_Driver/Src/stm32f0xx_hal_dma.c ****     }
 1216              		.loc 1 651 6 is_stmt 1 view .LVU408
 1217 00a6 9847     		blx	r3
 1218              	.LVL84:
 654:Drivers/STM32F0xx_HAL_Driver/Src/stm32f0xx_hal_dma.c **** 
 1219              		.loc 1 654 1 is_stmt 0 view .LVU409
 1220 00a8 C6E7     		b	.L49
 1221              		.cfi_endproc
 1222              	.LFE44:
 1224              		.section	.text.HAL_DMA_RegisterCallback,"ax",%progbits
 1225              		.align	1
 1226              		.global	HAL_DMA_RegisterCallback
 1227              		.syntax unified
 1228              		.code	16
 1229              		.thumb_func
 1230              		.fpu softvfp
 1232              	HAL_DMA_RegisterCallback:
 1233              	.LVL85:
 1234              	.LFB45:
 667:Drivers/STM32F0xx_HAL_Driver/Src/stm32f0xx_hal_dma.c ****   HAL_StatusTypeDef status = HAL_OK;
 1235              		.loc 1 667 1 is_stmt 1 view -0
 1236              		.cfi_startproc
 1237              		@ args = 0, pretend = 0, frame = 0
 1238              		@ frame_needed = 0, uses_anonymous_args = 0
 667:Drivers/STM32F0xx_HAL_Driver/Src/stm32f0xx_hal_dma.c ****   HAL_StatusTypeDef status = HAL_OK;
 1239              		.loc 1 667 1 is_stmt 0 view .LVU411
 1240 0000 10B5     		push	{r4, lr}
 1241              	.LCFI11:
 1242              		.cfi_def_cfa_offset 8
 1243              		.cfi_offset 4, -8
 1244              		.cfi_offset 14, -4
 1245 0002 0300     		movs	r3, r0
 668:Drivers/STM32F0xx_HAL_Driver/Src/stm32f0xx_hal_dma.c ****   
 1246              		.loc 1 668 3 is_stmt 1 view .LVU412
 1247              	.LVL86:
 671:Drivers/STM32F0xx_HAL_Driver/Src/stm32f0xx_hal_dma.c ****   
 1248              		.loc 1 671 3 view .LVU413
 671:Drivers/STM32F0xx_HAL_Driver/Src/stm32f0xx_hal_dma.c ****   
 1249              		.loc 1 671 3 view .LVU414
 1250 0004 2020     		movs	r0, #32
 1251              	.LVL87:
 671:Drivers/STM32F0xx_HAL_Driver/Src/stm32f0xx_hal_dma.c ****   
 1252              		.loc 1 671 3 is_stmt 0 view .LVU415
 1253 0006 185C     		ldrb	r0, [r3, r0]
 1254 0008 0128     		cmp	r0, #1
 1255 000a 1ED0     		beq	.L63
 671:Drivers/STM32F0xx_HAL_Driver/Src/stm32f0xx_hal_dma.c ****   
 1256              		.loc 1 671 3 is_stmt 1 discriminator 2 view .LVU416
ARM GAS  /tmp/ccsaPaYr.s 			page 45


 673:Drivers/STM32F0xx_HAL_Driver/Src/stm32f0xx_hal_dma.c ****   {
 1257              		.loc 1 673 3 discriminator 2 view .LVU417
 673:Drivers/STM32F0xx_HAL_Driver/Src/stm32f0xx_hal_dma.c ****   {
 1258              		.loc 1 673 33 is_stmt 0 discriminator 2 view .LVU418
 1259 000c 2120     		movs	r0, #33
 1260 000e 1C5C     		ldrb	r4, [r3, r0]
 1261 0010 E0B2     		uxtb	r0, r4
 673:Drivers/STM32F0xx_HAL_Driver/Src/stm32f0xx_hal_dma.c ****   {
 1262              		.loc 1 673 5 discriminator 2 view .LVU419
 1263 0012 012C     		cmp	r4, #1
 1264 0014 04D0     		beq	.L65
 700:Drivers/STM32F0xx_HAL_Driver/Src/stm32f0xx_hal_dma.c ****   } 
 1265              		.loc 1 700 12 view .LVU420
 1266 0016 0120     		movs	r0, #1
 1267              	.L57:
 1268              	.LVL88:
 704:Drivers/STM32F0xx_HAL_Driver/Src/stm32f0xx_hal_dma.c ****   
 1269              		.loc 1 704 3 is_stmt 1 view .LVU421
 704:Drivers/STM32F0xx_HAL_Driver/Src/stm32f0xx_hal_dma.c ****   
 1270              		.loc 1 704 3 view .LVU422
 1271 0018 2022     		movs	r2, #32
 1272              	.LVL89:
 704:Drivers/STM32F0xx_HAL_Driver/Src/stm32f0xx_hal_dma.c ****   
 1273              		.loc 1 704 3 is_stmt 0 view .LVU423
 1274 001a 0021     		movs	r1, #0
 1275              	.LVL90:
 704:Drivers/STM32F0xx_HAL_Driver/Src/stm32f0xx_hal_dma.c ****   
 1276              		.loc 1 704 3 view .LVU424
 1277 001c 9954     		strb	r1, [r3, r2]
 706:Drivers/STM32F0xx_HAL_Driver/Src/stm32f0xx_hal_dma.c **** }
 1278              		.loc 1 706 3 is_stmt 1 view .LVU425
 1279              	.LVL91:
 1280              	.L56:
 707:Drivers/STM32F0xx_HAL_Driver/Src/stm32f0xx_hal_dma.c **** 
 1281              		.loc 1 707 1 is_stmt 0 view .LVU426
 1282              		@ sp needed
 1283 001e 10BD     		pop	{r4, pc}
 1284              	.LVL92:
 1285              	.L65:
 675:Drivers/STM32F0xx_HAL_Driver/Src/stm32f0xx_hal_dma.c ****     {
 1286              		.loc 1 675 5 is_stmt 1 view .LVU427
 1287 0020 0229     		cmp	r1, #2
 1288 0022 0FD0     		beq	.L58
 1289 0024 06D8     		bhi	.L59
 1290 0026 0029     		cmp	r1, #0
 1291 0028 09D0     		beq	.L60
 1292 002a 0129     		cmp	r1, #1
 1293 002c F4D1     		bne	.L57
 682:Drivers/STM32F0xx_HAL_Driver/Src/stm32f0xx_hal_dma.c ****            break;         
 1294              		.loc 1 682 12 view .LVU428
 682:Drivers/STM32F0xx_HAL_Driver/Src/stm32f0xx_hal_dma.c ****            break;         
 1295              		.loc 1 682 39 is_stmt 0 view .LVU429
 1296 002e DA62     		str	r2, [r3, #44]
 683:Drivers/STM32F0xx_HAL_Driver/Src/stm32f0xx_hal_dma.c **** 
 1297              		.loc 1 683 12 is_stmt 1 view .LVU430
 668:Drivers/STM32F0xx_HAL_Driver/Src/stm32f0xx_hal_dma.c ****   
 1298              		.loc 1 668 21 is_stmt 0 view .LVU431
ARM GAS  /tmp/ccsaPaYr.s 			page 46


 1299 0030 0020     		movs	r0, #0
 683:Drivers/STM32F0xx_HAL_Driver/Src/stm32f0xx_hal_dma.c **** 
 1300              		.loc 1 683 12 view .LVU432
 1301 0032 F1E7     		b	.L57
 1302              	.L59:
 675:Drivers/STM32F0xx_HAL_Driver/Src/stm32f0xx_hal_dma.c ****     {
 1303              		.loc 1 675 5 view .LVU433
 1304 0034 0329     		cmp	r1, #3
 1305 0036 EFD1     		bne	.L57
 690:Drivers/STM32F0xx_HAL_Driver/Src/stm32f0xx_hal_dma.c ****            break; 
 1306              		.loc 1 690 12 is_stmt 1 view .LVU434
 690:Drivers/STM32F0xx_HAL_Driver/Src/stm32f0xx_hal_dma.c ****            break; 
 1307              		.loc 1 690 36 is_stmt 0 view .LVU435
 1308 0038 5A63     		str	r2, [r3, #52]
 691:Drivers/STM32F0xx_HAL_Driver/Src/stm32f0xx_hal_dma.c ****            
 1309              		.loc 1 691 12 is_stmt 1 view .LVU436
 668:Drivers/STM32F0xx_HAL_Driver/Src/stm32f0xx_hal_dma.c ****   
 1310              		.loc 1 668 21 is_stmt 0 view .LVU437
 1311 003a 0020     		movs	r0, #0
 691:Drivers/STM32F0xx_HAL_Driver/Src/stm32f0xx_hal_dma.c ****            
 1312              		.loc 1 691 12 view .LVU438
 1313 003c ECE7     		b	.L57
 1314              	.L60:
 678:Drivers/STM32F0xx_HAL_Driver/Src/stm32f0xx_hal_dma.c ****            break;
 1315              		.loc 1 678 12 is_stmt 1 view .LVU439
 678:Drivers/STM32F0xx_HAL_Driver/Src/stm32f0xx_hal_dma.c ****            break;
 1316              		.loc 1 678 35 is_stmt 0 view .LVU440
 1317 003e 9A62     		str	r2, [r3, #40]
 679:Drivers/STM32F0xx_HAL_Driver/Src/stm32f0xx_hal_dma.c ****        
 1318              		.loc 1 679 12 is_stmt 1 view .LVU441
 668:Drivers/STM32F0xx_HAL_Driver/Src/stm32f0xx_hal_dma.c ****   
 1319              		.loc 1 668 21 is_stmt 0 view .LVU442
 1320 0040 0800     		movs	r0, r1
 679:Drivers/STM32F0xx_HAL_Driver/Src/stm32f0xx_hal_dma.c ****        
 1321              		.loc 1 679 12 view .LVU443
 1322 0042 E9E7     		b	.L57
 1323              	.L58:
 686:Drivers/STM32F0xx_HAL_Driver/Src/stm32f0xx_hal_dma.c ****            break;         
 1324              		.loc 1 686 12 is_stmt 1 view .LVU444
 686:Drivers/STM32F0xx_HAL_Driver/Src/stm32f0xx_hal_dma.c ****            break;         
 1325              		.loc 1 686 36 is_stmt 0 view .LVU445
 1326 0044 1A63     		str	r2, [r3, #48]
 687:Drivers/STM32F0xx_HAL_Driver/Src/stm32f0xx_hal_dma.c ****            
 1327              		.loc 1 687 12 is_stmt 1 view .LVU446
 668:Drivers/STM32F0xx_HAL_Driver/Src/stm32f0xx_hal_dma.c ****   
 1328              		.loc 1 668 21 is_stmt 0 view .LVU447
 1329 0046 0020     		movs	r0, #0
 687:Drivers/STM32F0xx_HAL_Driver/Src/stm32f0xx_hal_dma.c ****            
 1330              		.loc 1 687 12 view .LVU448
 1331 0048 E6E7     		b	.L57
 1332              	.L63:
 671:Drivers/STM32F0xx_HAL_Driver/Src/stm32f0xx_hal_dma.c ****   
 1333              		.loc 1 671 3 view .LVU449
 1334 004a 0220     		movs	r0, #2
 1335 004c E7E7     		b	.L56
 1336              		.cfi_endproc
 1337              	.LFE45:
ARM GAS  /tmp/ccsaPaYr.s 			page 47


 1339              		.section	.text.HAL_DMA_UnRegisterCallback,"ax",%progbits
 1340              		.align	1
 1341              		.global	HAL_DMA_UnRegisterCallback
 1342              		.syntax unified
 1343              		.code	16
 1344              		.thumb_func
 1345              		.fpu softvfp
 1347              	HAL_DMA_UnRegisterCallback:
 1348              	.LVL93:
 1349              	.LFB46:
 718:Drivers/STM32F0xx_HAL_Driver/Src/stm32f0xx_hal_dma.c ****   HAL_StatusTypeDef status = HAL_OK;
 1350              		.loc 1 718 1 is_stmt 1 view -0
 1351              		.cfi_startproc
 1352              		@ args = 0, pretend = 0, frame = 0
 1353              		@ frame_needed = 0, uses_anonymous_args = 0
 1354              		@ link register save eliminated.
 718:Drivers/STM32F0xx_HAL_Driver/Src/stm32f0xx_hal_dma.c ****   HAL_StatusTypeDef status = HAL_OK;
 1355              		.loc 1 718 1 is_stmt 0 view .LVU451
 1356 0000 0300     		movs	r3, r0
 719:Drivers/STM32F0xx_HAL_Driver/Src/stm32f0xx_hal_dma.c **** 
 1357              		.loc 1 719 3 is_stmt 1 view .LVU452
 1358              	.LVL94:
 722:Drivers/STM32F0xx_HAL_Driver/Src/stm32f0xx_hal_dma.c ****   
 1359              		.loc 1 722 3 view .LVU453
 722:Drivers/STM32F0xx_HAL_Driver/Src/stm32f0xx_hal_dma.c ****   
 1360              		.loc 1 722 3 view .LVU454
 1361 0002 2022     		movs	r2, #32
 1362 0004 825C     		ldrb	r2, [r0, r2]
 1363 0006 012A     		cmp	r2, #1
 1364 0008 29D0     		beq	.L75
 722:Drivers/STM32F0xx_HAL_Driver/Src/stm32f0xx_hal_dma.c ****   
 1365              		.loc 1 722 3 discriminator 2 view .LVU455
 1366 000a 2022     		movs	r2, #32
 1367 000c 0120     		movs	r0, #1
 1368              	.LVL95:
 722:Drivers/STM32F0xx_HAL_Driver/Src/stm32f0xx_hal_dma.c ****   
 1369              		.loc 1 722 3 is_stmt 0 discriminator 2 view .LVU456
 1370 000e 9854     		strb	r0, [r3, r2]
 724:Drivers/STM32F0xx_HAL_Driver/Src/stm32f0xx_hal_dma.c ****   {
 1371              		.loc 1 724 3 is_stmt 1 discriminator 2 view .LVU457
 724:Drivers/STM32F0xx_HAL_Driver/Src/stm32f0xx_hal_dma.c ****   {
 1372              		.loc 1 724 33 is_stmt 0 discriminator 2 view .LVU458
 1373 0010 0132     		adds	r2, r2, #1
 1374 0012 9A5C     		ldrb	r2, [r3, r2]
 1375 0014 D0B2     		uxtb	r0, r2
 724:Drivers/STM32F0xx_HAL_Driver/Src/stm32f0xx_hal_dma.c ****   {
 1376              		.loc 1 724 5 discriminator 2 view .LVU459
 1377 0016 012A     		cmp	r2, #1
 1378 0018 04D0     		beq	.L77
 758:Drivers/STM32F0xx_HAL_Driver/Src/stm32f0xx_hal_dma.c ****   } 
 1379              		.loc 1 758 12 view .LVU460
 1380 001a 0120     		movs	r0, #1
 1381              	.L68:
 1382              	.LVL96:
 762:Drivers/STM32F0xx_HAL_Driver/Src/stm32f0xx_hal_dma.c ****   
 1383              		.loc 1 762 3 is_stmt 1 view .LVU461
 762:Drivers/STM32F0xx_HAL_Driver/Src/stm32f0xx_hal_dma.c ****   
ARM GAS  /tmp/ccsaPaYr.s 			page 48


 1384              		.loc 1 762 3 view .LVU462
 1385 001c 2022     		movs	r2, #32
 1386 001e 0021     		movs	r1, #0
 1387              	.LVL97:
 762:Drivers/STM32F0xx_HAL_Driver/Src/stm32f0xx_hal_dma.c ****   
 1388              		.loc 1 762 3 is_stmt 0 view .LVU463
 1389 0020 9954     		strb	r1, [r3, r2]
 764:Drivers/STM32F0xx_HAL_Driver/Src/stm32f0xx_hal_dma.c **** }
 1390              		.loc 1 764 3 is_stmt 1 view .LVU464
 1391              	.LVL98:
 1392              	.L67:
 765:Drivers/STM32F0xx_HAL_Driver/Src/stm32f0xx_hal_dma.c **** 
 1393              		.loc 1 765 1 is_stmt 0 view .LVU465
 1394              		@ sp needed
 1395 0022 7047     		bx	lr
 1396              	.LVL99:
 1397              	.L77:
 726:Drivers/STM32F0xx_HAL_Driver/Src/stm32f0xx_hal_dma.c ****     {
 1398              		.loc 1 726 5 is_stmt 1 view .LVU466
 1399 0024 0429     		cmp	r1, #4
 1400 0026 F9D8     		bhi	.L68
 1401 0028 8A00     		lsls	r2, r1, #2
 1402 002a 0E48     		ldr	r0, .L78
 1403 002c 8258     		ldr	r2, [r0, r2]
 1404 002e 9746     		mov	pc, r2
 1405              		.section	.rodata.HAL_DMA_UnRegisterCallback,"a",%progbits
 1406              		.align	2
 1407              	.L70:
 1408 0000 30000000 		.word	.L74
 1409 0004 38000000 		.word	.L73
 1410 0008 40000000 		.word	.L72
 1411 000c 48000000 		.word	.L71
 1412 0010 50000000 		.word	.L69
 1413              		.section	.text.HAL_DMA_UnRegisterCallback
 1414              	.L74:
 729:Drivers/STM32F0xx_HAL_Driver/Src/stm32f0xx_hal_dma.c ****            break;
 1415              		.loc 1 729 12 view .LVU467
 729:Drivers/STM32F0xx_HAL_Driver/Src/stm32f0xx_hal_dma.c ****            break;
 1416              		.loc 1 729 35 is_stmt 0 view .LVU468
 1417 0030 0022     		movs	r2, #0
 1418 0032 9A62     		str	r2, [r3, #40]
 730:Drivers/STM32F0xx_HAL_Driver/Src/stm32f0xx_hal_dma.c ****        
 1419              		.loc 1 730 12 is_stmt 1 view .LVU469
 719:Drivers/STM32F0xx_HAL_Driver/Src/stm32f0xx_hal_dma.c **** 
 1420              		.loc 1 719 21 is_stmt 0 view .LVU470
 1421 0034 0800     		movs	r0, r1
 730:Drivers/STM32F0xx_HAL_Driver/Src/stm32f0xx_hal_dma.c ****        
 1422              		.loc 1 730 12 view .LVU471
 1423 0036 F1E7     		b	.L68
 1424              	.L73:
 733:Drivers/STM32F0xx_HAL_Driver/Src/stm32f0xx_hal_dma.c ****            break;         
 1425              		.loc 1 733 12 is_stmt 1 view .LVU472
 733:Drivers/STM32F0xx_HAL_Driver/Src/stm32f0xx_hal_dma.c ****            break;         
 1426              		.loc 1 733 39 is_stmt 0 view .LVU473
 1427 0038 0022     		movs	r2, #0
 1428 003a DA62     		str	r2, [r3, #44]
 734:Drivers/STM32F0xx_HAL_Driver/Src/stm32f0xx_hal_dma.c **** 
ARM GAS  /tmp/ccsaPaYr.s 			page 49


 1429              		.loc 1 734 12 is_stmt 1 view .LVU474
 719:Drivers/STM32F0xx_HAL_Driver/Src/stm32f0xx_hal_dma.c **** 
 1430              		.loc 1 719 21 is_stmt 0 view .LVU475
 1431 003c 0020     		movs	r0, #0
 734:Drivers/STM32F0xx_HAL_Driver/Src/stm32f0xx_hal_dma.c **** 
 1432              		.loc 1 734 12 view .LVU476
 1433 003e EDE7     		b	.L68
 1434              	.L72:
 737:Drivers/STM32F0xx_HAL_Driver/Src/stm32f0xx_hal_dma.c ****            break;         
 1435              		.loc 1 737 12 is_stmt 1 view .LVU477
 737:Drivers/STM32F0xx_HAL_Driver/Src/stm32f0xx_hal_dma.c ****            break;         
 1436              		.loc 1 737 36 is_stmt 0 view .LVU478
 1437 0040 0022     		movs	r2, #0
 1438 0042 1A63     		str	r2, [r3, #48]
 738:Drivers/STM32F0xx_HAL_Driver/Src/stm32f0xx_hal_dma.c ****            
 1439              		.loc 1 738 12 is_stmt 1 view .LVU479
 719:Drivers/STM32F0xx_HAL_Driver/Src/stm32f0xx_hal_dma.c **** 
 1440              		.loc 1 719 21 is_stmt 0 view .LVU480
 1441 0044 0020     		movs	r0, #0
 738:Drivers/STM32F0xx_HAL_Driver/Src/stm32f0xx_hal_dma.c ****            
 1442              		.loc 1 738 12 view .LVU481
 1443 0046 E9E7     		b	.L68
 1444              	.L71:
 741:Drivers/STM32F0xx_HAL_Driver/Src/stm32f0xx_hal_dma.c ****            break; 
 1445              		.loc 1 741 12 is_stmt 1 view .LVU482
 741:Drivers/STM32F0xx_HAL_Driver/Src/stm32f0xx_hal_dma.c ****            break; 
 1446              		.loc 1 741 36 is_stmt 0 view .LVU483
 1447 0048 0022     		movs	r2, #0
 1448 004a 5A63     		str	r2, [r3, #52]
 742:Drivers/STM32F0xx_HAL_Driver/Src/stm32f0xx_hal_dma.c ****      
 1449              		.loc 1 742 12 is_stmt 1 view .LVU484
 719:Drivers/STM32F0xx_HAL_Driver/Src/stm32f0xx_hal_dma.c **** 
 1450              		.loc 1 719 21 is_stmt 0 view .LVU485
 1451 004c 0020     		movs	r0, #0
 742:Drivers/STM32F0xx_HAL_Driver/Src/stm32f0xx_hal_dma.c ****      
 1452              		.loc 1 742 12 view .LVU486
 1453 004e E5E7     		b	.L68
 1454              	.L69:
 745:Drivers/STM32F0xx_HAL_Driver/Src/stm32f0xx_hal_dma.c ****            hdma->XferHalfCpltCallback = NULL;
 1455              		.loc 1 745 12 is_stmt 1 view .LVU487
 745:Drivers/STM32F0xx_HAL_Driver/Src/stm32f0xx_hal_dma.c ****            hdma->XferHalfCpltCallback = NULL;
 1456              		.loc 1 745 35 is_stmt 0 view .LVU488
 1457 0050 0022     		movs	r2, #0
 1458 0052 9A62     		str	r2, [r3, #40]
 746:Drivers/STM32F0xx_HAL_Driver/Src/stm32f0xx_hal_dma.c ****            hdma->XferErrorCallback = NULL;
 1459              		.loc 1 746 12 is_stmt 1 view .LVU489
 746:Drivers/STM32F0xx_HAL_Driver/Src/stm32f0xx_hal_dma.c ****            hdma->XferErrorCallback = NULL;
 1460              		.loc 1 746 39 is_stmt 0 view .LVU490
 1461 0054 DA62     		str	r2, [r3, #44]
 747:Drivers/STM32F0xx_HAL_Driver/Src/stm32f0xx_hal_dma.c ****            hdma->XferAbortCallback = NULL;
 1462              		.loc 1 747 12 is_stmt 1 view .LVU491
 747:Drivers/STM32F0xx_HAL_Driver/Src/stm32f0xx_hal_dma.c ****            hdma->XferAbortCallback = NULL;
 1463              		.loc 1 747 36 is_stmt 0 view .LVU492
 1464 0056 1A63     		str	r2, [r3, #48]
 748:Drivers/STM32F0xx_HAL_Driver/Src/stm32f0xx_hal_dma.c ****            break; 
 1465              		.loc 1 748 12 is_stmt 1 view .LVU493
 748:Drivers/STM32F0xx_HAL_Driver/Src/stm32f0xx_hal_dma.c ****            break; 
ARM GAS  /tmp/ccsaPaYr.s 			page 50


 1466              		.loc 1 748 36 is_stmt 0 view .LVU494
 1467 0058 5A63     		str	r2, [r3, #52]
 749:Drivers/STM32F0xx_HAL_Driver/Src/stm32f0xx_hal_dma.c ****      
 1468              		.loc 1 749 12 is_stmt 1 view .LVU495
 719:Drivers/STM32F0xx_HAL_Driver/Src/stm32f0xx_hal_dma.c **** 
 1469              		.loc 1 719 21 is_stmt 0 view .LVU496
 1470 005a 0020     		movs	r0, #0
 749:Drivers/STM32F0xx_HAL_Driver/Src/stm32f0xx_hal_dma.c ****      
 1471              		.loc 1 749 12 view .LVU497
 1472 005c DEE7     		b	.L68
 1473              	.LVL100:
 1474              	.L75:
 722:Drivers/STM32F0xx_HAL_Driver/Src/stm32f0xx_hal_dma.c ****   
 1475              		.loc 1 722 3 view .LVU498
 1476 005e 0220     		movs	r0, #2
 1477              	.LVL101:
 722:Drivers/STM32F0xx_HAL_Driver/Src/stm32f0xx_hal_dma.c ****   
 1478              		.loc 1 722 3 view .LVU499
 1479 0060 DFE7     		b	.L67
 1480              	.L79:
 1481 0062 C046     		.align	2
 1482              	.L78:
 1483 0064 00000000 		.word	.L70
 1484              		.cfi_endproc
 1485              	.LFE46:
 1487              		.section	.text.HAL_DMA_GetState,"ax",%progbits
 1488              		.align	1
 1489              		.global	HAL_DMA_GetState
 1490              		.syntax unified
 1491              		.code	16
 1492              		.thumb_func
 1493              		.fpu softvfp
 1495              	HAL_DMA_GetState:
 1496              	.LVL102:
 1497              	.LFB47:
 794:Drivers/STM32F0xx_HAL_Driver/Src/stm32f0xx_hal_dma.c ****   return hdma->State;
 1498              		.loc 1 794 1 is_stmt 1 view -0
 1499              		.cfi_startproc
 1500              		@ args = 0, pretend = 0, frame = 0
 1501              		@ frame_needed = 0, uses_anonymous_args = 0
 1502              		@ link register save eliminated.
 795:Drivers/STM32F0xx_HAL_Driver/Src/stm32f0xx_hal_dma.c **** }
 1503              		.loc 1 795 3 view .LVU501
 795:Drivers/STM32F0xx_HAL_Driver/Src/stm32f0xx_hal_dma.c **** }
 1504              		.loc 1 795 14 is_stmt 0 view .LVU502
 1505 0000 2123     		movs	r3, #33
 1506 0002 C05C     		ldrb	r0, [r0, r3]
 1507              	.LVL103:
 795:Drivers/STM32F0xx_HAL_Driver/Src/stm32f0xx_hal_dma.c **** }
 1508              		.loc 1 795 14 view .LVU503
 1509 0004 C0B2     		uxtb	r0, r0
 796:Drivers/STM32F0xx_HAL_Driver/Src/stm32f0xx_hal_dma.c **** 
 1510              		.loc 1 796 1 view .LVU504
 1511              		@ sp needed
 1512 0006 7047     		bx	lr
 1513              		.cfi_endproc
 1514              	.LFE47:
ARM GAS  /tmp/ccsaPaYr.s 			page 51


 1516              		.section	.text.HAL_DMA_GetError,"ax",%progbits
 1517              		.align	1
 1518              		.global	HAL_DMA_GetError
 1519              		.syntax unified
 1520              		.code	16
 1521              		.thumb_func
 1522              		.fpu softvfp
 1524              	HAL_DMA_GetError:
 1525              	.LVL104:
 1526              	.LFB48:
 805:Drivers/STM32F0xx_HAL_Driver/Src/stm32f0xx_hal_dma.c ****   return hdma->ErrorCode;
 1527              		.loc 1 805 1 is_stmt 1 view -0
 1528              		.cfi_startproc
 1529              		@ args = 0, pretend = 0, frame = 0
 1530              		@ frame_needed = 0, uses_anonymous_args = 0
 1531              		@ link register save eliminated.
 806:Drivers/STM32F0xx_HAL_Driver/Src/stm32f0xx_hal_dma.c **** }
 1532              		.loc 1 806 3 view .LVU506
 806:Drivers/STM32F0xx_HAL_Driver/Src/stm32f0xx_hal_dma.c **** }
 1533              		.loc 1 806 14 is_stmt 0 view .LVU507
 1534 0000 806B     		ldr	r0, [r0, #56]
 1535              	.LVL105:
 807:Drivers/STM32F0xx_HAL_Driver/Src/stm32f0xx_hal_dma.c **** 
 1536              		.loc 1 807 1 view .LVU508
 1537              		@ sp needed
 1538 0002 7047     		bx	lr
 1539              		.cfi_endproc
 1540              	.LFE48:
 1542              		.text
 1543              	.Letext0:
 1544              		.file 2 "/usr/arm-none-eabi/include/machine/_default_types.h"
 1545              		.file 3 "/usr/arm-none-eabi/include/sys/_stdint.h"
 1546              		.file 4 "Drivers/CMSIS/Device/ST/STM32F0xx/Include/system_stm32f0xx.h"
 1547              		.file 5 "Drivers/CMSIS/Device/ST/STM32F0xx/Include/stm32f072xb.h"
 1548              		.file 6 "/usr/arm-none-eabi/include/sys/lock.h"
 1549              		.file 7 "/usr/arm-none-eabi/include/sys/_types.h"
 1550              		.file 8 "/usr/lib/gcc/arm-none-eabi/9.1.0/include/stddef.h"
 1551              		.file 9 "/usr/arm-none-eabi/include/sys/reent.h"
 1552              		.file 10 "Drivers/CMSIS/Device/ST/STM32F0xx/Include/stm32f0xx.h"
 1553              		.file 11 "Drivers/STM32F0xx_HAL_Driver/Inc/stm32f0xx_hal_def.h"
 1554              		.file 12 "Drivers/STM32F0xx_HAL_Driver/Inc/stm32f0xx_hal_dma.h"
 1555              		.file 13 "Drivers/STM32F0xx_HAL_Driver/Inc/stm32f0xx_hal.h"
ARM GAS  /tmp/ccsaPaYr.s 			page 52

