ARM GAS  /tmp/ccwMzrYy.s 			page 1


   1              		.cpu cortex-m0
   2              		.eabi_attribute 20, 1
   3              		.eabi_attribute 21, 1
   4              		.eabi_attribute 23, 3
   5              		.eabi_attribute 24, 1
   6              		.eabi_attribute 25, 1
   7              		.eabi_attribute 26, 1
   8              		.eabi_attribute 30, 1
   9              		.eabi_attribute 34, 0
  10              		.eabi_attribute 18, 4
  11              		.file	"stm32f0xx_hal_pcd.c"
  12              		.text
  13              	.Ltext0:
  14              		.cfi_sections	.debug_frame
  15              		.section	.text.HAL_PCD_MspInit,"ax",%progbits
  16              		.align	1
  17              		.weak	HAL_PCD_MspInit
  18              		.arch armv6s-m
  19              		.syntax unified
  20              		.code	16
  21              		.thumb_func
  22              		.fpu softvfp
  24              	HAL_PCD_MspInit:
  25              	.LVL0:
  26              	.LFB39:
  27              		.file 1 "Drivers/STM32F0xx_HAL_Driver/Src/stm32f0xx_hal_pcd.c"
   1:Drivers/STM32F0xx_HAL_Driver/Src/stm32f0xx_hal_pcd.c **** /**
   2:Drivers/STM32F0xx_HAL_Driver/Src/stm32f0xx_hal_pcd.c ****   ******************************************************************************
   3:Drivers/STM32F0xx_HAL_Driver/Src/stm32f0xx_hal_pcd.c ****   * @file    stm32f0xx_hal_pcd.c
   4:Drivers/STM32F0xx_HAL_Driver/Src/stm32f0xx_hal_pcd.c ****   * @author  MCD Application Team
   5:Drivers/STM32F0xx_HAL_Driver/Src/stm32f0xx_hal_pcd.c ****   * @brief   PCD HAL module driver.
   6:Drivers/STM32F0xx_HAL_Driver/Src/stm32f0xx_hal_pcd.c ****   *          This file provides firmware functions to manage the following 
   7:Drivers/STM32F0xx_HAL_Driver/Src/stm32f0xx_hal_pcd.c ****   *          functionalities of the USB Peripheral Controller:
   8:Drivers/STM32F0xx_HAL_Driver/Src/stm32f0xx_hal_pcd.c ****   *           + Initialization and de-initialization functions
   9:Drivers/STM32F0xx_HAL_Driver/Src/stm32f0xx_hal_pcd.c ****   *           + IO operation functions
  10:Drivers/STM32F0xx_HAL_Driver/Src/stm32f0xx_hal_pcd.c ****   *           + Peripheral Control functions 
  11:Drivers/STM32F0xx_HAL_Driver/Src/stm32f0xx_hal_pcd.c ****   *           + Peripheral State functions
  12:Drivers/STM32F0xx_HAL_Driver/Src/stm32f0xx_hal_pcd.c ****   *         
  13:Drivers/STM32F0xx_HAL_Driver/Src/stm32f0xx_hal_pcd.c ****   @verbatim
  14:Drivers/STM32F0xx_HAL_Driver/Src/stm32f0xx_hal_pcd.c ****   ==============================================================================
  15:Drivers/STM32F0xx_HAL_Driver/Src/stm32f0xx_hal_pcd.c ****                     ##### How to use this driver #####
  16:Drivers/STM32F0xx_HAL_Driver/Src/stm32f0xx_hal_pcd.c ****   ==============================================================================
  17:Drivers/STM32F0xx_HAL_Driver/Src/stm32f0xx_hal_pcd.c ****     [..]
  18:Drivers/STM32F0xx_HAL_Driver/Src/stm32f0xx_hal_pcd.c ****       The PCD HAL driver can be used as follows:
  19:Drivers/STM32F0xx_HAL_Driver/Src/stm32f0xx_hal_pcd.c **** 
  20:Drivers/STM32F0xx_HAL_Driver/Src/stm32f0xx_hal_pcd.c ****      (#) Declare a PCD_HandleTypeDef handle structure, for example:
  21:Drivers/STM32F0xx_HAL_Driver/Src/stm32f0xx_hal_pcd.c ****          PCD_HandleTypeDef  hpcd;
  22:Drivers/STM32F0xx_HAL_Driver/Src/stm32f0xx_hal_pcd.c ****         
  23:Drivers/STM32F0xx_HAL_Driver/Src/stm32f0xx_hal_pcd.c ****      (#) Fill parameters of Init structure in HCD handle
  24:Drivers/STM32F0xx_HAL_Driver/Src/stm32f0xx_hal_pcd.c ****   
  25:Drivers/STM32F0xx_HAL_Driver/Src/stm32f0xx_hal_pcd.c ****      (#) Call HAL_PCD_Init() API to initialize the HCD peripheral (Core, Device core, ...) 
  26:Drivers/STM32F0xx_HAL_Driver/Src/stm32f0xx_hal_pcd.c **** 
  27:Drivers/STM32F0xx_HAL_Driver/Src/stm32f0xx_hal_pcd.c ****      (#) Initialize the PCD low level resources through the HAL_PCD_MspInit() API:
  28:Drivers/STM32F0xx_HAL_Driver/Src/stm32f0xx_hal_pcd.c ****          (##) Enable the PCD/USB Low Level interface clock using 
  29:Drivers/STM32F0xx_HAL_Driver/Src/stm32f0xx_hal_pcd.c ****               (+++) __HAL_RCC_USB_CLK_ENABLE);
  30:Drivers/STM32F0xx_HAL_Driver/Src/stm32f0xx_hal_pcd.c ****            
  31:Drivers/STM32F0xx_HAL_Driver/Src/stm32f0xx_hal_pcd.c ****          (##) Initialize the related GPIO clocks
ARM GAS  /tmp/ccwMzrYy.s 			page 2


  32:Drivers/STM32F0xx_HAL_Driver/Src/stm32f0xx_hal_pcd.c ****          (##) Configure PCD pin-out
  33:Drivers/STM32F0xx_HAL_Driver/Src/stm32f0xx_hal_pcd.c ****          (##) Configure PCD NVIC interrupt
  34:Drivers/STM32F0xx_HAL_Driver/Src/stm32f0xx_hal_pcd.c ****     
  35:Drivers/STM32F0xx_HAL_Driver/Src/stm32f0xx_hal_pcd.c ****      (#)Associate the Upper USB device stack to the HAL PCD Driver:
  36:Drivers/STM32F0xx_HAL_Driver/Src/stm32f0xx_hal_pcd.c ****          (##) hpcd.pData = pdev;
  37:Drivers/STM32F0xx_HAL_Driver/Src/stm32f0xx_hal_pcd.c **** 
  38:Drivers/STM32F0xx_HAL_Driver/Src/stm32f0xx_hal_pcd.c ****      (#)Enable HCD transmission and reception:
  39:Drivers/STM32F0xx_HAL_Driver/Src/stm32f0xx_hal_pcd.c ****          (##) HAL_PCD_Start();
  40:Drivers/STM32F0xx_HAL_Driver/Src/stm32f0xx_hal_pcd.c **** 
  41:Drivers/STM32F0xx_HAL_Driver/Src/stm32f0xx_hal_pcd.c ****   @endverbatim
  42:Drivers/STM32F0xx_HAL_Driver/Src/stm32f0xx_hal_pcd.c ****   ******************************************************************************
  43:Drivers/STM32F0xx_HAL_Driver/Src/stm32f0xx_hal_pcd.c ****   * @attention
  44:Drivers/STM32F0xx_HAL_Driver/Src/stm32f0xx_hal_pcd.c ****   *
  45:Drivers/STM32F0xx_HAL_Driver/Src/stm32f0xx_hal_pcd.c ****   * <h2><center>&copy; COPYRIGHT(c) 2016 STMicroelectronics</center></h2>
  46:Drivers/STM32F0xx_HAL_Driver/Src/stm32f0xx_hal_pcd.c ****   *
  47:Drivers/STM32F0xx_HAL_Driver/Src/stm32f0xx_hal_pcd.c ****   * Redistribution and use in source and binary forms, with or without modification,
  48:Drivers/STM32F0xx_HAL_Driver/Src/stm32f0xx_hal_pcd.c ****   * are permitted provided that the following conditions are met:
  49:Drivers/STM32F0xx_HAL_Driver/Src/stm32f0xx_hal_pcd.c ****   *   1. Redistributions of source code must retain the above copyright notice,
  50:Drivers/STM32F0xx_HAL_Driver/Src/stm32f0xx_hal_pcd.c ****   *      this list of conditions and the following disclaimer.
  51:Drivers/STM32F0xx_HAL_Driver/Src/stm32f0xx_hal_pcd.c ****   *   2. Redistributions in binary form must reproduce the above copyright notice,
  52:Drivers/STM32F0xx_HAL_Driver/Src/stm32f0xx_hal_pcd.c ****   *      this list of conditions and the following disclaimer in the documentation
  53:Drivers/STM32F0xx_HAL_Driver/Src/stm32f0xx_hal_pcd.c ****   *      and/or other materials provided with the distribution.
  54:Drivers/STM32F0xx_HAL_Driver/Src/stm32f0xx_hal_pcd.c ****   *   3. Neither the name of STMicroelectronics nor the names of its contributors
  55:Drivers/STM32F0xx_HAL_Driver/Src/stm32f0xx_hal_pcd.c ****   *      may be used to endorse or promote products derived from this software
  56:Drivers/STM32F0xx_HAL_Driver/Src/stm32f0xx_hal_pcd.c ****   *      without specific prior written permission.
  57:Drivers/STM32F0xx_HAL_Driver/Src/stm32f0xx_hal_pcd.c ****   *
  58:Drivers/STM32F0xx_HAL_Driver/Src/stm32f0xx_hal_pcd.c ****   * THIS SOFTWARE IS PROVIDED BY THE COPYRIGHT HOLDERS AND CONTRIBUTORS "AS IS"
  59:Drivers/STM32F0xx_HAL_Driver/Src/stm32f0xx_hal_pcd.c ****   * AND ANY EXPRESS OR IMPLIED WARRANTIES, INCLUDING, BUT NOT LIMITED TO, THE
  60:Drivers/STM32F0xx_HAL_Driver/Src/stm32f0xx_hal_pcd.c ****   * IMPLIED WARRANTIES OF MERCHANTABILITY AND FITNESS FOR A PARTICULAR PURPOSE ARE
  61:Drivers/STM32F0xx_HAL_Driver/Src/stm32f0xx_hal_pcd.c ****   * DISCLAIMED. IN NO EVENT SHALL THE COPYRIGHT HOLDER OR CONTRIBUTORS BE LIABLE
  62:Drivers/STM32F0xx_HAL_Driver/Src/stm32f0xx_hal_pcd.c ****   * FOR ANY DIRECT, INDIRECT, INCIDENTAL, SPECIAL, EXEMPLARY, OR CONSEQUENTIAL
  63:Drivers/STM32F0xx_HAL_Driver/Src/stm32f0xx_hal_pcd.c ****   * DAMAGES (INCLUDING, BUT NOT LIMITED TO, PROCUREMENT OF SUBSTITUTE GOODS OR
  64:Drivers/STM32F0xx_HAL_Driver/Src/stm32f0xx_hal_pcd.c ****   * SERVICES; LOSS OF USE, DATA, OR PROFITS; OR BUSINESS INTERRUPTION) HOWEVER
  65:Drivers/STM32F0xx_HAL_Driver/Src/stm32f0xx_hal_pcd.c ****   * CAUSED AND ON ANY THEORY OF LIABILITY, WHETHER IN CONTRACT, STRICT LIABILITY,
  66:Drivers/STM32F0xx_HAL_Driver/Src/stm32f0xx_hal_pcd.c ****   * OR TORT (INCLUDING NEGLIGENCE OR OTHERWISE) ARISING IN ANY WAY OUT OF THE USE
  67:Drivers/STM32F0xx_HAL_Driver/Src/stm32f0xx_hal_pcd.c ****   * OF THIS SOFTWARE, EVEN IF ADVISED OF THE POSSIBILITY OF SUCH DAMAGE.
  68:Drivers/STM32F0xx_HAL_Driver/Src/stm32f0xx_hal_pcd.c ****   *
  69:Drivers/STM32F0xx_HAL_Driver/Src/stm32f0xx_hal_pcd.c ****   ******************************************************************************
  70:Drivers/STM32F0xx_HAL_Driver/Src/stm32f0xx_hal_pcd.c ****   */
  71:Drivers/STM32F0xx_HAL_Driver/Src/stm32f0xx_hal_pcd.c **** 
  72:Drivers/STM32F0xx_HAL_Driver/Src/stm32f0xx_hal_pcd.c **** /* Includes ------------------------------------------------------------------*/
  73:Drivers/STM32F0xx_HAL_Driver/Src/stm32f0xx_hal_pcd.c **** #include "stm32f0xx_hal.h"
  74:Drivers/STM32F0xx_HAL_Driver/Src/stm32f0xx_hal_pcd.c **** 
  75:Drivers/STM32F0xx_HAL_Driver/Src/stm32f0xx_hal_pcd.c **** /** @addtogroup STM32F0xx_HAL_Driver
  76:Drivers/STM32F0xx_HAL_Driver/Src/stm32f0xx_hal_pcd.c ****   * @{
  77:Drivers/STM32F0xx_HAL_Driver/Src/stm32f0xx_hal_pcd.c ****   */
  78:Drivers/STM32F0xx_HAL_Driver/Src/stm32f0xx_hal_pcd.c **** 
  79:Drivers/STM32F0xx_HAL_Driver/Src/stm32f0xx_hal_pcd.c **** #ifdef HAL_PCD_MODULE_ENABLED
  80:Drivers/STM32F0xx_HAL_Driver/Src/stm32f0xx_hal_pcd.c **** 
  81:Drivers/STM32F0xx_HAL_Driver/Src/stm32f0xx_hal_pcd.c **** #if defined(STM32F042x6) || defined(STM32F048xx) || defined(STM32F072xB) || defined(STM32F078xx) ||
  82:Drivers/STM32F0xx_HAL_Driver/Src/stm32f0xx_hal_pcd.c **** 
  83:Drivers/STM32F0xx_HAL_Driver/Src/stm32f0xx_hal_pcd.c **** /** @defgroup PCD PCD
  84:Drivers/STM32F0xx_HAL_Driver/Src/stm32f0xx_hal_pcd.c ****   * @brief PCD HAL module driver
  85:Drivers/STM32F0xx_HAL_Driver/Src/stm32f0xx_hal_pcd.c ****   * @{
  86:Drivers/STM32F0xx_HAL_Driver/Src/stm32f0xx_hal_pcd.c ****   */
  87:Drivers/STM32F0xx_HAL_Driver/Src/stm32f0xx_hal_pcd.c **** 
  88:Drivers/STM32F0xx_HAL_Driver/Src/stm32f0xx_hal_pcd.c **** /* Private typedef -----------------------------------------------------------*/
ARM GAS  /tmp/ccwMzrYy.s 			page 3


  89:Drivers/STM32F0xx_HAL_Driver/Src/stm32f0xx_hal_pcd.c **** /* Private define ------------------------------------------------------------*/
  90:Drivers/STM32F0xx_HAL_Driver/Src/stm32f0xx_hal_pcd.c **** 
  91:Drivers/STM32F0xx_HAL_Driver/Src/stm32f0xx_hal_pcd.c **** /** @defgroup PCD_Private_Define PCD Private Define
  92:Drivers/STM32F0xx_HAL_Driver/Src/stm32f0xx_hal_pcd.c ****   * @{
  93:Drivers/STM32F0xx_HAL_Driver/Src/stm32f0xx_hal_pcd.c ****   */
  94:Drivers/STM32F0xx_HAL_Driver/Src/stm32f0xx_hal_pcd.c **** #define BTABLE_ADDRESS                  (0x000)  
  95:Drivers/STM32F0xx_HAL_Driver/Src/stm32f0xx_hal_pcd.c **** /**
  96:Drivers/STM32F0xx_HAL_Driver/Src/stm32f0xx_hal_pcd.c ****   * @}
  97:Drivers/STM32F0xx_HAL_Driver/Src/stm32f0xx_hal_pcd.c ****   */ 
  98:Drivers/STM32F0xx_HAL_Driver/Src/stm32f0xx_hal_pcd.c ****   
  99:Drivers/STM32F0xx_HAL_Driver/Src/stm32f0xx_hal_pcd.c **** /* Private macro -------------------------------------------------------------*/
 100:Drivers/STM32F0xx_HAL_Driver/Src/stm32f0xx_hal_pcd.c **** /* Private variables ---------------------------------------------------------*/
 101:Drivers/STM32F0xx_HAL_Driver/Src/stm32f0xx_hal_pcd.c **** /* Private function prototypes -----------------------------------------------*/
 102:Drivers/STM32F0xx_HAL_Driver/Src/stm32f0xx_hal_pcd.c **** /** @defgroup PCD_Private_Functions PCD Private Functions
 103:Drivers/STM32F0xx_HAL_Driver/Src/stm32f0xx_hal_pcd.c ****   * @{
 104:Drivers/STM32F0xx_HAL_Driver/Src/stm32f0xx_hal_pcd.c ****   */
 105:Drivers/STM32F0xx_HAL_Driver/Src/stm32f0xx_hal_pcd.c **** static HAL_StatusTypeDef PCD_EP_ISR_Handler(PCD_HandleTypeDef *hpcd);
 106:Drivers/STM32F0xx_HAL_Driver/Src/stm32f0xx_hal_pcd.c **** void PCD_WritePMA(USB_TypeDef  *USBx, uint8_t *pbUsrBuf, uint16_t wPMABufAddr, uint16_t wNBytes);
 107:Drivers/STM32F0xx_HAL_Driver/Src/stm32f0xx_hal_pcd.c **** void PCD_ReadPMA(USB_TypeDef  *USBx, uint8_t *pbUsrBuf, uint16_t wPMABufAddr, uint16_t wNBytes);
 108:Drivers/STM32F0xx_HAL_Driver/Src/stm32f0xx_hal_pcd.c **** /**
 109:Drivers/STM32F0xx_HAL_Driver/Src/stm32f0xx_hal_pcd.c ****   * @}
 110:Drivers/STM32F0xx_HAL_Driver/Src/stm32f0xx_hal_pcd.c ****   */ 
 111:Drivers/STM32F0xx_HAL_Driver/Src/stm32f0xx_hal_pcd.c **** 
 112:Drivers/STM32F0xx_HAL_Driver/Src/stm32f0xx_hal_pcd.c **** /* Exported functions --------------------------------------------------------*/
 113:Drivers/STM32F0xx_HAL_Driver/Src/stm32f0xx_hal_pcd.c **** /** @defgroup PCD_Exported_Functions PCD Exported Functions
 114:Drivers/STM32F0xx_HAL_Driver/Src/stm32f0xx_hal_pcd.c ****   * @{
 115:Drivers/STM32F0xx_HAL_Driver/Src/stm32f0xx_hal_pcd.c ****   */
 116:Drivers/STM32F0xx_HAL_Driver/Src/stm32f0xx_hal_pcd.c **** 
 117:Drivers/STM32F0xx_HAL_Driver/Src/stm32f0xx_hal_pcd.c **** /** @defgroup PCD_Exported_Functions_Group1 Initialization and de-initialization functions 
 118:Drivers/STM32F0xx_HAL_Driver/Src/stm32f0xx_hal_pcd.c ****  *  @brief    Initialization and Configuration functions 
 119:Drivers/STM32F0xx_HAL_Driver/Src/stm32f0xx_hal_pcd.c ****  *
 120:Drivers/STM32F0xx_HAL_Driver/Src/stm32f0xx_hal_pcd.c **** @verbatim
 121:Drivers/STM32F0xx_HAL_Driver/Src/stm32f0xx_hal_pcd.c ****  ===============================================================================
 122:Drivers/STM32F0xx_HAL_Driver/Src/stm32f0xx_hal_pcd.c ****             ##### Initialization and de-initialization functions #####
 123:Drivers/STM32F0xx_HAL_Driver/Src/stm32f0xx_hal_pcd.c ****  ===============================================================================
 124:Drivers/STM32F0xx_HAL_Driver/Src/stm32f0xx_hal_pcd.c ****     [..]  This section provides functions allowing to:
 125:Drivers/STM32F0xx_HAL_Driver/Src/stm32f0xx_hal_pcd.c ****  
 126:Drivers/STM32F0xx_HAL_Driver/Src/stm32f0xx_hal_pcd.c **** @endverbatim
 127:Drivers/STM32F0xx_HAL_Driver/Src/stm32f0xx_hal_pcd.c ****   * @{
 128:Drivers/STM32F0xx_HAL_Driver/Src/stm32f0xx_hal_pcd.c ****   */
 129:Drivers/STM32F0xx_HAL_Driver/Src/stm32f0xx_hal_pcd.c **** 
 130:Drivers/STM32F0xx_HAL_Driver/Src/stm32f0xx_hal_pcd.c **** /**
 131:Drivers/STM32F0xx_HAL_Driver/Src/stm32f0xx_hal_pcd.c ****   * @brief  Initializes the PCD according to the specified
 132:Drivers/STM32F0xx_HAL_Driver/Src/stm32f0xx_hal_pcd.c ****   *         parameters in the PCD_InitTypeDef and create the associated handle.
 133:Drivers/STM32F0xx_HAL_Driver/Src/stm32f0xx_hal_pcd.c ****   * @param  hpcd PCD handle
 134:Drivers/STM32F0xx_HAL_Driver/Src/stm32f0xx_hal_pcd.c ****   * @retval HAL status
 135:Drivers/STM32F0xx_HAL_Driver/Src/stm32f0xx_hal_pcd.c ****   */
 136:Drivers/STM32F0xx_HAL_Driver/Src/stm32f0xx_hal_pcd.c **** HAL_StatusTypeDef HAL_PCD_Init(PCD_HandleTypeDef *hpcd)
 137:Drivers/STM32F0xx_HAL_Driver/Src/stm32f0xx_hal_pcd.c **** { 
 138:Drivers/STM32F0xx_HAL_Driver/Src/stm32f0xx_hal_pcd.c ****   uint32_t i = 0U;
 139:Drivers/STM32F0xx_HAL_Driver/Src/stm32f0xx_hal_pcd.c **** 
 140:Drivers/STM32F0xx_HAL_Driver/Src/stm32f0xx_hal_pcd.c ****   uint32_t wInterrupt_Mask = 0U;
 141:Drivers/STM32F0xx_HAL_Driver/Src/stm32f0xx_hal_pcd.c ****   
 142:Drivers/STM32F0xx_HAL_Driver/Src/stm32f0xx_hal_pcd.c ****   /* Check the PCD handle allocation */
 143:Drivers/STM32F0xx_HAL_Driver/Src/stm32f0xx_hal_pcd.c ****   if(hpcd == NULL)
 144:Drivers/STM32F0xx_HAL_Driver/Src/stm32f0xx_hal_pcd.c ****   {
 145:Drivers/STM32F0xx_HAL_Driver/Src/stm32f0xx_hal_pcd.c ****     return HAL_ERROR;
ARM GAS  /tmp/ccwMzrYy.s 			page 4


 146:Drivers/STM32F0xx_HAL_Driver/Src/stm32f0xx_hal_pcd.c ****   }
 147:Drivers/STM32F0xx_HAL_Driver/Src/stm32f0xx_hal_pcd.c ****   
 148:Drivers/STM32F0xx_HAL_Driver/Src/stm32f0xx_hal_pcd.c ****   /* Check the parameters */
 149:Drivers/STM32F0xx_HAL_Driver/Src/stm32f0xx_hal_pcd.c ****   assert_param(IS_PCD_ALL_INSTANCE(hpcd->Instance));
 150:Drivers/STM32F0xx_HAL_Driver/Src/stm32f0xx_hal_pcd.c **** 
 151:Drivers/STM32F0xx_HAL_Driver/Src/stm32f0xx_hal_pcd.c ****   if(hpcd->State == HAL_PCD_STATE_RESET)
 152:Drivers/STM32F0xx_HAL_Driver/Src/stm32f0xx_hal_pcd.c ****   {  
 153:Drivers/STM32F0xx_HAL_Driver/Src/stm32f0xx_hal_pcd.c ****     /* Allocate lock resource and initialize it */
 154:Drivers/STM32F0xx_HAL_Driver/Src/stm32f0xx_hal_pcd.c ****     hpcd->Lock = HAL_UNLOCKED;
 155:Drivers/STM32F0xx_HAL_Driver/Src/stm32f0xx_hal_pcd.c ****   
 156:Drivers/STM32F0xx_HAL_Driver/Src/stm32f0xx_hal_pcd.c ****     /* Init the low level hardware : GPIO, CLOCK, NVIC... */
 157:Drivers/STM32F0xx_HAL_Driver/Src/stm32f0xx_hal_pcd.c ****     HAL_PCD_MspInit(hpcd);
 158:Drivers/STM32F0xx_HAL_Driver/Src/stm32f0xx_hal_pcd.c ****   }
 159:Drivers/STM32F0xx_HAL_Driver/Src/stm32f0xx_hal_pcd.c **** 
 160:Drivers/STM32F0xx_HAL_Driver/Src/stm32f0xx_hal_pcd.c ****   hpcd->State = HAL_PCD_STATE_BUSY;
 161:Drivers/STM32F0xx_HAL_Driver/Src/stm32f0xx_hal_pcd.c ****  
 162:Drivers/STM32F0xx_HAL_Driver/Src/stm32f0xx_hal_pcd.c ****  /* Init endpoints structures */
 163:Drivers/STM32F0xx_HAL_Driver/Src/stm32f0xx_hal_pcd.c ****  for (i = 0U; i < hpcd->Init.dev_endpoints ; i++)
 164:Drivers/STM32F0xx_HAL_Driver/Src/stm32f0xx_hal_pcd.c ****  {
 165:Drivers/STM32F0xx_HAL_Driver/Src/stm32f0xx_hal_pcd.c ****    /* Init ep structure */
 166:Drivers/STM32F0xx_HAL_Driver/Src/stm32f0xx_hal_pcd.c ****    hpcd->IN_ep[i].is_in = 1U;
 167:Drivers/STM32F0xx_HAL_Driver/Src/stm32f0xx_hal_pcd.c ****    hpcd->IN_ep[i].num = i;
 168:Drivers/STM32F0xx_HAL_Driver/Src/stm32f0xx_hal_pcd.c ****    /* Control until ep is actvated */
 169:Drivers/STM32F0xx_HAL_Driver/Src/stm32f0xx_hal_pcd.c ****    hpcd->IN_ep[i].type = PCD_EP_TYPE_CTRL;
 170:Drivers/STM32F0xx_HAL_Driver/Src/stm32f0xx_hal_pcd.c ****    hpcd->IN_ep[i].maxpacket =  0U;
 171:Drivers/STM32F0xx_HAL_Driver/Src/stm32f0xx_hal_pcd.c ****    hpcd->IN_ep[i].xfer_buff = 0U;
 172:Drivers/STM32F0xx_HAL_Driver/Src/stm32f0xx_hal_pcd.c ****    hpcd->IN_ep[i].xfer_len = 0U;
 173:Drivers/STM32F0xx_HAL_Driver/Src/stm32f0xx_hal_pcd.c ****  }
 174:Drivers/STM32F0xx_HAL_Driver/Src/stm32f0xx_hal_pcd.c ****  
 175:Drivers/STM32F0xx_HAL_Driver/Src/stm32f0xx_hal_pcd.c ****  for (i = 0U; i < hpcd->Init.dev_endpoints ; i++)
 176:Drivers/STM32F0xx_HAL_Driver/Src/stm32f0xx_hal_pcd.c ****  {
 177:Drivers/STM32F0xx_HAL_Driver/Src/stm32f0xx_hal_pcd.c ****    hpcd->OUT_ep[i].is_in = 0U;
 178:Drivers/STM32F0xx_HAL_Driver/Src/stm32f0xx_hal_pcd.c ****    hpcd->OUT_ep[i].num = i;
 179:Drivers/STM32F0xx_HAL_Driver/Src/stm32f0xx_hal_pcd.c ****    /* Control until ep is activated */
 180:Drivers/STM32F0xx_HAL_Driver/Src/stm32f0xx_hal_pcd.c ****    hpcd->OUT_ep[i].type = PCD_EP_TYPE_CTRL;
 181:Drivers/STM32F0xx_HAL_Driver/Src/stm32f0xx_hal_pcd.c ****    hpcd->OUT_ep[i].maxpacket = 0U;
 182:Drivers/STM32F0xx_HAL_Driver/Src/stm32f0xx_hal_pcd.c ****    hpcd->OUT_ep[i].xfer_buff = 0U;
 183:Drivers/STM32F0xx_HAL_Driver/Src/stm32f0xx_hal_pcd.c ****    hpcd->OUT_ep[i].xfer_len = 0U;
 184:Drivers/STM32F0xx_HAL_Driver/Src/stm32f0xx_hal_pcd.c ****  }
 185:Drivers/STM32F0xx_HAL_Driver/Src/stm32f0xx_hal_pcd.c ****   
 186:Drivers/STM32F0xx_HAL_Driver/Src/stm32f0xx_hal_pcd.c ****  /* Init Device */
 187:Drivers/STM32F0xx_HAL_Driver/Src/stm32f0xx_hal_pcd.c ****  /*CNTR_FRES = 1*/
 188:Drivers/STM32F0xx_HAL_Driver/Src/stm32f0xx_hal_pcd.c ****  hpcd->Instance->CNTR = USB_CNTR_FRES;
 189:Drivers/STM32F0xx_HAL_Driver/Src/stm32f0xx_hal_pcd.c ****  
 190:Drivers/STM32F0xx_HAL_Driver/Src/stm32f0xx_hal_pcd.c ****  /*CNTR_FRES = 0*/
 191:Drivers/STM32F0xx_HAL_Driver/Src/stm32f0xx_hal_pcd.c ****  hpcd->Instance->CNTR = 0;
 192:Drivers/STM32F0xx_HAL_Driver/Src/stm32f0xx_hal_pcd.c ****  
 193:Drivers/STM32F0xx_HAL_Driver/Src/stm32f0xx_hal_pcd.c ****  /*Clear pending interrupts*/
 194:Drivers/STM32F0xx_HAL_Driver/Src/stm32f0xx_hal_pcd.c ****  hpcd->Instance->ISTR = 0;
 195:Drivers/STM32F0xx_HAL_Driver/Src/stm32f0xx_hal_pcd.c ****  
 196:Drivers/STM32F0xx_HAL_Driver/Src/stm32f0xx_hal_pcd.c ****   /*Set Btable Adress*/
 197:Drivers/STM32F0xx_HAL_Driver/Src/stm32f0xx_hal_pcd.c ****  hpcd->Instance->BTABLE = BTABLE_ADDRESS;
 198:Drivers/STM32F0xx_HAL_Driver/Src/stm32f0xx_hal_pcd.c ****   
 199:Drivers/STM32F0xx_HAL_Driver/Src/stm32f0xx_hal_pcd.c ****   /*set wInterrupt_Mask global variable*/
 200:Drivers/STM32F0xx_HAL_Driver/Src/stm32f0xx_hal_pcd.c ****  wInterrupt_Mask = USB_CNTR_CTRM  | USB_CNTR_WKUPM | USB_CNTR_SUSPM | USB_CNTR_ERRM \
 201:Drivers/STM32F0xx_HAL_Driver/Src/stm32f0xx_hal_pcd.c ****    | USB_CNTR_SOFM | USB_CNTR_ESOFM | USB_CNTR_RESETM;
 202:Drivers/STM32F0xx_HAL_Driver/Src/stm32f0xx_hal_pcd.c ****   
ARM GAS  /tmp/ccwMzrYy.s 			page 5


 203:Drivers/STM32F0xx_HAL_Driver/Src/stm32f0xx_hal_pcd.c ****   /*Set interrupt mask*/
 204:Drivers/STM32F0xx_HAL_Driver/Src/stm32f0xx_hal_pcd.c ****   hpcd->Instance->CNTR = wInterrupt_Mask;
 205:Drivers/STM32F0xx_HAL_Driver/Src/stm32f0xx_hal_pcd.c ****   
 206:Drivers/STM32F0xx_HAL_Driver/Src/stm32f0xx_hal_pcd.c ****   hpcd->USB_Address = 0U;
 207:Drivers/STM32F0xx_HAL_Driver/Src/stm32f0xx_hal_pcd.c ****   hpcd->State= HAL_PCD_STATE_READY;
 208:Drivers/STM32F0xx_HAL_Driver/Src/stm32f0xx_hal_pcd.c **** 
 209:Drivers/STM32F0xx_HAL_Driver/Src/stm32f0xx_hal_pcd.c ****  return HAL_OK;
 210:Drivers/STM32F0xx_HAL_Driver/Src/stm32f0xx_hal_pcd.c **** }
 211:Drivers/STM32F0xx_HAL_Driver/Src/stm32f0xx_hal_pcd.c **** 
 212:Drivers/STM32F0xx_HAL_Driver/Src/stm32f0xx_hal_pcd.c **** /**
 213:Drivers/STM32F0xx_HAL_Driver/Src/stm32f0xx_hal_pcd.c ****   * @brief  DeInitializes the PCD peripheral 
 214:Drivers/STM32F0xx_HAL_Driver/Src/stm32f0xx_hal_pcd.c ****   * @param  hpcd PCD handle
 215:Drivers/STM32F0xx_HAL_Driver/Src/stm32f0xx_hal_pcd.c ****   * @retval HAL status
 216:Drivers/STM32F0xx_HAL_Driver/Src/stm32f0xx_hal_pcd.c ****   */
 217:Drivers/STM32F0xx_HAL_Driver/Src/stm32f0xx_hal_pcd.c **** HAL_StatusTypeDef HAL_PCD_DeInit(PCD_HandleTypeDef *hpcd)
 218:Drivers/STM32F0xx_HAL_Driver/Src/stm32f0xx_hal_pcd.c **** {
 219:Drivers/STM32F0xx_HAL_Driver/Src/stm32f0xx_hal_pcd.c ****   /* Check the PCD handle allocation */
 220:Drivers/STM32F0xx_HAL_Driver/Src/stm32f0xx_hal_pcd.c ****   if(hpcd == NULL)
 221:Drivers/STM32F0xx_HAL_Driver/Src/stm32f0xx_hal_pcd.c ****   {
 222:Drivers/STM32F0xx_HAL_Driver/Src/stm32f0xx_hal_pcd.c ****     return HAL_ERROR;
 223:Drivers/STM32F0xx_HAL_Driver/Src/stm32f0xx_hal_pcd.c ****   }
 224:Drivers/STM32F0xx_HAL_Driver/Src/stm32f0xx_hal_pcd.c **** 
 225:Drivers/STM32F0xx_HAL_Driver/Src/stm32f0xx_hal_pcd.c ****   hpcd->State = HAL_PCD_STATE_BUSY;
 226:Drivers/STM32F0xx_HAL_Driver/Src/stm32f0xx_hal_pcd.c ****   
 227:Drivers/STM32F0xx_HAL_Driver/Src/stm32f0xx_hal_pcd.c ****   /* Stop Device */
 228:Drivers/STM32F0xx_HAL_Driver/Src/stm32f0xx_hal_pcd.c ****   HAL_PCD_Stop(hpcd);
 229:Drivers/STM32F0xx_HAL_Driver/Src/stm32f0xx_hal_pcd.c ****     
 230:Drivers/STM32F0xx_HAL_Driver/Src/stm32f0xx_hal_pcd.c ****   /* DeInit the low level hardware */
 231:Drivers/STM32F0xx_HAL_Driver/Src/stm32f0xx_hal_pcd.c ****   HAL_PCD_MspDeInit(hpcd);
 232:Drivers/STM32F0xx_HAL_Driver/Src/stm32f0xx_hal_pcd.c ****   
 233:Drivers/STM32F0xx_HAL_Driver/Src/stm32f0xx_hal_pcd.c ****   hpcd->State = HAL_PCD_STATE_RESET; 
 234:Drivers/STM32F0xx_HAL_Driver/Src/stm32f0xx_hal_pcd.c ****   
 235:Drivers/STM32F0xx_HAL_Driver/Src/stm32f0xx_hal_pcd.c ****   return HAL_OK;
 236:Drivers/STM32F0xx_HAL_Driver/Src/stm32f0xx_hal_pcd.c **** }
 237:Drivers/STM32F0xx_HAL_Driver/Src/stm32f0xx_hal_pcd.c **** 
 238:Drivers/STM32F0xx_HAL_Driver/Src/stm32f0xx_hal_pcd.c **** /**
 239:Drivers/STM32F0xx_HAL_Driver/Src/stm32f0xx_hal_pcd.c ****   * @brief  Initializes the PCD MSP.
 240:Drivers/STM32F0xx_HAL_Driver/Src/stm32f0xx_hal_pcd.c ****   * @param  hpcd PCD handle
 241:Drivers/STM32F0xx_HAL_Driver/Src/stm32f0xx_hal_pcd.c ****   * @retval None
 242:Drivers/STM32F0xx_HAL_Driver/Src/stm32f0xx_hal_pcd.c ****   */
 243:Drivers/STM32F0xx_HAL_Driver/Src/stm32f0xx_hal_pcd.c **** __weak void HAL_PCD_MspInit(PCD_HandleTypeDef *hpcd)
 244:Drivers/STM32F0xx_HAL_Driver/Src/stm32f0xx_hal_pcd.c **** {
  28              		.loc 1 244 1 view -0
  29              		.cfi_startproc
  30              		@ args = 0, pretend = 0, frame = 0
  31              		@ frame_needed = 0, uses_anonymous_args = 0
  32              		@ link register save eliminated.
 245:Drivers/STM32F0xx_HAL_Driver/Src/stm32f0xx_hal_pcd.c ****   /* Prevent unused argument(s) compilation warning */
 246:Drivers/STM32F0xx_HAL_Driver/Src/stm32f0xx_hal_pcd.c ****   UNUSED(hpcd);
  33              		.loc 1 246 3 view .LVU1
 247:Drivers/STM32F0xx_HAL_Driver/Src/stm32f0xx_hal_pcd.c **** 
 248:Drivers/STM32F0xx_HAL_Driver/Src/stm32f0xx_hal_pcd.c ****   /* NOTE : This function Should not be modified, when the callback is needed,
 249:Drivers/STM32F0xx_HAL_Driver/Src/stm32f0xx_hal_pcd.c ****             the HAL_PCD_MspInit could be implemented in the user file
 250:Drivers/STM32F0xx_HAL_Driver/Src/stm32f0xx_hal_pcd.c ****    */
 251:Drivers/STM32F0xx_HAL_Driver/Src/stm32f0xx_hal_pcd.c **** }
  34              		.loc 1 251 1 is_stmt 0 view .LVU2
  35              		@ sp needed
ARM GAS  /tmp/ccwMzrYy.s 			page 6


  36 0000 7047     		bx	lr
  37              		.cfi_endproc
  38              	.LFE39:
  40              		.section	.text.HAL_PCD_Init,"ax",%progbits
  41              		.align	1
  42              		.global	HAL_PCD_Init
  43              		.syntax unified
  44              		.code	16
  45              		.thumb_func
  46              		.fpu softvfp
  48              	HAL_PCD_Init:
  49              	.LVL1:
  50              	.LFB37:
 137:Drivers/STM32F0xx_HAL_Driver/Src/stm32f0xx_hal_pcd.c ****   uint32_t i = 0U;
  51              		.loc 1 137 1 is_stmt 1 view -0
  52              		.cfi_startproc
  53              		@ args = 0, pretend = 0, frame = 0
  54              		@ frame_needed = 0, uses_anonymous_args = 0
 137:Drivers/STM32F0xx_HAL_Driver/Src/stm32f0xx_hal_pcd.c ****   uint32_t i = 0U;
  55              		.loc 1 137 1 is_stmt 0 view .LVU4
  56 0000 70B5     		push	{r4, r5, r6, lr}
  57              	.LCFI0:
  58              		.cfi_def_cfa_offset 16
  59              		.cfi_offset 4, -16
  60              		.cfi_offset 5, -12
  61              		.cfi_offset 6, -8
  62              		.cfi_offset 14, -4
  63 0002 041E     		subs	r4, r0, #0
 138:Drivers/STM32F0xx_HAL_Driver/Src/stm32f0xx_hal_pcd.c **** 
  64              		.loc 1 138 3 is_stmt 1 view .LVU5
  65              	.LVL2:
 140:Drivers/STM32F0xx_HAL_Driver/Src/stm32f0xx_hal_pcd.c ****   
  66              		.loc 1 140 3 view .LVU6
 143:Drivers/STM32F0xx_HAL_Driver/Src/stm32f0xx_hal_pcd.c ****   {
  67              		.loc 1 143 3 view .LVU7
 143:Drivers/STM32F0xx_HAL_Driver/Src/stm32f0xx_hal_pcd.c ****   {
  68              		.loc 1 143 5 is_stmt 0 view .LVU8
  69 0004 58D0     		beq	.L9
 149:Drivers/STM32F0xx_HAL_Driver/Src/stm32f0xx_hal_pcd.c **** 
  70              		.loc 1 149 3 is_stmt 1 view .LVU9
 151:Drivers/STM32F0xx_HAL_Driver/Src/stm32f0xx_hal_pcd.c ****   {  
  71              		.loc 1 151 3 view .LVU10
 151:Drivers/STM32F0xx_HAL_Driver/Src/stm32f0xx_hal_pcd.c ****   {  
  72              		.loc 1 151 10 is_stmt 0 view .LVU11
  73 0006 EA23     		movs	r3, #234
  74 0008 FF33     		adds	r3, r3, #255
  75 000a C35C     		ldrb	r3, [r0, r3]
 151:Drivers/STM32F0xx_HAL_Driver/Src/stm32f0xx_hal_pcd.c ****   {  
  76              		.loc 1 151 5 view .LVU12
  77 000c 002B     		cmp	r3, #0
  78 000e 1AD0     		beq	.L10
  79              	.LVL3:
  80              	.L4:
 160:Drivers/STM32F0xx_HAL_Driver/Src/stm32f0xx_hal_pcd.c ****  
  81              		.loc 1 160 3 is_stmt 1 view .LVU13
 160:Drivers/STM32F0xx_HAL_Driver/Src/stm32f0xx_hal_pcd.c ****  
  82              		.loc 1 160 15 is_stmt 0 view .LVU14
ARM GAS  /tmp/ccwMzrYy.s 			page 7


  83 0010 EA23     		movs	r3, #234
  84 0012 FF33     		adds	r3, r3, #255
  85 0014 0322     		movs	r2, #3
  86 0016 E254     		strb	r2, [r4, r3]
 163:Drivers/STM32F0xx_HAL_Driver/Src/stm32f0xx_hal_pcd.c ****  {
  87              		.loc 1 163 2 is_stmt 1 view .LVU15
 163:Drivers/STM32F0xx_HAL_Driver/Src/stm32f0xx_hal_pcd.c ****  {
  88              		.loc 1 163 9 is_stmt 0 view .LVU16
  89 0018 0022     		movs	r2, #0
  90              	.LVL4:
  91              	.L5:
 163:Drivers/STM32F0xx_HAL_Driver/Src/stm32f0xx_hal_pcd.c ****  {
  92              		.loc 1 163 29 discriminator 1 view .LVU17
  93 001a 6068     		ldr	r0, [r4, #4]
 163:Drivers/STM32F0xx_HAL_Driver/Src/stm32f0xx_hal_pcd.c ****  {
  94              		.loc 1 163 2 discriminator 1 view .LVU18
  95 001c 9042     		cmp	r0, r2
  96 001e 19D9     		bls	.L11
 166:Drivers/STM32F0xx_HAL_Driver/Src/stm32f0xx_hal_pcd.c ****    hpcd->IN_ep[i].num = i;
  97              		.loc 1 166 4 is_stmt 1 discriminator 3 view .LVU19
 166:Drivers/STM32F0xx_HAL_Driver/Src/stm32f0xx_hal_pcd.c ****    hpcd->IN_ep[i].num = i;
  98              		.loc 1 166 25 is_stmt 0 discriminator 3 view .LVU20
  99 0020 D300     		lsls	r3, r2, #3
 100 0022 9B1A     		subs	r3, r3, r2
 101 0024 9B00     		lsls	r3, r3, #2
 102 0026 E318     		adds	r3, r4, r3
 103 0028 1900     		movs	r1, r3
 104 002a 2931     		adds	r1, r1, #41
 105 002c 0120     		movs	r0, #1
 106 002e 0870     		strb	r0, [r1]
 167:Drivers/STM32F0xx_HAL_Driver/Src/stm32f0xx_hal_pcd.c ****    /* Control until ep is actvated */
 107              		.loc 1 167 4 is_stmt 1 discriminator 3 view .LVU21
 167:Drivers/STM32F0xx_HAL_Driver/Src/stm32f0xx_hal_pcd.c ****    /* Control until ep is actvated */
 108              		.loc 1 167 23 is_stmt 0 discriminator 3 view .LVU22
 109 0030 0139     		subs	r1, r1, #1
 110 0032 0A70     		strb	r2, [r1]
 169:Drivers/STM32F0xx_HAL_Driver/Src/stm32f0xx_hal_pcd.c ****    hpcd->IN_ep[i].maxpacket =  0U;
 111              		.loc 1 169 4 is_stmt 1 discriminator 3 view .LVU23
 169:Drivers/STM32F0xx_HAL_Driver/Src/stm32f0xx_hal_pcd.c ****    hpcd->IN_ep[i].maxpacket =  0U;
 112              		.loc 1 169 24 is_stmt 0 discriminator 3 view .LVU24
 113 0034 1800     		movs	r0, r3
 114 0036 2B30     		adds	r0, r0, #43
 115 0038 0021     		movs	r1, #0
 116 003a 0170     		strb	r1, [r0]
 170:Drivers/STM32F0xx_HAL_Driver/Src/stm32f0xx_hal_pcd.c ****    hpcd->IN_ep[i].xfer_buff = 0U;
 117              		.loc 1 170 4 is_stmt 1 discriminator 3 view .LVU25
 170:Drivers/STM32F0xx_HAL_Driver/Src/stm32f0xx_hal_pcd.c ****    hpcd->IN_ep[i].xfer_buff = 0U;
 118              		.loc 1 170 29 is_stmt 0 discriminator 3 view .LVU26
 119 003c 5963     		str	r1, [r3, #52]
 171:Drivers/STM32F0xx_HAL_Driver/Src/stm32f0xx_hal_pcd.c ****    hpcd->IN_ep[i].xfer_len = 0U;
 120              		.loc 1 171 4 is_stmt 1 discriminator 3 view .LVU27
 171:Drivers/STM32F0xx_HAL_Driver/Src/stm32f0xx_hal_pcd.c ****    hpcd->IN_ep[i].xfer_len = 0U;
 121              		.loc 1 171 29 is_stmt 0 discriminator 3 view .LVU28
 122 003e 9963     		str	r1, [r3, #56]
 172:Drivers/STM32F0xx_HAL_Driver/Src/stm32f0xx_hal_pcd.c ****  }
 123              		.loc 1 172 4 is_stmt 1 discriminator 3 view .LVU29
 172:Drivers/STM32F0xx_HAL_Driver/Src/stm32f0xx_hal_pcd.c ****  }
ARM GAS  /tmp/ccwMzrYy.s 			page 8


 124              		.loc 1 172 28 is_stmt 0 discriminator 3 view .LVU30
 125 0040 D963     		str	r1, [r3, #60]
 163:Drivers/STM32F0xx_HAL_Driver/Src/stm32f0xx_hal_pcd.c ****  {
 126              		.loc 1 163 47 discriminator 3 view .LVU31
 127 0042 0132     		adds	r2, r2, #1
 128              	.LVL5:
 163:Drivers/STM32F0xx_HAL_Driver/Src/stm32f0xx_hal_pcd.c ****  {
 129              		.loc 1 163 47 discriminator 3 view .LVU32
 130 0044 E9E7     		b	.L5
 131              	.LVL6:
 132              	.L10:
 154:Drivers/STM32F0xx_HAL_Driver/Src/stm32f0xx_hal_pcd.c ****   
 133              		.loc 1 154 5 is_stmt 1 view .LVU33
 154:Drivers/STM32F0xx_HAL_Driver/Src/stm32f0xx_hal_pcd.c ****   
 134              		.loc 1 154 16 is_stmt 0 view .LVU34
 135 0046 E933     		adds	r3, r3, #233
 136 0048 FF33     		adds	r3, r3, #255
 137 004a 0022     		movs	r2, #0
 138 004c C254     		strb	r2, [r0, r3]
 157:Drivers/STM32F0xx_HAL_Driver/Src/stm32f0xx_hal_pcd.c ****   }
 139              		.loc 1 157 5 is_stmt 1 view .LVU35
 140 004e FFF7FEFF 		bl	HAL_PCD_MspInit
 141              	.LVL7:
 157:Drivers/STM32F0xx_HAL_Driver/Src/stm32f0xx_hal_pcd.c ****   }
 142              		.loc 1 157 5 is_stmt 0 view .LVU36
 143 0052 DDE7     		b	.L4
 144              	.LVL8:
 145              	.L11:
 175:Drivers/STM32F0xx_HAL_Driver/Src/stm32f0xx_hal_pcd.c ****  {
 146              		.loc 1 175 9 view .LVU37
 147 0054 0022     		movs	r2, #0
 148              	.LVL9:
 175:Drivers/STM32F0xx_HAL_Driver/Src/stm32f0xx_hal_pcd.c ****  {
 149              		.loc 1 175 9 view .LVU38
 150 0056 14E0     		b	.L7
 151              	.LVL10:
 152              	.L8:
 177:Drivers/STM32F0xx_HAL_Driver/Src/stm32f0xx_hal_pcd.c ****    hpcd->OUT_ep[i].num = i;
 153              		.loc 1 177 4 is_stmt 1 discriminator 3 view .LVU39
 177:Drivers/STM32F0xx_HAL_Driver/Src/stm32f0xx_hal_pcd.c ****    hpcd->OUT_ep[i].num = i;
 154              		.loc 1 177 26 is_stmt 0 discriminator 3 view .LVU40
 155 0058 D300     		lsls	r3, r2, #3
 156 005a 9B1A     		subs	r3, r3, r2
 157 005c 9B00     		lsls	r3, r3, #2
 158 005e E318     		adds	r3, r4, r3
 159 0060 1D00     		movs	r5, r3
 160 0062 0A35     		adds	r5, r5, #10
 161 0064 FF35     		adds	r5, r5, #255
 162 0066 0021     		movs	r1, #0
 163 0068 2970     		strb	r1, [r5]
 178:Drivers/STM32F0xx_HAL_Driver/Src/stm32f0xx_hal_pcd.c ****    /* Control until ep is activated */
 164              		.loc 1 178 4 is_stmt 1 discriminator 3 view .LVU41
 178:Drivers/STM32F0xx_HAL_Driver/Src/stm32f0xx_hal_pcd.c ****    /* Control until ep is activated */
 165              		.loc 1 178 24 is_stmt 0 discriminator 3 view .LVU42
 166 006a 013D     		subs	r5, r5, #1
 167 006c 2A70     		strb	r2, [r5]
 180:Drivers/STM32F0xx_HAL_Driver/Src/stm32f0xx_hal_pcd.c ****    hpcd->OUT_ep[i].maxpacket = 0U;
ARM GAS  /tmp/ccwMzrYy.s 			page 9


 168              		.loc 1 180 4 is_stmt 1 discriminator 3 view .LVU43
 180:Drivers/STM32F0xx_HAL_Driver/Src/stm32f0xx_hal_pcd.c ****    hpcd->OUT_ep[i].maxpacket = 0U;
 169              		.loc 1 180 25 is_stmt 0 discriminator 3 view .LVU44
 170 006e 0335     		adds	r5, r5, #3
 171 0070 2970     		strb	r1, [r5]
 181:Drivers/STM32F0xx_HAL_Driver/Src/stm32f0xx_hal_pcd.c ****    hpcd->OUT_ep[i].xfer_buff = 0U;
 172              		.loc 1 181 4 is_stmt 1 discriminator 3 view .LVU45
 181:Drivers/STM32F0xx_HAL_Driver/Src/stm32f0xx_hal_pcd.c ****    hpcd->OUT_ep[i].xfer_buff = 0U;
 173              		.loc 1 181 30 is_stmt 0 discriminator 3 view .LVU46
 174 0072 0935     		adds	r5, r5, #9
 175 0074 2960     		str	r1, [r5]
 182:Drivers/STM32F0xx_HAL_Driver/Src/stm32f0xx_hal_pcd.c ****    hpcd->OUT_ep[i].xfer_len = 0U;
 176              		.loc 1 182 4 is_stmt 1 discriminator 3 view .LVU47
 182:Drivers/STM32F0xx_HAL_Driver/Src/stm32f0xx_hal_pcd.c ****    hpcd->OUT_ep[i].xfer_len = 0U;
 177              		.loc 1 182 30 is_stmt 0 discriminator 3 view .LVU48
 178 0076 0435     		adds	r5, r5, #4
 179 0078 2960     		str	r1, [r5]
 183:Drivers/STM32F0xx_HAL_Driver/Src/stm32f0xx_hal_pcd.c ****  }
 180              		.loc 1 183 4 is_stmt 1 discriminator 3 view .LVU49
 183:Drivers/STM32F0xx_HAL_Driver/Src/stm32f0xx_hal_pcd.c ****  }
 181              		.loc 1 183 29 is_stmt 0 discriminator 3 view .LVU50
 182 007a 1D33     		adds	r3, r3, #29
 183 007c FF33     		adds	r3, r3, #255
 184 007e 1960     		str	r1, [r3]
 175:Drivers/STM32F0xx_HAL_Driver/Src/stm32f0xx_hal_pcd.c ****  {
 185              		.loc 1 175 47 discriminator 3 view .LVU51
 186 0080 0132     		adds	r2, r2, #1
 187              	.LVL11:
 188              	.L7:
 175:Drivers/STM32F0xx_HAL_Driver/Src/stm32f0xx_hal_pcd.c ****  {
 189              		.loc 1 175 2 discriminator 1 view .LVU52
 190 0082 9042     		cmp	r0, r2
 191 0084 E8D8     		bhi	.L8
 188:Drivers/STM32F0xx_HAL_Driver/Src/stm32f0xx_hal_pcd.c ****  
 192              		.loc 1 188 2 is_stmt 1 view .LVU53
 188:Drivers/STM32F0xx_HAL_Driver/Src/stm32f0xx_hal_pcd.c ****  
 193              		.loc 1 188 23 is_stmt 0 view .LVU54
 194 0086 4023     		movs	r3, #64
 195 0088 0122     		movs	r2, #1
 196              	.LVL12:
 188:Drivers/STM32F0xx_HAL_Driver/Src/stm32f0xx_hal_pcd.c ****  
 197              		.loc 1 188 23 view .LVU55
 198 008a 2168     		ldr	r1, [r4]
 199 008c CA52     		strh	r2, [r1, r3]
 191:Drivers/STM32F0xx_HAL_Driver/Src/stm32f0xx_hal_pcd.c ****  
 200              		.loc 1 191 2 is_stmt 1 view .LVU56
 191:Drivers/STM32F0xx_HAL_Driver/Src/stm32f0xx_hal_pcd.c ****  
 201              		.loc 1 191 23 is_stmt 0 view .LVU57
 202 008e 0022     		movs	r2, #0
 203 0090 2168     		ldr	r1, [r4]
 204 0092 CA52     		strh	r2, [r1, r3]
 194:Drivers/STM32F0xx_HAL_Driver/Src/stm32f0xx_hal_pcd.c ****  
 205              		.loc 1 194 2 is_stmt 1 view .LVU58
 194:Drivers/STM32F0xx_HAL_Driver/Src/stm32f0xx_hal_pcd.c ****  
 206              		.loc 1 194 23 is_stmt 0 view .LVU59
 207 0094 4421     		movs	r1, #68
 208 0096 2068     		ldr	r0, [r4]
ARM GAS  /tmp/ccwMzrYy.s 			page 10


 209 0098 4252     		strh	r2, [r0, r1]
 197:Drivers/STM32F0xx_HAL_Driver/Src/stm32f0xx_hal_pcd.c ****   
 210              		.loc 1 197 2 is_stmt 1 view .LVU60
 197:Drivers/STM32F0xx_HAL_Driver/Src/stm32f0xx_hal_pcd.c ****   
 211              		.loc 1 197 25 is_stmt 0 view .LVU61
 212 009a 0C31     		adds	r1, r1, #12
 213 009c 2068     		ldr	r0, [r4]
 214 009e 4252     		strh	r2, [r0, r1]
 200:Drivers/STM32F0xx_HAL_Driver/Src/stm32f0xx_hal_pcd.c ****    | USB_CNTR_SOFM | USB_CNTR_ESOFM | USB_CNTR_RESETM;
 215              		.loc 1 200 2 is_stmt 1 view .LVU62
 216              	.LVL13:
 204:Drivers/STM32F0xx_HAL_Driver/Src/stm32f0xx_hal_pcd.c ****   
 217              		.loc 1 204 3 view .LVU63
 204:Drivers/STM32F0xx_HAL_Driver/Src/stm32f0xx_hal_pcd.c ****   
 218              		.loc 1 204 24 is_stmt 0 view .LVU64
 219 00a0 064A     		ldr	r2, .L12
 220 00a2 2168     		ldr	r1, [r4]
 221 00a4 CA52     		strh	r2, [r1, r3]
 206:Drivers/STM32F0xx_HAL_Driver/Src/stm32f0xx_hal_pcd.c ****   hpcd->State= HAL_PCD_STATE_READY;
 222              		.loc 1 206 3 is_stmt 1 view .LVU65
 206:Drivers/STM32F0xx_HAL_Driver/Src/stm32f0xx_hal_pcd.c ****   hpcd->State= HAL_PCD_STATE_READY;
 223              		.loc 1 206 21 is_stmt 0 view .LVU66
 224 00a6 0022     		movs	r2, #0
 225 00a8 1C3B     		subs	r3, r3, #28
 226 00aa E254     		strb	r2, [r4, r3]
 207:Drivers/STM32F0xx_HAL_Driver/Src/stm32f0xx_hal_pcd.c **** 
 227              		.loc 1 207 3 is_stmt 1 view .LVU67
 207:Drivers/STM32F0xx_HAL_Driver/Src/stm32f0xx_hal_pcd.c **** 
 228              		.loc 1 207 14 is_stmt 0 view .LVU68
 229 00ac 0122     		movs	r2, #1
 230 00ae EA23     		movs	r3, #234
 231 00b0 FF33     		adds	r3, r3, #255
 232 00b2 E254     		strb	r2, [r4, r3]
 209:Drivers/STM32F0xx_HAL_Driver/Src/stm32f0xx_hal_pcd.c **** }
 233              		.loc 1 209 2 is_stmt 1 view .LVU69
 209:Drivers/STM32F0xx_HAL_Driver/Src/stm32f0xx_hal_pcd.c **** }
 234              		.loc 1 209 9 is_stmt 0 view .LVU70
 235 00b4 0020     		movs	r0, #0
 236              	.LVL14:
 237              	.L3:
 210:Drivers/STM32F0xx_HAL_Driver/Src/stm32f0xx_hal_pcd.c **** 
 238              		.loc 1 210 1 view .LVU71
 239              		@ sp needed
 240              	.LVL15:
 210:Drivers/STM32F0xx_HAL_Driver/Src/stm32f0xx_hal_pcd.c **** 
 241              		.loc 1 210 1 view .LVU72
 242 00b6 70BD     		pop	{r4, r5, r6, pc}
 243              	.LVL16:
 244              	.L9:
 145:Drivers/STM32F0xx_HAL_Driver/Src/stm32f0xx_hal_pcd.c ****   }
 245              		.loc 1 145 12 view .LVU73
 246 00b8 0120     		movs	r0, #1
 247              	.LVL17:
 145:Drivers/STM32F0xx_HAL_Driver/Src/stm32f0xx_hal_pcd.c ****   }
 248              		.loc 1 145 12 view .LVU74
 249 00ba FCE7     		b	.L3
 250              	.L13:
ARM GAS  /tmp/ccwMzrYy.s 			page 11


 251              		.align	2
 252              	.L12:
 253 00bc 00BFFFFF 		.word	-16640
 254              		.cfi_endproc
 255              	.LFE37:
 257              		.section	.text.HAL_PCD_MspDeInit,"ax",%progbits
 258              		.align	1
 259              		.weak	HAL_PCD_MspDeInit
 260              		.syntax unified
 261              		.code	16
 262              		.thumb_func
 263              		.fpu softvfp
 265              	HAL_PCD_MspDeInit:
 266              	.LVL18:
 267              	.LFB40:
 252:Drivers/STM32F0xx_HAL_Driver/Src/stm32f0xx_hal_pcd.c **** 
 253:Drivers/STM32F0xx_HAL_Driver/Src/stm32f0xx_hal_pcd.c **** /**
 254:Drivers/STM32F0xx_HAL_Driver/Src/stm32f0xx_hal_pcd.c ****   * @brief  DeInitializes PCD MSP.
 255:Drivers/STM32F0xx_HAL_Driver/Src/stm32f0xx_hal_pcd.c ****   * @param  hpcd PCD handle
 256:Drivers/STM32F0xx_HAL_Driver/Src/stm32f0xx_hal_pcd.c ****   * @retval None
 257:Drivers/STM32F0xx_HAL_Driver/Src/stm32f0xx_hal_pcd.c ****   */
 258:Drivers/STM32F0xx_HAL_Driver/Src/stm32f0xx_hal_pcd.c **** __weak void HAL_PCD_MspDeInit(PCD_HandleTypeDef *hpcd)
 259:Drivers/STM32F0xx_HAL_Driver/Src/stm32f0xx_hal_pcd.c **** {
 268              		.loc 1 259 1 is_stmt 1 view -0
 269              		.cfi_startproc
 270              		@ args = 0, pretend = 0, frame = 0
 271              		@ frame_needed = 0, uses_anonymous_args = 0
 272              		@ link register save eliminated.
 260:Drivers/STM32F0xx_HAL_Driver/Src/stm32f0xx_hal_pcd.c ****   /* Prevent unused argument(s) compilation warning */
 261:Drivers/STM32F0xx_HAL_Driver/Src/stm32f0xx_hal_pcd.c ****   UNUSED(hpcd);
 273              		.loc 1 261 3 view .LVU76
 262:Drivers/STM32F0xx_HAL_Driver/Src/stm32f0xx_hal_pcd.c **** 
 263:Drivers/STM32F0xx_HAL_Driver/Src/stm32f0xx_hal_pcd.c ****   /* NOTE : This function Should not be modified, when the callback is needed,
 264:Drivers/STM32F0xx_HAL_Driver/Src/stm32f0xx_hal_pcd.c ****             the HAL_PCD_MspDeInit could be implemented in the user file
 265:Drivers/STM32F0xx_HAL_Driver/Src/stm32f0xx_hal_pcd.c ****    */
 266:Drivers/STM32F0xx_HAL_Driver/Src/stm32f0xx_hal_pcd.c **** }
 274              		.loc 1 266 1 is_stmt 0 view .LVU77
 275              		@ sp needed
 276 0000 7047     		bx	lr
 277              		.cfi_endproc
 278              	.LFE40:
 280              		.section	.text.HAL_PCD_Start,"ax",%progbits
 281              		.align	1
 282              		.global	HAL_PCD_Start
 283              		.syntax unified
 284              		.code	16
 285              		.thumb_func
 286              		.fpu softvfp
 288              	HAL_PCD_Start:
 289              	.LVL19:
 290              	.LFB41:
 267:Drivers/STM32F0xx_HAL_Driver/Src/stm32f0xx_hal_pcd.c **** 
 268:Drivers/STM32F0xx_HAL_Driver/Src/stm32f0xx_hal_pcd.c **** /**
 269:Drivers/STM32F0xx_HAL_Driver/Src/stm32f0xx_hal_pcd.c ****   * @}
 270:Drivers/STM32F0xx_HAL_Driver/Src/stm32f0xx_hal_pcd.c ****   */
 271:Drivers/STM32F0xx_HAL_Driver/Src/stm32f0xx_hal_pcd.c **** 
 272:Drivers/STM32F0xx_HAL_Driver/Src/stm32f0xx_hal_pcd.c **** /** @defgroup PCD_Exported_Functions_Group2 IO operation functions 
ARM GAS  /tmp/ccwMzrYy.s 			page 12


 273:Drivers/STM32F0xx_HAL_Driver/Src/stm32f0xx_hal_pcd.c ****  *  @brief   Data transfers functions 
 274:Drivers/STM32F0xx_HAL_Driver/Src/stm32f0xx_hal_pcd.c ****  *
 275:Drivers/STM32F0xx_HAL_Driver/Src/stm32f0xx_hal_pcd.c **** @verbatim   
 276:Drivers/STM32F0xx_HAL_Driver/Src/stm32f0xx_hal_pcd.c ****  ===============================================================================
 277:Drivers/STM32F0xx_HAL_Driver/Src/stm32f0xx_hal_pcd.c ****                       ##### IO operation functions #####
 278:Drivers/STM32F0xx_HAL_Driver/Src/stm32f0xx_hal_pcd.c ****  ===============================================================================  
 279:Drivers/STM32F0xx_HAL_Driver/Src/stm32f0xx_hal_pcd.c ****     [..]
 280:Drivers/STM32F0xx_HAL_Driver/Src/stm32f0xx_hal_pcd.c ****     This subsection provides a set of functions allowing to manage the PCD data 
 281:Drivers/STM32F0xx_HAL_Driver/Src/stm32f0xx_hal_pcd.c ****     transfers.
 282:Drivers/STM32F0xx_HAL_Driver/Src/stm32f0xx_hal_pcd.c **** 
 283:Drivers/STM32F0xx_HAL_Driver/Src/stm32f0xx_hal_pcd.c **** @endverbatim
 284:Drivers/STM32F0xx_HAL_Driver/Src/stm32f0xx_hal_pcd.c ****   * @{
 285:Drivers/STM32F0xx_HAL_Driver/Src/stm32f0xx_hal_pcd.c ****   */
 286:Drivers/STM32F0xx_HAL_Driver/Src/stm32f0xx_hal_pcd.c ****   
 287:Drivers/STM32F0xx_HAL_Driver/Src/stm32f0xx_hal_pcd.c **** /**
 288:Drivers/STM32F0xx_HAL_Driver/Src/stm32f0xx_hal_pcd.c ****   * @brief  Start the USB device.
 289:Drivers/STM32F0xx_HAL_Driver/Src/stm32f0xx_hal_pcd.c ****   * @param  hpcd PCD handle
 290:Drivers/STM32F0xx_HAL_Driver/Src/stm32f0xx_hal_pcd.c ****   * @retval HAL status
 291:Drivers/STM32F0xx_HAL_Driver/Src/stm32f0xx_hal_pcd.c ****   */
 292:Drivers/STM32F0xx_HAL_Driver/Src/stm32f0xx_hal_pcd.c **** HAL_StatusTypeDef HAL_PCD_Start(PCD_HandleTypeDef *hpcd)
 293:Drivers/STM32F0xx_HAL_Driver/Src/stm32f0xx_hal_pcd.c **** { 
 291              		.loc 1 293 1 is_stmt 1 view -0
 292              		.cfi_startproc
 293              		@ args = 0, pretend = 0, frame = 0
 294              		@ frame_needed = 0, uses_anonymous_args = 0
 295              		@ link register save eliminated.
 294:Drivers/STM32F0xx_HAL_Driver/Src/stm32f0xx_hal_pcd.c ****   /* Enabling DP Pull-Down bit to Connect internal pull-up on USB DP line */
 295:Drivers/STM32F0xx_HAL_Driver/Src/stm32f0xx_hal_pcd.c ****   hpcd->Instance->BCDR |= USB_BCDR_DPPU;
 296              		.loc 1 295 3 view .LVU79
 297              		.loc 1 295 7 is_stmt 0 view .LVU80
 298 0000 0168     		ldr	r1, [r0]
 299              		.loc 1 295 24 view .LVU81
 300 0002 5822     		movs	r2, #88
 301 0004 8B5A     		ldrh	r3, [r1, r2]
 302 0006 0348     		ldr	r0, .L16
 303              	.LVL20:
 304              		.loc 1 295 24 view .LVU82
 305 0008 0343     		orrs	r3, r0
 306 000a 9BB2     		uxth	r3, r3
 307 000c 8B52     		strh	r3, [r1, r2]
 296:Drivers/STM32F0xx_HAL_Driver/Src/stm32f0xx_hal_pcd.c ****   
 297:Drivers/STM32F0xx_HAL_Driver/Src/stm32f0xx_hal_pcd.c ****   return HAL_OK;
 308              		.loc 1 297 3 is_stmt 1 view .LVU83
 298:Drivers/STM32F0xx_HAL_Driver/Src/stm32f0xx_hal_pcd.c **** }
 309              		.loc 1 298 1 is_stmt 0 view .LVU84
 310 000e 0020     		movs	r0, #0
 311              		@ sp needed
 312 0010 7047     		bx	lr
 313              	.L17:
 314 0012 C046     		.align	2
 315              	.L16:
 316 0014 0080FFFF 		.word	-32768
 317              		.cfi_endproc
 318              	.LFE41:
 320              		.section	.text.HAL_PCD_Stop,"ax",%progbits
 321              		.align	1
 322              		.global	HAL_PCD_Stop
ARM GAS  /tmp/ccwMzrYy.s 			page 13


 323              		.syntax unified
 324              		.code	16
 325              		.thumb_func
 326              		.fpu softvfp
 328              	HAL_PCD_Stop:
 329              	.LVL21:
 330              	.LFB42:
 299:Drivers/STM32F0xx_HAL_Driver/Src/stm32f0xx_hal_pcd.c **** 
 300:Drivers/STM32F0xx_HAL_Driver/Src/stm32f0xx_hal_pcd.c **** /**
 301:Drivers/STM32F0xx_HAL_Driver/Src/stm32f0xx_hal_pcd.c ****   * @brief  Stop the USB device.
 302:Drivers/STM32F0xx_HAL_Driver/Src/stm32f0xx_hal_pcd.c ****   * @param  hpcd PCD handle
 303:Drivers/STM32F0xx_HAL_Driver/Src/stm32f0xx_hal_pcd.c ****   * @retval HAL status
 304:Drivers/STM32F0xx_HAL_Driver/Src/stm32f0xx_hal_pcd.c ****   */
 305:Drivers/STM32F0xx_HAL_Driver/Src/stm32f0xx_hal_pcd.c **** HAL_StatusTypeDef HAL_PCD_Stop(PCD_HandleTypeDef *hpcd)
 306:Drivers/STM32F0xx_HAL_Driver/Src/stm32f0xx_hal_pcd.c **** { 
 331              		.loc 1 306 1 is_stmt 1 view -0
 332              		.cfi_startproc
 333              		@ args = 0, pretend = 0, frame = 0
 334              		@ frame_needed = 0, uses_anonymous_args = 0
 335              		.loc 1 306 1 is_stmt 0 view .LVU86
 336 0000 10B5     		push	{r4, lr}
 337              	.LCFI1:
 338              		.cfi_def_cfa_offset 8
 339              		.cfi_offset 4, -8
 340              		.cfi_offset 14, -4
 307:Drivers/STM32F0xx_HAL_Driver/Src/stm32f0xx_hal_pcd.c ****   __HAL_LOCK(hpcd); 
 341              		.loc 1 307 3 is_stmt 1 view .LVU87
 342              		.loc 1 307 3 view .LVU88
 343 0002 F423     		movs	r3, #244
 344 0004 5B00     		lsls	r3, r3, #1
 345 0006 C35C     		ldrb	r3, [r0, r3]
 346 0008 012B     		cmp	r3, #1
 347 000a 10D0     		beq	.L20
 348              		.loc 1 307 3 discriminator 2 view .LVU89
 308:Drivers/STM32F0xx_HAL_Driver/Src/stm32f0xx_hal_pcd.c ****   
 309:Drivers/STM32F0xx_HAL_Driver/Src/stm32f0xx_hal_pcd.c ****     /* disable all interrupts and force USB reset */
 310:Drivers/STM32F0xx_HAL_Driver/Src/stm32f0xx_hal_pcd.c ****   hpcd->Instance->CNTR = USB_CNTR_FRES;
 349              		.loc 1 310 3 discriminator 2 view .LVU90
 350              		.loc 1 310 24 is_stmt 0 discriminator 2 view .LVU91
 351 000c 4023     		movs	r3, #64
 352 000e 0122     		movs	r2, #1
 353 0010 0168     		ldr	r1, [r0]
 354 0012 CA52     		strh	r2, [r1, r3]
 311:Drivers/STM32F0xx_HAL_Driver/Src/stm32f0xx_hal_pcd.c ****   
 312:Drivers/STM32F0xx_HAL_Driver/Src/stm32f0xx_hal_pcd.c ****   /* clear interrupt status register */
 313:Drivers/STM32F0xx_HAL_Driver/Src/stm32f0xx_hal_pcd.c ****   hpcd->Instance->ISTR = 0;
 355              		.loc 1 313 3 is_stmt 1 discriminator 2 view .LVU92
 356              		.loc 1 313 24 is_stmt 0 discriminator 2 view .LVU93
 357 0014 4332     		adds	r2, r2, #67
 358 0016 0021     		movs	r1, #0
 359 0018 0468     		ldr	r4, [r0]
 360 001a A152     		strh	r1, [r4, r2]
 314:Drivers/STM32F0xx_HAL_Driver/Src/stm32f0xx_hal_pcd.c ****   
 315:Drivers/STM32F0xx_HAL_Driver/Src/stm32f0xx_hal_pcd.c ****   /* switch-off device */
 316:Drivers/STM32F0xx_HAL_Driver/Src/stm32f0xx_hal_pcd.c ****   hpcd->Instance->CNTR = (USB_CNTR_FRES | USB_CNTR_PDWN);
 361              		.loc 1 316 3 is_stmt 1 discriminator 2 view .LVU94
 362              		.loc 1 316 24 is_stmt 0 discriminator 2 view .LVU95
ARM GAS  /tmp/ccwMzrYy.s 			page 14


 363 001c 413A     		subs	r2, r2, #65
 364 001e 0168     		ldr	r1, [r0]
 365 0020 CA52     		strh	r2, [r1, r3]
 317:Drivers/STM32F0xx_HAL_Driver/Src/stm32f0xx_hal_pcd.c ****   
 318:Drivers/STM32F0xx_HAL_Driver/Src/stm32f0xx_hal_pcd.c ****   __HAL_UNLOCK(hpcd); 
 366              		.loc 1 318 3 is_stmt 1 discriminator 2 view .LVU96
 367              		.loc 1 318 3 discriminator 2 view .LVU97
 368 0022 0022     		movs	r2, #0
 369 0024 A933     		adds	r3, r3, #169
 370 0026 FF33     		adds	r3, r3, #255
 371 0028 C254     		strb	r2, [r0, r3]
 319:Drivers/STM32F0xx_HAL_Driver/Src/stm32f0xx_hal_pcd.c ****   return HAL_OK;
 372              		.loc 1 319 3 discriminator 2 view .LVU98
 373              		.loc 1 319 10 is_stmt 0 discriminator 2 view .LVU99
 374 002a 0020     		movs	r0, #0
 375              	.LVL22:
 376              	.L19:
 320:Drivers/STM32F0xx_HAL_Driver/Src/stm32f0xx_hal_pcd.c **** }
 377              		.loc 1 320 1 view .LVU100
 378              		@ sp needed
 379 002c 10BD     		pop	{r4, pc}
 380              	.LVL23:
 381              	.L20:
 307:Drivers/STM32F0xx_HAL_Driver/Src/stm32f0xx_hal_pcd.c ****   
 382              		.loc 1 307 3 view .LVU101
 383 002e 0220     		movs	r0, #2
 384              	.LVL24:
 307:Drivers/STM32F0xx_HAL_Driver/Src/stm32f0xx_hal_pcd.c ****   
 385              		.loc 1 307 3 view .LVU102
 386 0030 FCE7     		b	.L19
 387              		.cfi_endproc
 388              	.LFE42:
 390              		.section	.text.HAL_PCD_DeInit,"ax",%progbits
 391              		.align	1
 392              		.global	HAL_PCD_DeInit
 393              		.syntax unified
 394              		.code	16
 395              		.thumb_func
 396              		.fpu softvfp
 398              	HAL_PCD_DeInit:
 399              	.LVL25:
 400              	.LFB38:
 218:Drivers/STM32F0xx_HAL_Driver/Src/stm32f0xx_hal_pcd.c ****   /* Check the PCD handle allocation */
 401              		.loc 1 218 1 is_stmt 1 view -0
 402              		.cfi_startproc
 403              		@ args = 0, pretend = 0, frame = 0
 404              		@ frame_needed = 0, uses_anonymous_args = 0
 218:Drivers/STM32F0xx_HAL_Driver/Src/stm32f0xx_hal_pcd.c ****   /* Check the PCD handle allocation */
 405              		.loc 1 218 1 is_stmt 0 view .LVU104
 406 0000 70B5     		push	{r4, r5, r6, lr}
 407              	.LCFI2:
 408              		.cfi_def_cfa_offset 16
 409              		.cfi_offset 4, -16
 410              		.cfi_offset 5, -12
 411              		.cfi_offset 6, -8
 412              		.cfi_offset 14, -4
 413 0002 041E     		subs	r4, r0, #0
ARM GAS  /tmp/ccwMzrYy.s 			page 15


 220:Drivers/STM32F0xx_HAL_Driver/Src/stm32f0xx_hal_pcd.c ****   {
 414              		.loc 1 220 3 is_stmt 1 view .LVU105
 220:Drivers/STM32F0xx_HAL_Driver/Src/stm32f0xx_hal_pcd.c ****   {
 415              		.loc 1 220 5 is_stmt 0 view .LVU106
 416 0004 0CD0     		beq	.L23
 225:Drivers/STM32F0xx_HAL_Driver/Src/stm32f0xx_hal_pcd.c ****   
 417              		.loc 1 225 3 is_stmt 1 view .LVU107
 225:Drivers/STM32F0xx_HAL_Driver/Src/stm32f0xx_hal_pcd.c ****   
 418              		.loc 1 225 15 is_stmt 0 view .LVU108
 419 0006 EA25     		movs	r5, #234
 420 0008 FF35     		adds	r5, r5, #255
 421 000a 0323     		movs	r3, #3
 422 000c 4355     		strb	r3, [r0, r5]
 228:Drivers/STM32F0xx_HAL_Driver/Src/stm32f0xx_hal_pcd.c ****     
 423              		.loc 1 228 3 is_stmt 1 view .LVU109
 424 000e FFF7FEFF 		bl	HAL_PCD_Stop
 425              	.LVL26:
 231:Drivers/STM32F0xx_HAL_Driver/Src/stm32f0xx_hal_pcd.c ****   
 426              		.loc 1 231 3 view .LVU110
 427 0012 2000     		movs	r0, r4
 428 0014 FFF7FEFF 		bl	HAL_PCD_MspDeInit
 429              	.LVL27:
 233:Drivers/STM32F0xx_HAL_Driver/Src/stm32f0xx_hal_pcd.c ****   
 430              		.loc 1 233 3 view .LVU111
 233:Drivers/STM32F0xx_HAL_Driver/Src/stm32f0xx_hal_pcd.c ****   
 431              		.loc 1 233 15 is_stmt 0 view .LVU112
 432 0018 0023     		movs	r3, #0
 433 001a 6355     		strb	r3, [r4, r5]
 235:Drivers/STM32F0xx_HAL_Driver/Src/stm32f0xx_hal_pcd.c **** }
 434              		.loc 1 235 3 is_stmt 1 view .LVU113
 235:Drivers/STM32F0xx_HAL_Driver/Src/stm32f0xx_hal_pcd.c **** }
 435              		.loc 1 235 10 is_stmt 0 view .LVU114
 436 001c 0020     		movs	r0, #0
 437              	.L22:
 236:Drivers/STM32F0xx_HAL_Driver/Src/stm32f0xx_hal_pcd.c **** 
 438              		.loc 1 236 1 view .LVU115
 439              		@ sp needed
 440              	.LVL28:
 236:Drivers/STM32F0xx_HAL_Driver/Src/stm32f0xx_hal_pcd.c **** 
 441              		.loc 1 236 1 view .LVU116
 442 001e 70BD     		pop	{r4, r5, r6, pc}
 443              	.LVL29:
 444              	.L23:
 222:Drivers/STM32F0xx_HAL_Driver/Src/stm32f0xx_hal_pcd.c ****   }
 445              		.loc 1 222 12 view .LVU117
 446 0020 0120     		movs	r0, #1
 447              	.LVL30:
 222:Drivers/STM32F0xx_HAL_Driver/Src/stm32f0xx_hal_pcd.c ****   }
 448              		.loc 1 222 12 view .LVU118
 449 0022 FCE7     		b	.L22
 450              		.cfi_endproc
 451              	.LFE38:
 453              		.section	.text.HAL_PCD_DataOutStageCallback,"ax",%progbits
 454              		.align	1
 455              		.weak	HAL_PCD_DataOutStageCallback
 456              		.syntax unified
 457              		.code	16
ARM GAS  /tmp/ccwMzrYy.s 			page 16


 458              		.thumb_func
 459              		.fpu softvfp
 461              	HAL_PCD_DataOutStageCallback:
 462              	.LVL31:
 463              	.LFB44:
 321:Drivers/STM32F0xx_HAL_Driver/Src/stm32f0xx_hal_pcd.c **** 
 322:Drivers/STM32F0xx_HAL_Driver/Src/stm32f0xx_hal_pcd.c **** /**
 323:Drivers/STM32F0xx_HAL_Driver/Src/stm32f0xx_hal_pcd.c ****   * @brief  This function handles PCD interrupt request.
 324:Drivers/STM32F0xx_HAL_Driver/Src/stm32f0xx_hal_pcd.c ****   * @param  hpcd PCD handle
 325:Drivers/STM32F0xx_HAL_Driver/Src/stm32f0xx_hal_pcd.c ****   * @retval HAL status
 326:Drivers/STM32F0xx_HAL_Driver/Src/stm32f0xx_hal_pcd.c ****   */
 327:Drivers/STM32F0xx_HAL_Driver/Src/stm32f0xx_hal_pcd.c **** void HAL_PCD_IRQHandler(PCD_HandleTypeDef *hpcd)
 328:Drivers/STM32F0xx_HAL_Driver/Src/stm32f0xx_hal_pcd.c **** {
 329:Drivers/STM32F0xx_HAL_Driver/Src/stm32f0xx_hal_pcd.c ****   uint32_t wInterrupt_Mask = 0U;
 330:Drivers/STM32F0xx_HAL_Driver/Src/stm32f0xx_hal_pcd.c ****   
 331:Drivers/STM32F0xx_HAL_Driver/Src/stm32f0xx_hal_pcd.c ****   if (__HAL_PCD_GET_FLAG (hpcd, USB_ISTR_CTR))
 332:Drivers/STM32F0xx_HAL_Driver/Src/stm32f0xx_hal_pcd.c ****   {
 333:Drivers/STM32F0xx_HAL_Driver/Src/stm32f0xx_hal_pcd.c ****     /* servicing of the endpoint correct transfer interrupt */
 334:Drivers/STM32F0xx_HAL_Driver/Src/stm32f0xx_hal_pcd.c ****     /* clear of the CTR flag into the sub */
 335:Drivers/STM32F0xx_HAL_Driver/Src/stm32f0xx_hal_pcd.c ****     PCD_EP_ISR_Handler(hpcd);
 336:Drivers/STM32F0xx_HAL_Driver/Src/stm32f0xx_hal_pcd.c ****   }
 337:Drivers/STM32F0xx_HAL_Driver/Src/stm32f0xx_hal_pcd.c **** 
 338:Drivers/STM32F0xx_HAL_Driver/Src/stm32f0xx_hal_pcd.c ****   if (__HAL_PCD_GET_FLAG (hpcd, USB_ISTR_RESET))
 339:Drivers/STM32F0xx_HAL_Driver/Src/stm32f0xx_hal_pcd.c ****   {
 340:Drivers/STM32F0xx_HAL_Driver/Src/stm32f0xx_hal_pcd.c ****     __HAL_PCD_CLEAR_FLAG(hpcd, USB_ISTR_RESET);
 341:Drivers/STM32F0xx_HAL_Driver/Src/stm32f0xx_hal_pcd.c ****     HAL_PCD_ResetCallback(hpcd);
 342:Drivers/STM32F0xx_HAL_Driver/Src/stm32f0xx_hal_pcd.c ****     HAL_PCD_SetAddress(hpcd, 0U);
 343:Drivers/STM32F0xx_HAL_Driver/Src/stm32f0xx_hal_pcd.c ****   }
 344:Drivers/STM32F0xx_HAL_Driver/Src/stm32f0xx_hal_pcd.c **** 
 345:Drivers/STM32F0xx_HAL_Driver/Src/stm32f0xx_hal_pcd.c ****   if (__HAL_PCD_GET_FLAG (hpcd, USB_ISTR_PMAOVR))
 346:Drivers/STM32F0xx_HAL_Driver/Src/stm32f0xx_hal_pcd.c ****   {
 347:Drivers/STM32F0xx_HAL_Driver/Src/stm32f0xx_hal_pcd.c ****     __HAL_PCD_CLEAR_FLAG(hpcd, USB_ISTR_PMAOVR);    
 348:Drivers/STM32F0xx_HAL_Driver/Src/stm32f0xx_hal_pcd.c ****   }
 349:Drivers/STM32F0xx_HAL_Driver/Src/stm32f0xx_hal_pcd.c **** 
 350:Drivers/STM32F0xx_HAL_Driver/Src/stm32f0xx_hal_pcd.c ****   if (__HAL_PCD_GET_FLAG (hpcd, USB_ISTR_ERR))
 351:Drivers/STM32F0xx_HAL_Driver/Src/stm32f0xx_hal_pcd.c ****   {
 352:Drivers/STM32F0xx_HAL_Driver/Src/stm32f0xx_hal_pcd.c ****     __HAL_PCD_CLEAR_FLAG(hpcd, USB_ISTR_ERR); 
 353:Drivers/STM32F0xx_HAL_Driver/Src/stm32f0xx_hal_pcd.c ****   }
 354:Drivers/STM32F0xx_HAL_Driver/Src/stm32f0xx_hal_pcd.c **** 
 355:Drivers/STM32F0xx_HAL_Driver/Src/stm32f0xx_hal_pcd.c ****   if (__HAL_PCD_GET_FLAG (hpcd, USB_ISTR_WKUP))
 356:Drivers/STM32F0xx_HAL_Driver/Src/stm32f0xx_hal_pcd.c ****   {
 357:Drivers/STM32F0xx_HAL_Driver/Src/stm32f0xx_hal_pcd.c ****     
 358:Drivers/STM32F0xx_HAL_Driver/Src/stm32f0xx_hal_pcd.c ****     hpcd->Instance->CNTR &= (uint16_t)(~(USB_CNTR_LPMODE));
 359:Drivers/STM32F0xx_HAL_Driver/Src/stm32f0xx_hal_pcd.c **** 
 360:Drivers/STM32F0xx_HAL_Driver/Src/stm32f0xx_hal_pcd.c ****     /*set wInterrupt_Mask global variable*/
 361:Drivers/STM32F0xx_HAL_Driver/Src/stm32f0xx_hal_pcd.c ****     wInterrupt_Mask = USB_CNTR_CTRM  | USB_CNTR_WKUPM | USB_CNTR_SUSPM | USB_CNTR_ERRM \
 362:Drivers/STM32F0xx_HAL_Driver/Src/stm32f0xx_hal_pcd.c ****       | USB_CNTR_ESOFM | USB_CNTR_RESETM;
 363:Drivers/STM32F0xx_HAL_Driver/Src/stm32f0xx_hal_pcd.c ****     
 364:Drivers/STM32F0xx_HAL_Driver/Src/stm32f0xx_hal_pcd.c ****     /*Set interrupt mask*/
 365:Drivers/STM32F0xx_HAL_Driver/Src/stm32f0xx_hal_pcd.c ****     hpcd->Instance->CNTR = wInterrupt_Mask;
 366:Drivers/STM32F0xx_HAL_Driver/Src/stm32f0xx_hal_pcd.c ****     
 367:Drivers/STM32F0xx_HAL_Driver/Src/stm32f0xx_hal_pcd.c ****     HAL_PCD_ResumeCallback(hpcd);
 368:Drivers/STM32F0xx_HAL_Driver/Src/stm32f0xx_hal_pcd.c ****     
 369:Drivers/STM32F0xx_HAL_Driver/Src/stm32f0xx_hal_pcd.c ****     __HAL_PCD_CLEAR_FLAG(hpcd, USB_ISTR_WKUP);     
 370:Drivers/STM32F0xx_HAL_Driver/Src/stm32f0xx_hal_pcd.c ****   }
 371:Drivers/STM32F0xx_HAL_Driver/Src/stm32f0xx_hal_pcd.c **** 
 372:Drivers/STM32F0xx_HAL_Driver/Src/stm32f0xx_hal_pcd.c ****   if (__HAL_PCD_GET_FLAG (hpcd, USB_ISTR_SUSP))
ARM GAS  /tmp/ccwMzrYy.s 			page 17


 373:Drivers/STM32F0xx_HAL_Driver/Src/stm32f0xx_hal_pcd.c ****   {    
 374:Drivers/STM32F0xx_HAL_Driver/Src/stm32f0xx_hal_pcd.c ****     /* clear of the ISTR bit must be done after setting of CNTR_FSUSP */
 375:Drivers/STM32F0xx_HAL_Driver/Src/stm32f0xx_hal_pcd.c ****     __HAL_PCD_CLEAR_FLAG(hpcd, USB_ISTR_SUSP);  
 376:Drivers/STM32F0xx_HAL_Driver/Src/stm32f0xx_hal_pcd.c ****     
 377:Drivers/STM32F0xx_HAL_Driver/Src/stm32f0xx_hal_pcd.c ****     /* Force low-power mode in the macrocell */
 378:Drivers/STM32F0xx_HAL_Driver/Src/stm32f0xx_hal_pcd.c ****     hpcd->Instance->CNTR |= USB_CNTR_FSUSP;
 379:Drivers/STM32F0xx_HAL_Driver/Src/stm32f0xx_hal_pcd.c ****     hpcd->Instance->CNTR |= USB_CNTR_LPMODE;
 380:Drivers/STM32F0xx_HAL_Driver/Src/stm32f0xx_hal_pcd.c **** 
 381:Drivers/STM32F0xx_HAL_Driver/Src/stm32f0xx_hal_pcd.c ****     if (__HAL_PCD_GET_FLAG (hpcd, USB_ISTR_WKUP) == 0)
 382:Drivers/STM32F0xx_HAL_Driver/Src/stm32f0xx_hal_pcd.c ****     {
 383:Drivers/STM32F0xx_HAL_Driver/Src/stm32f0xx_hal_pcd.c ****       HAL_PCD_SuspendCallback(hpcd);
 384:Drivers/STM32F0xx_HAL_Driver/Src/stm32f0xx_hal_pcd.c ****     }
 385:Drivers/STM32F0xx_HAL_Driver/Src/stm32f0xx_hal_pcd.c ****   }
 386:Drivers/STM32F0xx_HAL_Driver/Src/stm32f0xx_hal_pcd.c **** 
 387:Drivers/STM32F0xx_HAL_Driver/Src/stm32f0xx_hal_pcd.c ****   if (__HAL_PCD_GET_FLAG (hpcd, USB_ISTR_SOF))
 388:Drivers/STM32F0xx_HAL_Driver/Src/stm32f0xx_hal_pcd.c ****   {
 389:Drivers/STM32F0xx_HAL_Driver/Src/stm32f0xx_hal_pcd.c ****     __HAL_PCD_CLEAR_FLAG(hpcd, USB_ISTR_SOF); 
 390:Drivers/STM32F0xx_HAL_Driver/Src/stm32f0xx_hal_pcd.c ****     HAL_PCD_SOFCallback(hpcd);
 391:Drivers/STM32F0xx_HAL_Driver/Src/stm32f0xx_hal_pcd.c ****   }
 392:Drivers/STM32F0xx_HAL_Driver/Src/stm32f0xx_hal_pcd.c **** 
 393:Drivers/STM32F0xx_HAL_Driver/Src/stm32f0xx_hal_pcd.c ****   if (__HAL_PCD_GET_FLAG (hpcd, USB_ISTR_ESOF))
 394:Drivers/STM32F0xx_HAL_Driver/Src/stm32f0xx_hal_pcd.c ****   {
 395:Drivers/STM32F0xx_HAL_Driver/Src/stm32f0xx_hal_pcd.c ****     /* clear ESOF flag in ISTR */
 396:Drivers/STM32F0xx_HAL_Driver/Src/stm32f0xx_hal_pcd.c ****     __HAL_PCD_CLEAR_FLAG(hpcd, USB_ISTR_ESOF); 
 397:Drivers/STM32F0xx_HAL_Driver/Src/stm32f0xx_hal_pcd.c ****   }
 398:Drivers/STM32F0xx_HAL_Driver/Src/stm32f0xx_hal_pcd.c **** }
 399:Drivers/STM32F0xx_HAL_Driver/Src/stm32f0xx_hal_pcd.c **** 
 400:Drivers/STM32F0xx_HAL_Driver/Src/stm32f0xx_hal_pcd.c **** /**
 401:Drivers/STM32F0xx_HAL_Driver/Src/stm32f0xx_hal_pcd.c ****   * @brief  Data out stage callbacks
 402:Drivers/STM32F0xx_HAL_Driver/Src/stm32f0xx_hal_pcd.c ****   * @param  hpcd PCD handle
 403:Drivers/STM32F0xx_HAL_Driver/Src/stm32f0xx_hal_pcd.c ****   * @param  epnum endpoint number
 404:Drivers/STM32F0xx_HAL_Driver/Src/stm32f0xx_hal_pcd.c ****   * @retval None
 405:Drivers/STM32F0xx_HAL_Driver/Src/stm32f0xx_hal_pcd.c ****   */
 406:Drivers/STM32F0xx_HAL_Driver/Src/stm32f0xx_hal_pcd.c ****  __weak void HAL_PCD_DataOutStageCallback(PCD_HandleTypeDef *hpcd, uint8_t epnum)
 407:Drivers/STM32F0xx_HAL_Driver/Src/stm32f0xx_hal_pcd.c **** {
 464              		.loc 1 407 1 is_stmt 1 view -0
 465              		.cfi_startproc
 466              		@ args = 0, pretend = 0, frame = 0
 467              		@ frame_needed = 0, uses_anonymous_args = 0
 468              		@ link register save eliminated.
 408:Drivers/STM32F0xx_HAL_Driver/Src/stm32f0xx_hal_pcd.c ****   /* Prevent unused argument(s) compilation warning */
 409:Drivers/STM32F0xx_HAL_Driver/Src/stm32f0xx_hal_pcd.c ****   UNUSED(hpcd);
 469              		.loc 1 409 3 view .LVU120
 410:Drivers/STM32F0xx_HAL_Driver/Src/stm32f0xx_hal_pcd.c ****   UNUSED(epnum);
 470              		.loc 1 410 3 view .LVU121
 411:Drivers/STM32F0xx_HAL_Driver/Src/stm32f0xx_hal_pcd.c **** 
 412:Drivers/STM32F0xx_HAL_Driver/Src/stm32f0xx_hal_pcd.c ****   /* NOTE : This function Should not be modified, when the callback is needed,
 413:Drivers/STM32F0xx_HAL_Driver/Src/stm32f0xx_hal_pcd.c ****             the HAL_PCD_DataOutStageCallback could be implemented in the user file
 414:Drivers/STM32F0xx_HAL_Driver/Src/stm32f0xx_hal_pcd.c ****    */ 
 415:Drivers/STM32F0xx_HAL_Driver/Src/stm32f0xx_hal_pcd.c **** }
 471              		.loc 1 415 1 is_stmt 0 view .LVU122
 472              		@ sp needed
 473 0000 7047     		bx	lr
 474              		.cfi_endproc
 475              	.LFE44:
 477              		.section	.text.HAL_PCD_DataInStageCallback,"ax",%progbits
 478              		.align	1
ARM GAS  /tmp/ccwMzrYy.s 			page 18


 479              		.weak	HAL_PCD_DataInStageCallback
 480              		.syntax unified
 481              		.code	16
 482              		.thumb_func
 483              		.fpu softvfp
 485              	HAL_PCD_DataInStageCallback:
 486              	.LVL32:
 487              	.LFB45:
 416:Drivers/STM32F0xx_HAL_Driver/Src/stm32f0xx_hal_pcd.c **** 
 417:Drivers/STM32F0xx_HAL_Driver/Src/stm32f0xx_hal_pcd.c **** /**
 418:Drivers/STM32F0xx_HAL_Driver/Src/stm32f0xx_hal_pcd.c ****   * @brief  Data IN stage callbacks
 419:Drivers/STM32F0xx_HAL_Driver/Src/stm32f0xx_hal_pcd.c ****   * @param  hpcd PCD handle
 420:Drivers/STM32F0xx_HAL_Driver/Src/stm32f0xx_hal_pcd.c ****   * @param  epnum endpoint number
 421:Drivers/STM32F0xx_HAL_Driver/Src/stm32f0xx_hal_pcd.c ****   * @retval None
 422:Drivers/STM32F0xx_HAL_Driver/Src/stm32f0xx_hal_pcd.c ****   */
 423:Drivers/STM32F0xx_HAL_Driver/Src/stm32f0xx_hal_pcd.c ****  __weak void HAL_PCD_DataInStageCallback(PCD_HandleTypeDef *hpcd, uint8_t epnum)
 424:Drivers/STM32F0xx_HAL_Driver/Src/stm32f0xx_hal_pcd.c **** {
 488              		.loc 1 424 1 is_stmt 1 view -0
 489              		.cfi_startproc
 490              		@ args = 0, pretend = 0, frame = 0
 491              		@ frame_needed = 0, uses_anonymous_args = 0
 492              		@ link register save eliminated.
 425:Drivers/STM32F0xx_HAL_Driver/Src/stm32f0xx_hal_pcd.c ****   /* Prevent unused argument(s) compilation warning */
 426:Drivers/STM32F0xx_HAL_Driver/Src/stm32f0xx_hal_pcd.c ****   UNUSED(hpcd);
 493              		.loc 1 426 3 view .LVU124
 427:Drivers/STM32F0xx_HAL_Driver/Src/stm32f0xx_hal_pcd.c ****   UNUSED(epnum);
 494              		.loc 1 427 3 view .LVU125
 428:Drivers/STM32F0xx_HAL_Driver/Src/stm32f0xx_hal_pcd.c **** 
 429:Drivers/STM32F0xx_HAL_Driver/Src/stm32f0xx_hal_pcd.c ****   /* NOTE : This function Should not be modified, when the callback is needed,
 430:Drivers/STM32F0xx_HAL_Driver/Src/stm32f0xx_hal_pcd.c ****             the HAL_PCD_DataInStageCallback could be implemented in the user file
 431:Drivers/STM32F0xx_HAL_Driver/Src/stm32f0xx_hal_pcd.c ****    */ 
 432:Drivers/STM32F0xx_HAL_Driver/Src/stm32f0xx_hal_pcd.c **** }
 495              		.loc 1 432 1 is_stmt 0 view .LVU126
 496              		@ sp needed
 497 0000 7047     		bx	lr
 498              		.cfi_endproc
 499              	.LFE45:
 501              		.section	.text.HAL_PCD_SetupStageCallback,"ax",%progbits
 502              		.align	1
 503              		.weak	HAL_PCD_SetupStageCallback
 504              		.syntax unified
 505              		.code	16
 506              		.thumb_func
 507              		.fpu softvfp
 509              	HAL_PCD_SetupStageCallback:
 510              	.LVL33:
 511              	.LFB46:
 433:Drivers/STM32F0xx_HAL_Driver/Src/stm32f0xx_hal_pcd.c **** /**
 434:Drivers/STM32F0xx_HAL_Driver/Src/stm32f0xx_hal_pcd.c ****   * @brief  Setup stage callback
 435:Drivers/STM32F0xx_HAL_Driver/Src/stm32f0xx_hal_pcd.c ****   * @param  hpcd PCD handle
 436:Drivers/STM32F0xx_HAL_Driver/Src/stm32f0xx_hal_pcd.c ****   * @retval None
 437:Drivers/STM32F0xx_HAL_Driver/Src/stm32f0xx_hal_pcd.c ****   */
 438:Drivers/STM32F0xx_HAL_Driver/Src/stm32f0xx_hal_pcd.c ****  __weak void HAL_PCD_SetupStageCallback(PCD_HandleTypeDef *hpcd)
 439:Drivers/STM32F0xx_HAL_Driver/Src/stm32f0xx_hal_pcd.c **** {
 512              		.loc 1 439 1 is_stmt 1 view -0
 513              		.cfi_startproc
 514              		@ args = 0, pretend = 0, frame = 0
ARM GAS  /tmp/ccwMzrYy.s 			page 19


 515              		@ frame_needed = 0, uses_anonymous_args = 0
 516              		@ link register save eliminated.
 440:Drivers/STM32F0xx_HAL_Driver/Src/stm32f0xx_hal_pcd.c ****   /* Prevent unused argument(s) compilation warning */
 441:Drivers/STM32F0xx_HAL_Driver/Src/stm32f0xx_hal_pcd.c ****   UNUSED(hpcd);
 517              		.loc 1 441 3 view .LVU128
 442:Drivers/STM32F0xx_HAL_Driver/Src/stm32f0xx_hal_pcd.c **** 
 443:Drivers/STM32F0xx_HAL_Driver/Src/stm32f0xx_hal_pcd.c ****   /* NOTE : This function Should not be modified, when the callback is needed,
 444:Drivers/STM32F0xx_HAL_Driver/Src/stm32f0xx_hal_pcd.c ****             the HAL_PCD_SetupStageCallback could be implemented in the user file
 445:Drivers/STM32F0xx_HAL_Driver/Src/stm32f0xx_hal_pcd.c ****    */ 
 446:Drivers/STM32F0xx_HAL_Driver/Src/stm32f0xx_hal_pcd.c **** }
 518              		.loc 1 446 1 is_stmt 0 view .LVU129
 519              		@ sp needed
 520 0000 7047     		bx	lr
 521              		.cfi_endproc
 522              	.LFE46:
 524              		.section	.text.HAL_PCD_SOFCallback,"ax",%progbits
 525              		.align	1
 526              		.weak	HAL_PCD_SOFCallback
 527              		.syntax unified
 528              		.code	16
 529              		.thumb_func
 530              		.fpu softvfp
 532              	HAL_PCD_SOFCallback:
 533              	.LVL34:
 534              	.LFB47:
 447:Drivers/STM32F0xx_HAL_Driver/Src/stm32f0xx_hal_pcd.c **** 
 448:Drivers/STM32F0xx_HAL_Driver/Src/stm32f0xx_hal_pcd.c **** /**
 449:Drivers/STM32F0xx_HAL_Driver/Src/stm32f0xx_hal_pcd.c ****   * @brief  USB Start Of Frame callbacks
 450:Drivers/STM32F0xx_HAL_Driver/Src/stm32f0xx_hal_pcd.c ****   * @param  hpcd PCD handle
 451:Drivers/STM32F0xx_HAL_Driver/Src/stm32f0xx_hal_pcd.c ****   * @retval None
 452:Drivers/STM32F0xx_HAL_Driver/Src/stm32f0xx_hal_pcd.c ****   */
 453:Drivers/STM32F0xx_HAL_Driver/Src/stm32f0xx_hal_pcd.c ****  __weak void HAL_PCD_SOFCallback(PCD_HandleTypeDef *hpcd)
 454:Drivers/STM32F0xx_HAL_Driver/Src/stm32f0xx_hal_pcd.c **** {
 535              		.loc 1 454 1 is_stmt 1 view -0
 536              		.cfi_startproc
 537              		@ args = 0, pretend = 0, frame = 0
 538              		@ frame_needed = 0, uses_anonymous_args = 0
 539              		@ link register save eliminated.
 455:Drivers/STM32F0xx_HAL_Driver/Src/stm32f0xx_hal_pcd.c ****   /* Prevent unused argument(s) compilation warning */
 456:Drivers/STM32F0xx_HAL_Driver/Src/stm32f0xx_hal_pcd.c ****   UNUSED(hpcd);
 540              		.loc 1 456 3 view .LVU131
 457:Drivers/STM32F0xx_HAL_Driver/Src/stm32f0xx_hal_pcd.c **** 
 458:Drivers/STM32F0xx_HAL_Driver/Src/stm32f0xx_hal_pcd.c ****   /* NOTE : This function Should not be modified, when the callback is needed,
 459:Drivers/STM32F0xx_HAL_Driver/Src/stm32f0xx_hal_pcd.c ****             the HAL_PCD_SOFCallback could be implemented in the user file
 460:Drivers/STM32F0xx_HAL_Driver/Src/stm32f0xx_hal_pcd.c ****    */ 
 461:Drivers/STM32F0xx_HAL_Driver/Src/stm32f0xx_hal_pcd.c **** }
 541              		.loc 1 461 1 is_stmt 0 view .LVU132
 542              		@ sp needed
 543 0000 7047     		bx	lr
 544              		.cfi_endproc
 545              	.LFE47:
 547              		.section	.text.HAL_PCD_ResetCallback,"ax",%progbits
 548              		.align	1
 549              		.weak	HAL_PCD_ResetCallback
 550              		.syntax unified
 551              		.code	16
 552              		.thumb_func
ARM GAS  /tmp/ccwMzrYy.s 			page 20


 553              		.fpu softvfp
 555              	HAL_PCD_ResetCallback:
 556              	.LVL35:
 557              	.LFB48:
 462:Drivers/STM32F0xx_HAL_Driver/Src/stm32f0xx_hal_pcd.c **** 
 463:Drivers/STM32F0xx_HAL_Driver/Src/stm32f0xx_hal_pcd.c **** /**
 464:Drivers/STM32F0xx_HAL_Driver/Src/stm32f0xx_hal_pcd.c ****   * @brief  USB Reset callbacks
 465:Drivers/STM32F0xx_HAL_Driver/Src/stm32f0xx_hal_pcd.c ****   * @param  hpcd PCD handle
 466:Drivers/STM32F0xx_HAL_Driver/Src/stm32f0xx_hal_pcd.c ****   * @retval None
 467:Drivers/STM32F0xx_HAL_Driver/Src/stm32f0xx_hal_pcd.c ****   */
 468:Drivers/STM32F0xx_HAL_Driver/Src/stm32f0xx_hal_pcd.c ****  __weak void HAL_PCD_ResetCallback(PCD_HandleTypeDef *hpcd)
 469:Drivers/STM32F0xx_HAL_Driver/Src/stm32f0xx_hal_pcd.c **** {
 558              		.loc 1 469 1 is_stmt 1 view -0
 559              		.cfi_startproc
 560              		@ args = 0, pretend = 0, frame = 0
 561              		@ frame_needed = 0, uses_anonymous_args = 0
 562              		@ link register save eliminated.
 470:Drivers/STM32F0xx_HAL_Driver/Src/stm32f0xx_hal_pcd.c ****   /* Prevent unused argument(s) compilation warning */
 471:Drivers/STM32F0xx_HAL_Driver/Src/stm32f0xx_hal_pcd.c ****   UNUSED(hpcd);
 563              		.loc 1 471 3 view .LVU134
 472:Drivers/STM32F0xx_HAL_Driver/Src/stm32f0xx_hal_pcd.c **** 
 473:Drivers/STM32F0xx_HAL_Driver/Src/stm32f0xx_hal_pcd.c ****   /* NOTE : This function Should not be modified, when the callback is needed,
 474:Drivers/STM32F0xx_HAL_Driver/Src/stm32f0xx_hal_pcd.c ****             the HAL_PCD_ResetCallback could be implemented in the user file
 475:Drivers/STM32F0xx_HAL_Driver/Src/stm32f0xx_hal_pcd.c ****    */ 
 476:Drivers/STM32F0xx_HAL_Driver/Src/stm32f0xx_hal_pcd.c **** }
 564              		.loc 1 476 1 is_stmt 0 view .LVU135
 565              		@ sp needed
 566 0000 7047     		bx	lr
 567              		.cfi_endproc
 568              	.LFE48:
 570              		.section	.text.HAL_PCD_SuspendCallback,"ax",%progbits
 571              		.align	1
 572              		.weak	HAL_PCD_SuspendCallback
 573              		.syntax unified
 574              		.code	16
 575              		.thumb_func
 576              		.fpu softvfp
 578              	HAL_PCD_SuspendCallback:
 579              	.LVL36:
 580              	.LFB49:
 477:Drivers/STM32F0xx_HAL_Driver/Src/stm32f0xx_hal_pcd.c **** 
 478:Drivers/STM32F0xx_HAL_Driver/Src/stm32f0xx_hal_pcd.c **** /**
 479:Drivers/STM32F0xx_HAL_Driver/Src/stm32f0xx_hal_pcd.c ****   * @brief  Suspend event callbacks
 480:Drivers/STM32F0xx_HAL_Driver/Src/stm32f0xx_hal_pcd.c ****   * @param  hpcd PCD handle
 481:Drivers/STM32F0xx_HAL_Driver/Src/stm32f0xx_hal_pcd.c ****   * @retval None
 482:Drivers/STM32F0xx_HAL_Driver/Src/stm32f0xx_hal_pcd.c ****   */
 483:Drivers/STM32F0xx_HAL_Driver/Src/stm32f0xx_hal_pcd.c ****  __weak void HAL_PCD_SuspendCallback(PCD_HandleTypeDef *hpcd)
 484:Drivers/STM32F0xx_HAL_Driver/Src/stm32f0xx_hal_pcd.c **** {
 581              		.loc 1 484 1 is_stmt 1 view -0
 582              		.cfi_startproc
 583              		@ args = 0, pretend = 0, frame = 0
 584              		@ frame_needed = 0, uses_anonymous_args = 0
 585              		@ link register save eliminated.
 485:Drivers/STM32F0xx_HAL_Driver/Src/stm32f0xx_hal_pcd.c ****   /* Prevent unused argument(s) compilation warning */
 486:Drivers/STM32F0xx_HAL_Driver/Src/stm32f0xx_hal_pcd.c ****   UNUSED(hpcd);
 586              		.loc 1 486 3 view .LVU137
 487:Drivers/STM32F0xx_HAL_Driver/Src/stm32f0xx_hal_pcd.c **** 
ARM GAS  /tmp/ccwMzrYy.s 			page 21


 488:Drivers/STM32F0xx_HAL_Driver/Src/stm32f0xx_hal_pcd.c ****   /* NOTE : This function Should not be modified, when the callback is needed,
 489:Drivers/STM32F0xx_HAL_Driver/Src/stm32f0xx_hal_pcd.c ****             the HAL_PCD_SuspendCallback could be implemented in the user file
 490:Drivers/STM32F0xx_HAL_Driver/Src/stm32f0xx_hal_pcd.c ****    */ 
 491:Drivers/STM32F0xx_HAL_Driver/Src/stm32f0xx_hal_pcd.c **** }
 587              		.loc 1 491 1 is_stmt 0 view .LVU138
 588              		@ sp needed
 589 0000 7047     		bx	lr
 590              		.cfi_endproc
 591              	.LFE49:
 593              		.section	.text.HAL_PCD_ResumeCallback,"ax",%progbits
 594              		.align	1
 595              		.weak	HAL_PCD_ResumeCallback
 596              		.syntax unified
 597              		.code	16
 598              		.thumb_func
 599              		.fpu softvfp
 601              	HAL_PCD_ResumeCallback:
 602              	.LVL37:
 603              	.LFB50:
 492:Drivers/STM32F0xx_HAL_Driver/Src/stm32f0xx_hal_pcd.c **** 
 493:Drivers/STM32F0xx_HAL_Driver/Src/stm32f0xx_hal_pcd.c **** /**
 494:Drivers/STM32F0xx_HAL_Driver/Src/stm32f0xx_hal_pcd.c ****   * @brief  Resume event callbacks
 495:Drivers/STM32F0xx_HAL_Driver/Src/stm32f0xx_hal_pcd.c ****   * @param  hpcd PCD handle
 496:Drivers/STM32F0xx_HAL_Driver/Src/stm32f0xx_hal_pcd.c ****   * @retval None
 497:Drivers/STM32F0xx_HAL_Driver/Src/stm32f0xx_hal_pcd.c ****   */
 498:Drivers/STM32F0xx_HAL_Driver/Src/stm32f0xx_hal_pcd.c ****  __weak void HAL_PCD_ResumeCallback(PCD_HandleTypeDef *hpcd)
 499:Drivers/STM32F0xx_HAL_Driver/Src/stm32f0xx_hal_pcd.c **** {
 604              		.loc 1 499 1 is_stmt 1 view -0
 605              		.cfi_startproc
 606              		@ args = 0, pretend = 0, frame = 0
 607              		@ frame_needed = 0, uses_anonymous_args = 0
 608              		@ link register save eliminated.
 500:Drivers/STM32F0xx_HAL_Driver/Src/stm32f0xx_hal_pcd.c ****   /* Prevent unused argument(s) compilation warning */
 501:Drivers/STM32F0xx_HAL_Driver/Src/stm32f0xx_hal_pcd.c ****   UNUSED(hpcd);
 609              		.loc 1 501 3 view .LVU140
 502:Drivers/STM32F0xx_HAL_Driver/Src/stm32f0xx_hal_pcd.c **** 
 503:Drivers/STM32F0xx_HAL_Driver/Src/stm32f0xx_hal_pcd.c ****   /* NOTE : This function Should not be modified, when the callback is needed,
 504:Drivers/STM32F0xx_HAL_Driver/Src/stm32f0xx_hal_pcd.c ****             the HAL_PCD_ResumeCallback could be implemented in the user file
 505:Drivers/STM32F0xx_HAL_Driver/Src/stm32f0xx_hal_pcd.c ****    */ 
 506:Drivers/STM32F0xx_HAL_Driver/Src/stm32f0xx_hal_pcd.c **** }
 610              		.loc 1 506 1 is_stmt 0 view .LVU141
 611              		@ sp needed
 612 0000 7047     		bx	lr
 613              		.cfi_endproc
 614              	.LFE50:
 616              		.section	.text.HAL_PCD_ISOOUTIncompleteCallback,"ax",%progbits
 617              		.align	1
 618              		.weak	HAL_PCD_ISOOUTIncompleteCallback
 619              		.syntax unified
 620              		.code	16
 621              		.thumb_func
 622              		.fpu softvfp
 624              	HAL_PCD_ISOOUTIncompleteCallback:
 625              	.LVL38:
 626              	.LFB51:
 507:Drivers/STM32F0xx_HAL_Driver/Src/stm32f0xx_hal_pcd.c **** 
 508:Drivers/STM32F0xx_HAL_Driver/Src/stm32f0xx_hal_pcd.c **** /**
ARM GAS  /tmp/ccwMzrYy.s 			page 22


 509:Drivers/STM32F0xx_HAL_Driver/Src/stm32f0xx_hal_pcd.c ****   * @brief  Incomplete ISO OUT callbacks
 510:Drivers/STM32F0xx_HAL_Driver/Src/stm32f0xx_hal_pcd.c ****   * @param  hpcd PCD handle
 511:Drivers/STM32F0xx_HAL_Driver/Src/stm32f0xx_hal_pcd.c ****   * @param  epnum endpoint number
 512:Drivers/STM32F0xx_HAL_Driver/Src/stm32f0xx_hal_pcd.c ****   * @retval None
 513:Drivers/STM32F0xx_HAL_Driver/Src/stm32f0xx_hal_pcd.c ****   */
 514:Drivers/STM32F0xx_HAL_Driver/Src/stm32f0xx_hal_pcd.c ****  __weak void HAL_PCD_ISOOUTIncompleteCallback(PCD_HandleTypeDef *hpcd, uint8_t epnum)
 515:Drivers/STM32F0xx_HAL_Driver/Src/stm32f0xx_hal_pcd.c **** {
 627              		.loc 1 515 1 is_stmt 1 view -0
 628              		.cfi_startproc
 629              		@ args = 0, pretend = 0, frame = 0
 630              		@ frame_needed = 0, uses_anonymous_args = 0
 631              		@ link register save eliminated.
 516:Drivers/STM32F0xx_HAL_Driver/Src/stm32f0xx_hal_pcd.c ****   /* Prevent unused argument(s) compilation warning */
 517:Drivers/STM32F0xx_HAL_Driver/Src/stm32f0xx_hal_pcd.c ****   UNUSED(hpcd);
 632              		.loc 1 517 3 view .LVU143
 518:Drivers/STM32F0xx_HAL_Driver/Src/stm32f0xx_hal_pcd.c ****   UNUSED(epnum);
 633              		.loc 1 518 3 view .LVU144
 519:Drivers/STM32F0xx_HAL_Driver/Src/stm32f0xx_hal_pcd.c **** 
 520:Drivers/STM32F0xx_HAL_Driver/Src/stm32f0xx_hal_pcd.c ****   /* NOTE : This function Should not be modified, when the callback is needed,
 521:Drivers/STM32F0xx_HAL_Driver/Src/stm32f0xx_hal_pcd.c ****             the HAL_PCD_ISOOUTIncompleteCallback could be implemented in the user file
 522:Drivers/STM32F0xx_HAL_Driver/Src/stm32f0xx_hal_pcd.c ****    */ 
 523:Drivers/STM32F0xx_HAL_Driver/Src/stm32f0xx_hal_pcd.c **** }
 634              		.loc 1 523 1 is_stmt 0 view .LVU145
 635              		@ sp needed
 636 0000 7047     		bx	lr
 637              		.cfi_endproc
 638              	.LFE51:
 640              		.section	.text.HAL_PCD_ISOINIncompleteCallback,"ax",%progbits
 641              		.align	1
 642              		.weak	HAL_PCD_ISOINIncompleteCallback
 643              		.syntax unified
 644              		.code	16
 645              		.thumb_func
 646              		.fpu softvfp
 648              	HAL_PCD_ISOINIncompleteCallback:
 649              	.LVL39:
 650              	.LFB52:
 524:Drivers/STM32F0xx_HAL_Driver/Src/stm32f0xx_hal_pcd.c **** 
 525:Drivers/STM32F0xx_HAL_Driver/Src/stm32f0xx_hal_pcd.c **** /**
 526:Drivers/STM32F0xx_HAL_Driver/Src/stm32f0xx_hal_pcd.c ****   * @brief  Incomplete ISO IN  callbacks
 527:Drivers/STM32F0xx_HAL_Driver/Src/stm32f0xx_hal_pcd.c ****   * @param  hpcd PCD handle
 528:Drivers/STM32F0xx_HAL_Driver/Src/stm32f0xx_hal_pcd.c ****   * @param  epnum endpoint number
 529:Drivers/STM32F0xx_HAL_Driver/Src/stm32f0xx_hal_pcd.c ****   * @retval None
 530:Drivers/STM32F0xx_HAL_Driver/Src/stm32f0xx_hal_pcd.c ****   */
 531:Drivers/STM32F0xx_HAL_Driver/Src/stm32f0xx_hal_pcd.c ****  __weak void HAL_PCD_ISOINIncompleteCallback(PCD_HandleTypeDef *hpcd, uint8_t epnum)
 532:Drivers/STM32F0xx_HAL_Driver/Src/stm32f0xx_hal_pcd.c **** {
 651              		.loc 1 532 1 is_stmt 1 view -0
 652              		.cfi_startproc
 653              		@ args = 0, pretend = 0, frame = 0
 654              		@ frame_needed = 0, uses_anonymous_args = 0
 655              		@ link register save eliminated.
 533:Drivers/STM32F0xx_HAL_Driver/Src/stm32f0xx_hal_pcd.c ****   /* Prevent unused argument(s) compilation warning */
 534:Drivers/STM32F0xx_HAL_Driver/Src/stm32f0xx_hal_pcd.c ****   UNUSED(hpcd);
 656              		.loc 1 534 3 view .LVU147
 535:Drivers/STM32F0xx_HAL_Driver/Src/stm32f0xx_hal_pcd.c ****   UNUSED(epnum);
 657              		.loc 1 535 3 view .LVU148
 536:Drivers/STM32F0xx_HAL_Driver/Src/stm32f0xx_hal_pcd.c **** 
ARM GAS  /tmp/ccwMzrYy.s 			page 23


 537:Drivers/STM32F0xx_HAL_Driver/Src/stm32f0xx_hal_pcd.c ****   /* NOTE : This function Should not be modified, when the callback is needed,
 538:Drivers/STM32F0xx_HAL_Driver/Src/stm32f0xx_hal_pcd.c ****             the HAL_PCD_ISOINIncompleteCallback could be implemented in the user file
 539:Drivers/STM32F0xx_HAL_Driver/Src/stm32f0xx_hal_pcd.c ****    */ 
 540:Drivers/STM32F0xx_HAL_Driver/Src/stm32f0xx_hal_pcd.c **** }
 658              		.loc 1 540 1 is_stmt 0 view .LVU149
 659              		@ sp needed
 660 0000 7047     		bx	lr
 661              		.cfi_endproc
 662              	.LFE52:
 664              		.section	.text.HAL_PCD_ConnectCallback,"ax",%progbits
 665              		.align	1
 666              		.weak	HAL_PCD_ConnectCallback
 667              		.syntax unified
 668              		.code	16
 669              		.thumb_func
 670              		.fpu softvfp
 672              	HAL_PCD_ConnectCallback:
 673              	.LVL40:
 674              	.LFB53:
 541:Drivers/STM32F0xx_HAL_Driver/Src/stm32f0xx_hal_pcd.c **** 
 542:Drivers/STM32F0xx_HAL_Driver/Src/stm32f0xx_hal_pcd.c **** /**
 543:Drivers/STM32F0xx_HAL_Driver/Src/stm32f0xx_hal_pcd.c ****   * @brief  Connection event callbacks
 544:Drivers/STM32F0xx_HAL_Driver/Src/stm32f0xx_hal_pcd.c ****   * @param  hpcd PCD handle
 545:Drivers/STM32F0xx_HAL_Driver/Src/stm32f0xx_hal_pcd.c ****   * @retval None
 546:Drivers/STM32F0xx_HAL_Driver/Src/stm32f0xx_hal_pcd.c ****   */
 547:Drivers/STM32F0xx_HAL_Driver/Src/stm32f0xx_hal_pcd.c ****  __weak void HAL_PCD_ConnectCallback(PCD_HandleTypeDef *hpcd)
 548:Drivers/STM32F0xx_HAL_Driver/Src/stm32f0xx_hal_pcd.c **** {
 675              		.loc 1 548 1 is_stmt 1 view -0
 676              		.cfi_startproc
 677              		@ args = 0, pretend = 0, frame = 0
 678              		@ frame_needed = 0, uses_anonymous_args = 0
 679              		@ link register save eliminated.
 549:Drivers/STM32F0xx_HAL_Driver/Src/stm32f0xx_hal_pcd.c ****   /* Prevent unused argument(s) compilation warning */
 550:Drivers/STM32F0xx_HAL_Driver/Src/stm32f0xx_hal_pcd.c ****   UNUSED(hpcd);
 680              		.loc 1 550 3 view .LVU151
 551:Drivers/STM32F0xx_HAL_Driver/Src/stm32f0xx_hal_pcd.c **** 
 552:Drivers/STM32F0xx_HAL_Driver/Src/stm32f0xx_hal_pcd.c ****   /* NOTE : This function Should not be modified, when the callback is needed,
 553:Drivers/STM32F0xx_HAL_Driver/Src/stm32f0xx_hal_pcd.c ****             the HAL_PCD_ConnectCallback could be implemented in the user file
 554:Drivers/STM32F0xx_HAL_Driver/Src/stm32f0xx_hal_pcd.c ****    */ 
 555:Drivers/STM32F0xx_HAL_Driver/Src/stm32f0xx_hal_pcd.c **** }
 681              		.loc 1 555 1 is_stmt 0 view .LVU152
 682              		@ sp needed
 683 0000 7047     		bx	lr
 684              		.cfi_endproc
 685              	.LFE53:
 687              		.section	.text.HAL_PCD_DisconnectCallback,"ax",%progbits
 688              		.align	1
 689              		.weak	HAL_PCD_DisconnectCallback
 690              		.syntax unified
 691              		.code	16
 692              		.thumb_func
 693              		.fpu softvfp
 695              	HAL_PCD_DisconnectCallback:
 696              	.LVL41:
 697              	.LFB54:
 556:Drivers/STM32F0xx_HAL_Driver/Src/stm32f0xx_hal_pcd.c **** 
 557:Drivers/STM32F0xx_HAL_Driver/Src/stm32f0xx_hal_pcd.c **** /**
ARM GAS  /tmp/ccwMzrYy.s 			page 24


 558:Drivers/STM32F0xx_HAL_Driver/Src/stm32f0xx_hal_pcd.c ****   * @brief  Disconnection event callbacks
 559:Drivers/STM32F0xx_HAL_Driver/Src/stm32f0xx_hal_pcd.c ****   * @param  hpcd PCD handle
 560:Drivers/STM32F0xx_HAL_Driver/Src/stm32f0xx_hal_pcd.c ****   * @retval None
 561:Drivers/STM32F0xx_HAL_Driver/Src/stm32f0xx_hal_pcd.c ****   */
 562:Drivers/STM32F0xx_HAL_Driver/Src/stm32f0xx_hal_pcd.c ****  __weak void HAL_PCD_DisconnectCallback(PCD_HandleTypeDef *hpcd)
 563:Drivers/STM32F0xx_HAL_Driver/Src/stm32f0xx_hal_pcd.c **** {
 698              		.loc 1 563 1 is_stmt 1 view -0
 699              		.cfi_startproc
 700              		@ args = 0, pretend = 0, frame = 0
 701              		@ frame_needed = 0, uses_anonymous_args = 0
 702              		@ link register save eliminated.
 564:Drivers/STM32F0xx_HAL_Driver/Src/stm32f0xx_hal_pcd.c ****   /* Prevent unused argument(s) compilation warning */
 565:Drivers/STM32F0xx_HAL_Driver/Src/stm32f0xx_hal_pcd.c ****   UNUSED(hpcd);
 703              		.loc 1 565 3 view .LVU154
 566:Drivers/STM32F0xx_HAL_Driver/Src/stm32f0xx_hal_pcd.c **** 
 567:Drivers/STM32F0xx_HAL_Driver/Src/stm32f0xx_hal_pcd.c ****   /* NOTE : This function Should not be modified, when the callback is needed,
 568:Drivers/STM32F0xx_HAL_Driver/Src/stm32f0xx_hal_pcd.c ****             the HAL_PCD_DisconnectCallback could be implemented in the user file
 569:Drivers/STM32F0xx_HAL_Driver/Src/stm32f0xx_hal_pcd.c ****    */ 
 570:Drivers/STM32F0xx_HAL_Driver/Src/stm32f0xx_hal_pcd.c **** }
 704              		.loc 1 570 1 is_stmt 0 view .LVU155
 705              		@ sp needed
 706 0000 7047     		bx	lr
 707              		.cfi_endproc
 708              	.LFE54:
 710              		.section	.text.HAL_PCD_DevConnect,"ax",%progbits
 711              		.align	1
 712              		.global	HAL_PCD_DevConnect
 713              		.syntax unified
 714              		.code	16
 715              		.thumb_func
 716              		.fpu softvfp
 718              	HAL_PCD_DevConnect:
 719              	.LVL42:
 720              	.LFB55:
 571:Drivers/STM32F0xx_HAL_Driver/Src/stm32f0xx_hal_pcd.c **** /**
 572:Drivers/STM32F0xx_HAL_Driver/Src/stm32f0xx_hal_pcd.c ****   * @}
 573:Drivers/STM32F0xx_HAL_Driver/Src/stm32f0xx_hal_pcd.c ****   */
 574:Drivers/STM32F0xx_HAL_Driver/Src/stm32f0xx_hal_pcd.c ****     
 575:Drivers/STM32F0xx_HAL_Driver/Src/stm32f0xx_hal_pcd.c **** /** @defgroup PCD_Exported_Functions_Group3 Peripheral Control functions 
 576:Drivers/STM32F0xx_HAL_Driver/Src/stm32f0xx_hal_pcd.c ****  *  @brief   management functions 
 577:Drivers/STM32F0xx_HAL_Driver/Src/stm32f0xx_hal_pcd.c ****  *
 578:Drivers/STM32F0xx_HAL_Driver/Src/stm32f0xx_hal_pcd.c **** @verbatim   
 579:Drivers/STM32F0xx_HAL_Driver/Src/stm32f0xx_hal_pcd.c ****  ===============================================================================
 580:Drivers/STM32F0xx_HAL_Driver/Src/stm32f0xx_hal_pcd.c ****                       ##### Peripheral Control functions #####
 581:Drivers/STM32F0xx_HAL_Driver/Src/stm32f0xx_hal_pcd.c ****  ===============================================================================  
 582:Drivers/STM32F0xx_HAL_Driver/Src/stm32f0xx_hal_pcd.c ****     [..]
 583:Drivers/STM32F0xx_HAL_Driver/Src/stm32f0xx_hal_pcd.c ****     This subsection provides a set of functions allowing to control the PCD data 
 584:Drivers/STM32F0xx_HAL_Driver/Src/stm32f0xx_hal_pcd.c ****     transfers.
 585:Drivers/STM32F0xx_HAL_Driver/Src/stm32f0xx_hal_pcd.c **** 
 586:Drivers/STM32F0xx_HAL_Driver/Src/stm32f0xx_hal_pcd.c **** @endverbatim
 587:Drivers/STM32F0xx_HAL_Driver/Src/stm32f0xx_hal_pcd.c ****   * @{
 588:Drivers/STM32F0xx_HAL_Driver/Src/stm32f0xx_hal_pcd.c ****   */
 589:Drivers/STM32F0xx_HAL_Driver/Src/stm32f0xx_hal_pcd.c **** 
 590:Drivers/STM32F0xx_HAL_Driver/Src/stm32f0xx_hal_pcd.c **** /**
 591:Drivers/STM32F0xx_HAL_Driver/Src/stm32f0xx_hal_pcd.c ****   * @brief  Connect the USB device 
 592:Drivers/STM32F0xx_HAL_Driver/Src/stm32f0xx_hal_pcd.c ****   * @param  hpcd PCD handle
 593:Drivers/STM32F0xx_HAL_Driver/Src/stm32f0xx_hal_pcd.c ****   * @retval HAL status
ARM GAS  /tmp/ccwMzrYy.s 			page 25


 594:Drivers/STM32F0xx_HAL_Driver/Src/stm32f0xx_hal_pcd.c ****   */
 595:Drivers/STM32F0xx_HAL_Driver/Src/stm32f0xx_hal_pcd.c **** HAL_StatusTypeDef HAL_PCD_DevConnect(PCD_HandleTypeDef *hpcd)
 596:Drivers/STM32F0xx_HAL_Driver/Src/stm32f0xx_hal_pcd.c **** {
 721              		.loc 1 596 1 is_stmt 1 view -0
 722              		.cfi_startproc
 723              		@ args = 0, pretend = 0, frame = 0
 724              		@ frame_needed = 0, uses_anonymous_args = 0
 725              		.loc 1 596 1 is_stmt 0 view .LVU157
 726 0000 30B5     		push	{r4, r5, lr}
 727              	.LCFI3:
 728              		.cfi_def_cfa_offset 12
 729              		.cfi_offset 4, -12
 730              		.cfi_offset 5, -8
 731              		.cfi_offset 14, -4
 597:Drivers/STM32F0xx_HAL_Driver/Src/stm32f0xx_hal_pcd.c ****   __HAL_LOCK(hpcd); 
 732              		.loc 1 597 3 is_stmt 1 view .LVU158
 733              		.loc 1 597 3 view .LVU159
 734 0002 F423     		movs	r3, #244
 735 0004 5B00     		lsls	r3, r3, #1
 736 0006 C35C     		ldrb	r3, [r0, r3]
 737 0008 012B     		cmp	r3, #1
 738 000a 0ED0     		beq	.L37
 739              		.loc 1 597 3 discriminator 2 view .LVU160
 740 000c F422     		movs	r2, #244
 741 000e 5200     		lsls	r2, r2, #1
 742 0010 0123     		movs	r3, #1
 743 0012 8354     		strb	r3, [r0, r2]
 598:Drivers/STM32F0xx_HAL_Driver/Src/stm32f0xx_hal_pcd.c ****   
 599:Drivers/STM32F0xx_HAL_Driver/Src/stm32f0xx_hal_pcd.c ****   /* Enabling DP Pull-Down bit to Connect internal pull-up on USB DP line */
 600:Drivers/STM32F0xx_HAL_Driver/Src/stm32f0xx_hal_pcd.c ****   hpcd->Instance->BCDR |= USB_BCDR_DPPU;
 744              		.loc 1 600 3 discriminator 2 view .LVU161
 745              		.loc 1 600 7 is_stmt 0 discriminator 2 view .LVU162
 746 0014 0468     		ldr	r4, [r0]
 747              		.loc 1 600 24 discriminator 2 view .LVU163
 748 0016 5821     		movs	r1, #88
 749 0018 635A     		ldrh	r3, [r4, r1]
 750 001a 054D     		ldr	r5, .L38
 751 001c 2B43     		orrs	r3, r5
 752 001e 9BB2     		uxth	r3, r3
 753 0020 6352     		strh	r3, [r4, r1]
 601:Drivers/STM32F0xx_HAL_Driver/Src/stm32f0xx_hal_pcd.c ****   
 602:Drivers/STM32F0xx_HAL_Driver/Src/stm32f0xx_hal_pcd.c ****   __HAL_UNLOCK(hpcd); 
 754              		.loc 1 602 3 is_stmt 1 discriminator 2 view .LVU164
 755              		.loc 1 602 3 discriminator 2 view .LVU165
 756 0022 0023     		movs	r3, #0
 757 0024 8354     		strb	r3, [r0, r2]
 603:Drivers/STM32F0xx_HAL_Driver/Src/stm32f0xx_hal_pcd.c ****   return HAL_OK;
 758              		.loc 1 603 3 discriminator 2 view .LVU166
 759              		.loc 1 603 10 is_stmt 0 discriminator 2 view .LVU167
 760 0026 0020     		movs	r0, #0
 761              	.LVL43:
 762              	.L36:
 604:Drivers/STM32F0xx_HAL_Driver/Src/stm32f0xx_hal_pcd.c **** }
 763              		.loc 1 604 1 view .LVU168
 764              		@ sp needed
 765 0028 30BD     		pop	{r4, r5, pc}
 766              	.LVL44:
ARM GAS  /tmp/ccwMzrYy.s 			page 26


 767              	.L37:
 597:Drivers/STM32F0xx_HAL_Driver/Src/stm32f0xx_hal_pcd.c ****   
 768              		.loc 1 597 3 view .LVU169
 769 002a 0220     		movs	r0, #2
 770              	.LVL45:
 597:Drivers/STM32F0xx_HAL_Driver/Src/stm32f0xx_hal_pcd.c ****   
 771              		.loc 1 597 3 view .LVU170
 772 002c FCE7     		b	.L36
 773              	.L39:
 774 002e C046     		.align	2
 775              	.L38:
 776 0030 0080FFFF 		.word	-32768
 777              		.cfi_endproc
 778              	.LFE55:
 780              		.section	.text.HAL_PCD_DevDisconnect,"ax",%progbits
 781              		.align	1
 782              		.global	HAL_PCD_DevDisconnect
 783              		.syntax unified
 784              		.code	16
 785              		.thumb_func
 786              		.fpu softvfp
 788              	HAL_PCD_DevDisconnect:
 789              	.LVL46:
 790              	.LFB56:
 605:Drivers/STM32F0xx_HAL_Driver/Src/stm32f0xx_hal_pcd.c **** 
 606:Drivers/STM32F0xx_HAL_Driver/Src/stm32f0xx_hal_pcd.c **** /**
 607:Drivers/STM32F0xx_HAL_Driver/Src/stm32f0xx_hal_pcd.c ****   * @brief  Disconnect the USB device 
 608:Drivers/STM32F0xx_HAL_Driver/Src/stm32f0xx_hal_pcd.c ****   * @param  hpcd PCD handle
 609:Drivers/STM32F0xx_HAL_Driver/Src/stm32f0xx_hal_pcd.c ****   * @retval HAL status
 610:Drivers/STM32F0xx_HAL_Driver/Src/stm32f0xx_hal_pcd.c ****   */
 611:Drivers/STM32F0xx_HAL_Driver/Src/stm32f0xx_hal_pcd.c **** HAL_StatusTypeDef HAL_PCD_DevDisconnect(PCD_HandleTypeDef *hpcd)
 612:Drivers/STM32F0xx_HAL_Driver/Src/stm32f0xx_hal_pcd.c **** {
 791              		.loc 1 612 1 is_stmt 1 view -0
 792              		.cfi_startproc
 793              		@ args = 0, pretend = 0, frame = 0
 794              		@ frame_needed = 0, uses_anonymous_args = 0
 795              		.loc 1 612 1 is_stmt 0 view .LVU172
 796 0000 10B5     		push	{r4, lr}
 797              	.LCFI4:
 798              		.cfi_def_cfa_offset 8
 799              		.cfi_offset 4, -8
 800              		.cfi_offset 14, -4
 613:Drivers/STM32F0xx_HAL_Driver/Src/stm32f0xx_hal_pcd.c ****   __HAL_LOCK(hpcd); 
 801              		.loc 1 613 3 is_stmt 1 view .LVU173
 802              		.loc 1 613 3 view .LVU174
 803 0002 F423     		movs	r3, #244
 804 0004 5B00     		lsls	r3, r3, #1
 805 0006 C35C     		ldrb	r3, [r0, r3]
 806 0008 012B     		cmp	r3, #1
 807 000a 0DD0     		beq	.L42
 808              		.loc 1 613 3 discriminator 2 view .LVU175
 809 000c F422     		movs	r2, #244
 810 000e 5200     		lsls	r2, r2, #1
 811 0010 0123     		movs	r3, #1
 812 0012 8354     		strb	r3, [r0, r2]
 614:Drivers/STM32F0xx_HAL_Driver/Src/stm32f0xx_hal_pcd.c ****   
 615:Drivers/STM32F0xx_HAL_Driver/Src/stm32f0xx_hal_pcd.c ****   /* Disable DP Pull-Down bit*/
ARM GAS  /tmp/ccwMzrYy.s 			page 27


 616:Drivers/STM32F0xx_HAL_Driver/Src/stm32f0xx_hal_pcd.c ****    hpcd->Instance->BCDR &= (uint16_t)(~(USB_BCDR_DPPU));
 813              		.loc 1 616 4 discriminator 2 view .LVU176
 814              		.loc 1 616 8 is_stmt 0 discriminator 2 view .LVU177
 815 0014 0468     		ldr	r4, [r0]
 816              		.loc 1 616 25 discriminator 2 view .LVU178
 817 0016 5821     		movs	r1, #88
 818 0018 635A     		ldrh	r3, [r4, r1]
 819 001a 5B04     		lsls	r3, r3, #17
 820 001c 5B0C     		lsrs	r3, r3, #17
 821 001e 6352     		strh	r3, [r4, r1]
 617:Drivers/STM32F0xx_HAL_Driver/Src/stm32f0xx_hal_pcd.c ****   
 618:Drivers/STM32F0xx_HAL_Driver/Src/stm32f0xx_hal_pcd.c ****   __HAL_UNLOCK(hpcd); 
 822              		.loc 1 618 3 is_stmt 1 discriminator 2 view .LVU179
 823              		.loc 1 618 3 discriminator 2 view .LVU180
 824 0020 0023     		movs	r3, #0
 825 0022 8354     		strb	r3, [r0, r2]
 619:Drivers/STM32F0xx_HAL_Driver/Src/stm32f0xx_hal_pcd.c ****   return HAL_OK;
 826              		.loc 1 619 3 discriminator 2 view .LVU181
 827              		.loc 1 619 10 is_stmt 0 discriminator 2 view .LVU182
 828 0024 0020     		movs	r0, #0
 829              	.LVL47:
 830              	.L41:
 620:Drivers/STM32F0xx_HAL_Driver/Src/stm32f0xx_hal_pcd.c **** }
 831              		.loc 1 620 1 view .LVU183
 832              		@ sp needed
 833 0026 10BD     		pop	{r4, pc}
 834              	.LVL48:
 835              	.L42:
 613:Drivers/STM32F0xx_HAL_Driver/Src/stm32f0xx_hal_pcd.c ****   
 836              		.loc 1 613 3 view .LVU184
 837 0028 0220     		movs	r0, #2
 838              	.LVL49:
 613:Drivers/STM32F0xx_HAL_Driver/Src/stm32f0xx_hal_pcd.c ****   
 839              		.loc 1 613 3 view .LVU185
 840 002a FCE7     		b	.L41
 841              		.cfi_endproc
 842              	.LFE56:
 844              		.section	.text.HAL_PCD_SetAddress,"ax",%progbits
 845              		.align	1
 846              		.global	HAL_PCD_SetAddress
 847              		.syntax unified
 848              		.code	16
 849              		.thumb_func
 850              		.fpu softvfp
 852              	HAL_PCD_SetAddress:
 853              	.LVL50:
 854              	.LFB57:
 621:Drivers/STM32F0xx_HAL_Driver/Src/stm32f0xx_hal_pcd.c **** 
 622:Drivers/STM32F0xx_HAL_Driver/Src/stm32f0xx_hal_pcd.c **** /**
 623:Drivers/STM32F0xx_HAL_Driver/Src/stm32f0xx_hal_pcd.c ****   * @brief  Set the USB Device address 
 624:Drivers/STM32F0xx_HAL_Driver/Src/stm32f0xx_hal_pcd.c ****   * @param  hpcd PCD handle
 625:Drivers/STM32F0xx_HAL_Driver/Src/stm32f0xx_hal_pcd.c ****   * @param  address new device address
 626:Drivers/STM32F0xx_HAL_Driver/Src/stm32f0xx_hal_pcd.c ****   * @retval HAL status
 627:Drivers/STM32F0xx_HAL_Driver/Src/stm32f0xx_hal_pcd.c ****   */
 628:Drivers/STM32F0xx_HAL_Driver/Src/stm32f0xx_hal_pcd.c **** HAL_StatusTypeDef HAL_PCD_SetAddress(PCD_HandleTypeDef *hpcd, uint8_t address)
 629:Drivers/STM32F0xx_HAL_Driver/Src/stm32f0xx_hal_pcd.c **** {
 855              		.loc 1 629 1 is_stmt 1 view -0
ARM GAS  /tmp/ccwMzrYy.s 			page 28


 856              		.cfi_startproc
 857              		@ args = 0, pretend = 0, frame = 0
 858              		@ frame_needed = 0, uses_anonymous_args = 0
 859              		@ link register save eliminated.
 630:Drivers/STM32F0xx_HAL_Driver/Src/stm32f0xx_hal_pcd.c ****    __HAL_LOCK(hpcd); 
 860              		.loc 1 630 4 view .LVU187
 861              		.loc 1 630 4 view .LVU188
 862 0000 F423     		movs	r3, #244
 863 0002 5B00     		lsls	r3, r3, #1
 864 0004 C35C     		ldrb	r3, [r0, r3]
 865 0006 012B     		cmp	r3, #1
 866 0008 13D0     		beq	.L47
 867              		.loc 1 630 4 discriminator 2 view .LVU189
 868 000a F423     		movs	r3, #244
 869 000c 5B00     		lsls	r3, r3, #1
 870 000e 0122     		movs	r2, #1
 871 0010 C254     		strb	r2, [r0, r3]
 631:Drivers/STM32F0xx_HAL_Driver/Src/stm32f0xx_hal_pcd.c **** 
 632:Drivers/STM32F0xx_HAL_Driver/Src/stm32f0xx_hal_pcd.c ****    if(address == 0U) 
 872              		.loc 1 632 4 discriminator 2 view .LVU190
 873              		.loc 1 632 6 is_stmt 0 discriminator 2 view .LVU191
 874 0012 0029     		cmp	r1, #0
 875 0014 0AD1     		bne	.L45
 633:Drivers/STM32F0xx_HAL_Driver/Src/stm32f0xx_hal_pcd.c ****    {
 634:Drivers/STM32F0xx_HAL_Driver/Src/stm32f0xx_hal_pcd.c ****      /* set device address and enable function */
 635:Drivers/STM32F0xx_HAL_Driver/Src/stm32f0xx_hal_pcd.c ****      hpcd->Instance->DADDR = USB_DADDR_EF;
 876              		.loc 1 635 6 is_stmt 1 view .LVU192
 877              		.loc 1 635 28 is_stmt 0 view .LVU193
 878 0016 9D3B     		subs	r3, r3, #157
 879 0018 FF3B     		subs	r3, r3, #255
 880 001a 7F32     		adds	r2, r2, #127
 881 001c 0168     		ldr	r1, [r0]
 882              	.LVL51:
 883              		.loc 1 635 28 view .LVU194
 884 001e CA52     		strh	r2, [r1, r3]
 885              	.L46:
 636:Drivers/STM32F0xx_HAL_Driver/Src/stm32f0xx_hal_pcd.c ****    }
 637:Drivers/STM32F0xx_HAL_Driver/Src/stm32f0xx_hal_pcd.c ****    else /* USB Address will be applied later */
 638:Drivers/STM32F0xx_HAL_Driver/Src/stm32f0xx_hal_pcd.c ****    {
 639:Drivers/STM32F0xx_HAL_Driver/Src/stm32f0xx_hal_pcd.c ****      hpcd->USB_Address = address;
 640:Drivers/STM32F0xx_HAL_Driver/Src/stm32f0xx_hal_pcd.c ****    }
 641:Drivers/STM32F0xx_HAL_Driver/Src/stm32f0xx_hal_pcd.c **** 
 642:Drivers/STM32F0xx_HAL_Driver/Src/stm32f0xx_hal_pcd.c ****   __HAL_UNLOCK(hpcd);   
 886              		.loc 1 642 3 is_stmt 1 view .LVU195
 887              		.loc 1 642 3 view .LVU196
 888 0020 F423     		movs	r3, #244
 889 0022 5B00     		lsls	r3, r3, #1
 890 0024 0022     		movs	r2, #0
 891 0026 C254     		strb	r2, [r0, r3]
 643:Drivers/STM32F0xx_HAL_Driver/Src/stm32f0xx_hal_pcd.c ****   return HAL_OK;
 892              		.loc 1 643 3 view .LVU197
 893              		.loc 1 643 10 is_stmt 0 view .LVU198
 894 0028 0020     		movs	r0, #0
 895              	.LVL52:
 896              	.L44:
 644:Drivers/STM32F0xx_HAL_Driver/Src/stm32f0xx_hal_pcd.c **** }
 897              		.loc 1 644 1 view .LVU199
ARM GAS  /tmp/ccwMzrYy.s 			page 29


 898              		@ sp needed
 899 002a 7047     		bx	lr
 900              	.LVL53:
 901              	.L45:
 639:Drivers/STM32F0xx_HAL_Driver/Src/stm32f0xx_hal_pcd.c ****    }
 902              		.loc 1 639 6 is_stmt 1 view .LVU200
 639:Drivers/STM32F0xx_HAL_Driver/Src/stm32f0xx_hal_pcd.c ****    }
 903              		.loc 1 639 24 is_stmt 0 view .LVU201
 904 002c 2423     		movs	r3, #36
 905 002e C154     		strb	r1, [r0, r3]
 906 0030 F6E7     		b	.L46
 907              	.L47:
 630:Drivers/STM32F0xx_HAL_Driver/Src/stm32f0xx_hal_pcd.c **** 
 908              		.loc 1 630 4 view .LVU202
 909 0032 0220     		movs	r0, #2
 910              	.LVL54:
 630:Drivers/STM32F0xx_HAL_Driver/Src/stm32f0xx_hal_pcd.c **** 
 911              		.loc 1 630 4 view .LVU203
 912 0034 F9E7     		b	.L44
 913              		.cfi_endproc
 914              	.LFE57:
 916              		.section	.text.HAL_PCD_EP_Open,"ax",%progbits
 917              		.align	1
 918              		.global	HAL_PCD_EP_Open
 919              		.syntax unified
 920              		.code	16
 921              		.thumb_func
 922              		.fpu softvfp
 924              	HAL_PCD_EP_Open:
 925              	.LVL55:
 926              	.LFB58:
 645:Drivers/STM32F0xx_HAL_Driver/Src/stm32f0xx_hal_pcd.c **** /**
 646:Drivers/STM32F0xx_HAL_Driver/Src/stm32f0xx_hal_pcd.c ****   * @brief  Open and configure an endpoint
 647:Drivers/STM32F0xx_HAL_Driver/Src/stm32f0xx_hal_pcd.c ****   * @param  hpcd PCD handle
 648:Drivers/STM32F0xx_HAL_Driver/Src/stm32f0xx_hal_pcd.c ****   * @param  ep_addr endpoint address
 649:Drivers/STM32F0xx_HAL_Driver/Src/stm32f0xx_hal_pcd.c ****   * @param  ep_mps endpoint max packert size
 650:Drivers/STM32F0xx_HAL_Driver/Src/stm32f0xx_hal_pcd.c ****   * @param  ep_type endpoint type   
 651:Drivers/STM32F0xx_HAL_Driver/Src/stm32f0xx_hal_pcd.c ****   * @retval HAL status
 652:Drivers/STM32F0xx_HAL_Driver/Src/stm32f0xx_hal_pcd.c ****   */
 653:Drivers/STM32F0xx_HAL_Driver/Src/stm32f0xx_hal_pcd.c **** HAL_StatusTypeDef HAL_PCD_EP_Open(PCD_HandleTypeDef *hpcd, uint8_t ep_addr, uint16_t ep_mps, uint8_
 654:Drivers/STM32F0xx_HAL_Driver/Src/stm32f0xx_hal_pcd.c **** {
 927              		.loc 1 654 1 is_stmt 1 view -0
 928              		.cfi_startproc
 929              		@ args = 0, pretend = 0, frame = 0
 930              		@ frame_needed = 0, uses_anonymous_args = 0
 931              		.loc 1 654 1 is_stmt 0 view .LVU205
 932 0000 F0B5     		push	{r4, r5, r6, r7, lr}
 933              	.LCFI5:
 934              		.cfi_def_cfa_offset 20
 935              		.cfi_offset 4, -20
 936              		.cfi_offset 5, -16
 937              		.cfi_offset 6, -12
 938              		.cfi_offset 7, -8
 939              		.cfi_offset 14, -4
 655:Drivers/STM32F0xx_HAL_Driver/Src/stm32f0xx_hal_pcd.c ****   HAL_StatusTypeDef  ret = HAL_OK;
 940              		.loc 1 655 3 is_stmt 1 view .LVU206
 941              	.LVL56:
ARM GAS  /tmp/ccwMzrYy.s 			page 30


 656:Drivers/STM32F0xx_HAL_Driver/Src/stm32f0xx_hal_pcd.c ****   PCD_EPTypeDef *ep;
 942              		.loc 1 656 3 view .LVU207
 657:Drivers/STM32F0xx_HAL_Driver/Src/stm32f0xx_hal_pcd.c ****   
 658:Drivers/STM32F0xx_HAL_Driver/Src/stm32f0xx_hal_pcd.c ****   if ((ep_addr & 0x80U) == 0x80U)
 943              		.loc 1 658 3 view .LVU208
 944              		.loc 1 658 25 is_stmt 0 view .LVU209
 945 0002 4DB2     		sxtb	r5, r1
 946              		.loc 1 658 6 view .LVU210
 947 0004 002D     		cmp	r5, #0
 948 0006 2EDB     		blt	.L73
 659:Drivers/STM32F0xx_HAL_Driver/Src/stm32f0xx_hal_pcd.c ****   {
 660:Drivers/STM32F0xx_HAL_Driver/Src/stm32f0xx_hal_pcd.c ****     ep = &hpcd->IN_ep[ep_addr & 0x7FU];
 661:Drivers/STM32F0xx_HAL_Driver/Src/stm32f0xx_hal_pcd.c ****   }
 662:Drivers/STM32F0xx_HAL_Driver/Src/stm32f0xx_hal_pcd.c ****   else
 663:Drivers/STM32F0xx_HAL_Driver/Src/stm32f0xx_hal_pcd.c ****   {
 664:Drivers/STM32F0xx_HAL_Driver/Src/stm32f0xx_hal_pcd.c ****     ep = &hpcd->OUT_ep[ep_addr & 0x7FU];
 949              		.loc 1 664 5 is_stmt 1 view .LVU211
 950              		.loc 1 664 32 is_stmt 0 view .LVU212
 951 0008 7F26     		movs	r6, #127
 952 000a 0E40     		ands	r6, r1
 953              		.loc 1 664 8 view .LVU213
 954 000c F400     		lsls	r4, r6, #3
 955 000e A41B     		subs	r4, r4, r6
 956 0010 A400     		lsls	r4, r4, #2
 957 0012 0934     		adds	r4, r4, #9
 958 0014 FF34     		adds	r4, r4, #255
 959 0016 0419     		adds	r4, r0, r4
 960              	.LVL57:
 961              	.L50:
 665:Drivers/STM32F0xx_HAL_Driver/Src/stm32f0xx_hal_pcd.c ****   }
 666:Drivers/STM32F0xx_HAL_Driver/Src/stm32f0xx_hal_pcd.c ****   ep->num   = ep_addr & 0x7FU;
 962              		.loc 1 666 3 is_stmt 1 view .LVU214
 963              		.loc 1 666 23 is_stmt 0 view .LVU215
 964 0018 7F26     		movs	r6, #127
 965 001a 3140     		ands	r1, r6
 966              	.LVL58:
 967              		.loc 1 666 13 view .LVU216
 968 001c 2170     		strb	r1, [r4]
 667:Drivers/STM32F0xx_HAL_Driver/Src/stm32f0xx_hal_pcd.c ****   
 668:Drivers/STM32F0xx_HAL_Driver/Src/stm32f0xx_hal_pcd.c ****   ep->is_in = (0x80U & ep_addr) != 0U;
 969              		.loc 1 668 3 is_stmt 1 view .LVU217
 970              		.loc 1 668 33 is_stmt 0 view .LVU218
 971 001e ED0F     		lsrs	r5, r5, #31
 972              	.LVL59:
 973              		.loc 1 668 13 view .LVU219
 974 0020 6570     		strb	r5, [r4, #1]
 669:Drivers/STM32F0xx_HAL_Driver/Src/stm32f0xx_hal_pcd.c ****   ep->maxpacket = ep_mps;
 975              		.loc 1 669 3 is_stmt 1 view .LVU220
 976              		.loc 1 669 17 is_stmt 0 view .LVU221
 977 0022 E260     		str	r2, [r4, #12]
 670:Drivers/STM32F0xx_HAL_Driver/Src/stm32f0xx_hal_pcd.c ****   ep->type = ep_type;
 978              		.loc 1 670 3 is_stmt 1 view .LVU222
 979              		.loc 1 670 12 is_stmt 0 view .LVU223
 980 0024 E370     		strb	r3, [r4, #3]
 671:Drivers/STM32F0xx_HAL_Driver/Src/stm32f0xx_hal_pcd.c ****   
 672:Drivers/STM32F0xx_HAL_Driver/Src/stm32f0xx_hal_pcd.c ****   __HAL_LOCK(hpcd); 
 981              		.loc 1 672 3 is_stmt 1 view .LVU224
ARM GAS  /tmp/ccwMzrYy.s 			page 31


 982              		.loc 1 672 3 view .LVU225
 983 0026 F423     		movs	r3, #244
 984              	.LVL60:
 985              		.loc 1 672 3 is_stmt 0 view .LVU226
 986 0028 5B00     		lsls	r3, r3, #1
 987 002a C35C     		ldrb	r3, [r0, r3]
 988 002c 012B     		cmp	r3, #1
 989 002e 00D1     		bne	.LCB755
 990 0030 8DE1     		b	.L72	@long jump
 991              	.LCB755:
 992              		.loc 1 672 3 is_stmt 1 discriminator 2 view .LVU227
 993 0032 F423     		movs	r3, #244
 994 0034 5B00     		lsls	r3, r3, #1
 995 0036 0122     		movs	r2, #1
 996              	.LVL61:
 997              		.loc 1 672 3 is_stmt 0 discriminator 2 view .LVU228
 998 0038 C254     		strb	r2, [r0, r3]
 999              	.LVL62:
 673:Drivers/STM32F0xx_HAL_Driver/Src/stm32f0xx_hal_pcd.c **** 
 674:Drivers/STM32F0xx_HAL_Driver/Src/stm32f0xx_hal_pcd.c ****   /* initialize Endpoint */
 675:Drivers/STM32F0xx_HAL_Driver/Src/stm32f0xx_hal_pcd.c ****   switch (ep->type)
 1000              		.loc 1 675 3 is_stmt 1 discriminator 2 view .LVU229
 1001              		.loc 1 675 13 is_stmt 0 discriminator 2 view .LVU230
 1002 003a E378     		ldrb	r3, [r4, #3]
 1003              		.loc 1 675 3 discriminator 2 view .LVU231
 1004 003c 022B     		cmp	r3, #2
 1005 003e 00D1     		bne	.LCB768
 1006 0040 7AE0     		b	.L52	@long jump
 1007              	.LCB768:
 1008              		.loc 1 675 3 view .LVU232
 1009 0042 18D8     		bhi	.L53
 1010 0044 002B     		cmp	r3, #0
 1011 0046 25D0     		beq	.L54
 1012 0048 012B     		cmp	r3, #1
 1013 004a 2FD1     		bne	.L56
 676:Drivers/STM32F0xx_HAL_Driver/Src/stm32f0xx_hal_pcd.c ****   {
 677:Drivers/STM32F0xx_HAL_Driver/Src/stm32f0xx_hal_pcd.c ****   case PCD_EP_TYPE_CTRL:
 678:Drivers/STM32F0xx_HAL_Driver/Src/stm32f0xx_hal_pcd.c ****     PCD_SET_EPTYPE(hpcd->Instance, ep->num, USB_EP_CONTROL);
 679:Drivers/STM32F0xx_HAL_Driver/Src/stm32f0xx_hal_pcd.c ****     break;
 680:Drivers/STM32F0xx_HAL_Driver/Src/stm32f0xx_hal_pcd.c ****   case PCD_EP_TYPE_BULK:
 681:Drivers/STM32F0xx_HAL_Driver/Src/stm32f0xx_hal_pcd.c ****     PCD_SET_EPTYPE(hpcd->Instance, ep->num, USB_EP_BULK);
 682:Drivers/STM32F0xx_HAL_Driver/Src/stm32f0xx_hal_pcd.c ****     break;
 683:Drivers/STM32F0xx_HAL_Driver/Src/stm32f0xx_hal_pcd.c ****   case PCD_EP_TYPE_INTR:
 684:Drivers/STM32F0xx_HAL_Driver/Src/stm32f0xx_hal_pcd.c ****     PCD_SET_EPTYPE(hpcd->Instance, ep->num, USB_EP_INTERRUPT);
 685:Drivers/STM32F0xx_HAL_Driver/Src/stm32f0xx_hal_pcd.c ****     break;
 686:Drivers/STM32F0xx_HAL_Driver/Src/stm32f0xx_hal_pcd.c ****   case PCD_EP_TYPE_ISOC:
 687:Drivers/STM32F0xx_HAL_Driver/Src/stm32f0xx_hal_pcd.c ****     PCD_SET_EPTYPE(hpcd->Instance, ep->num, USB_EP_ISOCHRONOUS);
 1014              		.loc 1 687 5 is_stmt 1 view .LVU233
 1015 004c 2278     		ldrb	r2, [r4]
 1016 004e 9200     		lsls	r2, r2, #2
 1017 0050 0368     		ldr	r3, [r0]
 1018 0052 9C46     		mov	ip, r3
 1019 0054 6244     		add	r2, r2, ip
 1020 0056 1388     		ldrh	r3, [r2]
 1021 0058 BE49     		ldr	r1, .L74
 1022 005a 1940     		ands	r1, r3
 1023 005c BE4B     		ldr	r3, .L74+4
ARM GAS  /tmp/ccwMzrYy.s 			page 32


 1024 005e 0B43     		orrs	r3, r1
 1025 0060 9BB2     		uxth	r3, r3
 1026 0062 1380     		strh	r3, [r2]
 688:Drivers/STM32F0xx_HAL_Driver/Src/stm32f0xx_hal_pcd.c ****     break;
 1027              		.loc 1 688 5 view .LVU234
 1028 0064 22E0     		b	.L56
 1029              	.LVL63:
 1030              	.L73:
 660:Drivers/STM32F0xx_HAL_Driver/Src/stm32f0xx_hal_pcd.c ****   }
 1031              		.loc 1 660 5 view .LVU235
 660:Drivers/STM32F0xx_HAL_Driver/Src/stm32f0xx_hal_pcd.c ****   }
 1032              		.loc 1 660 31 is_stmt 0 view .LVU236
 1033 0066 7F26     		movs	r6, #127
 1034 0068 0E40     		ands	r6, r1
 660:Drivers/STM32F0xx_HAL_Driver/Src/stm32f0xx_hal_pcd.c ****   }
 1035              		.loc 1 660 8 view .LVU237
 1036 006a F400     		lsls	r4, r6, #3
 1037 006c A41B     		subs	r4, r4, r6
 1038 006e A400     		lsls	r4, r4, #2
 1039 0070 2834     		adds	r4, r4, #40
 1040 0072 0419     		adds	r4, r0, r4
 1041              	.LVL64:
 660:Drivers/STM32F0xx_HAL_Driver/Src/stm32f0xx_hal_pcd.c ****   }
 1042              		.loc 1 660 8 view .LVU238
 1043 0074 D0E7     		b	.L50
 1044              	.LVL65:
 1045              	.L53:
 675:Drivers/STM32F0xx_HAL_Driver/Src/stm32f0xx_hal_pcd.c ****   {
 1046              		.loc 1 675 3 view .LVU239
 1047 0076 032B     		cmp	r3, #3
 1048 0078 18D1     		bne	.L56
 684:Drivers/STM32F0xx_HAL_Driver/Src/stm32f0xx_hal_pcd.c ****     break;
 1049              		.loc 1 684 5 is_stmt 1 view .LVU240
 1050 007a 2278     		ldrb	r2, [r4]
 1051 007c 9200     		lsls	r2, r2, #2
 1052 007e 0368     		ldr	r3, [r0]
 1053 0080 9C46     		mov	ip, r3
 1054 0082 6244     		add	r2, r2, ip
 1055 0084 1388     		ldrh	r3, [r2]
 1056 0086 B349     		ldr	r1, .L74
 1057 0088 1940     		ands	r1, r3
 1058 008a B44B     		ldr	r3, .L74+8
 1059 008c 0B43     		orrs	r3, r1
 1060 008e 9BB2     		uxth	r3, r3
 1061 0090 1380     		strh	r3, [r2]
 685:Drivers/STM32F0xx_HAL_Driver/Src/stm32f0xx_hal_pcd.c ****   case PCD_EP_TYPE_ISOC:
 1062              		.loc 1 685 5 view .LVU241
 1063 0092 0BE0     		b	.L56
 1064              	.L54:
 678:Drivers/STM32F0xx_HAL_Driver/Src/stm32f0xx_hal_pcd.c ****     break;
 1065              		.loc 1 678 5 view .LVU242
 1066 0094 2278     		ldrb	r2, [r4]
 1067 0096 9200     		lsls	r2, r2, #2
 1068 0098 0368     		ldr	r3, [r0]
 1069 009a 9C46     		mov	ip, r3
 1070 009c 6244     		add	r2, r2, ip
 1071 009e 1388     		ldrh	r3, [r2]
ARM GAS  /tmp/ccwMzrYy.s 			page 33


 1072 00a0 AC49     		ldr	r1, .L74
 1073 00a2 1940     		ands	r1, r3
 1074 00a4 AE4B     		ldr	r3, .L74+12
 1075 00a6 0B43     		orrs	r3, r1
 1076 00a8 9BB2     		uxth	r3, r3
 1077 00aa 1380     		strh	r3, [r2]
 679:Drivers/STM32F0xx_HAL_Driver/Src/stm32f0xx_hal_pcd.c ****   case PCD_EP_TYPE_BULK:
 1078              		.loc 1 679 5 view .LVU243
 1079              	.L56:
 689:Drivers/STM32F0xx_HAL_Driver/Src/stm32f0xx_hal_pcd.c ****   default:
 690:Drivers/STM32F0xx_HAL_Driver/Src/stm32f0xx_hal_pcd.c ****     break;
 691:Drivers/STM32F0xx_HAL_Driver/Src/stm32f0xx_hal_pcd.c ****   } 
 692:Drivers/STM32F0xx_HAL_Driver/Src/stm32f0xx_hal_pcd.c ****   
 693:Drivers/STM32F0xx_HAL_Driver/Src/stm32f0xx_hal_pcd.c ****   PCD_SET_EP_ADDRESS(hpcd->Instance, ep->num, ep->num);
 1080              		.loc 1 693 3 view .LVU244
 1081 00ac 2378     		ldrb	r3, [r4]
 1082 00ae 9A00     		lsls	r2, r3, #2
 1083 00b0 0168     		ldr	r1, [r0]
 1084 00b2 8C46     		mov	ip, r1
 1085 00b4 6244     		add	r2, r2, ip
 1086 00b6 1188     		ldrh	r1, [r2]
 1087 00b8 AA4D     		ldr	r5, .L74+16
 1088 00ba 2940     		ands	r1, r5
 1089 00bc 1943     		orrs	r1, r3
 1090 00be AA4B     		ldr	r3, .L74+20
 1091 00c0 0B43     		orrs	r3, r1
 1092 00c2 9BB2     		uxth	r3, r3
 1093 00c4 1380     		strh	r3, [r2]
 694:Drivers/STM32F0xx_HAL_Driver/Src/stm32f0xx_hal_pcd.c ****   
 695:Drivers/STM32F0xx_HAL_Driver/Src/stm32f0xx_hal_pcd.c ****   if (ep->doublebuffer == 0U) 
 1094              		.loc 1 695 3 view .LVU245
 1095              		.loc 1 695 9 is_stmt 0 view .LVU246
 1096 00c6 A37A     		ldrb	r3, [r4, #10]
 1097              		.loc 1 695 6 view .LVU247
 1098 00c8 002B     		cmp	r3, #0
 1099 00ca 00D0     		beq	.LCB888
 1100 00cc 8EE0     		b	.L58	@long jump
 1101              	.LCB888:
 696:Drivers/STM32F0xx_HAL_Driver/Src/stm32f0xx_hal_pcd.c ****   {
 697:Drivers/STM32F0xx_HAL_Driver/Src/stm32f0xx_hal_pcd.c ****     if (ep->is_in)
 1102              		.loc 1 697 5 is_stmt 1 view .LVU248
 1103              		.loc 1 697 11 is_stmt 0 view .LVU249
 1104 00ce 6378     		ldrb	r3, [r4, #1]
 1105              		.loc 1 697 8 view .LVU250
 1106 00d0 002B     		cmp	r3, #0
 1107 00d2 3ED0     		beq	.L59
 698:Drivers/STM32F0xx_HAL_Driver/Src/stm32f0xx_hal_pcd.c ****     {
 699:Drivers/STM32F0xx_HAL_Driver/Src/stm32f0xx_hal_pcd.c ****       /*Set the endpoint Transmit buffer address */
 700:Drivers/STM32F0xx_HAL_Driver/Src/stm32f0xx_hal_pcd.c ****       PCD_SET_EP_TX_ADDRESS(hpcd->Instance, ep->num, ep->pmaadress);
 1108              		.loc 1 700 7 is_stmt 1 view .LVU251
 1109 00d4 A288     		ldrh	r2, [r4, #4]
 1110 00d6 0568     		ldr	r5, [r0]
 1111 00d8 5023     		movs	r3, #80
 1112 00da EB5A     		ldrh	r3, [r5, r3]
 1113 00dc 2178     		ldrb	r1, [r4]
 1114 00de C900     		lsls	r1, r1, #3
 1115 00e0 5B18     		adds	r3, r3, r1
ARM GAS  /tmp/ccwMzrYy.s 			page 34


 1116 00e2 5B19     		adds	r3, r3, r5
 1117 00e4 8021     		movs	r1, #128
 1118 00e6 C900     		lsls	r1, r1, #3
 1119 00e8 8C46     		mov	ip, r1
 1120 00ea 6344     		add	r3, r3, ip
 1121 00ec 0121     		movs	r1, #1
 1122 00ee 8A43     		bics	r2, r1
 1123 00f0 1A80     		strh	r2, [r3]
 701:Drivers/STM32F0xx_HAL_Driver/Src/stm32f0xx_hal_pcd.c ****       PCD_CLEAR_TX_DTOG(hpcd->Instance, ep->num)
 1124              		.loc 1 701 7 view .LVU252
 1125 00f2 2378     		ldrb	r3, [r4]
 1126 00f4 9B00     		lsls	r3, r3, #2
 1127 00f6 0268     		ldr	r2, [r0]
 1128 00f8 9446     		mov	ip, r2
 1129 00fa 6344     		add	r3, r3, ip
 1130 00fc 1A88     		ldrh	r2, [r3]
 1131 00fe 5206     		lsls	r2, r2, #25
 1132 0100 06D5     		bpl	.L60
 1133              		.loc 1 701 7 discriminator 1 view .LVU253
 1134 0102 1A88     		ldrh	r2, [r3]
 1135 0104 9749     		ldr	r1, .L74+16
 1136 0106 1140     		ands	r1, r2
 1137 0108 984A     		ldr	r2, .L74+24
 1138 010a 0A43     		orrs	r2, r1
 1139 010c 92B2     		uxth	r2, r2
 1140 010e 1A80     		strh	r2, [r3]
 1141              	.L60:
 1142              	.LBB2:
 702:Drivers/STM32F0xx_HAL_Driver/Src/stm32f0xx_hal_pcd.c ****       /* Configure NAK status for the Endpoint*/
 703:Drivers/STM32F0xx_HAL_Driver/Src/stm32f0xx_hal_pcd.c ****       PCD_SET_EP_TX_STATUS(hpcd->Instance, ep->num, USB_EP_TX_NAK) 
 1143              		.loc 1 703 7 view .LVU254
 1144              		.loc 1 703 7 view .LVU255
 1145 0110 2178     		ldrb	r1, [r4]
 1146 0112 8900     		lsls	r1, r1, #2
 1147 0114 0368     		ldr	r3, [r0]
 1148 0116 9C46     		mov	ip, r3
 1149 0118 6144     		add	r1, r1, ip
 1150 011a 0B88     		ldrh	r3, [r1]
 1151 011c 944A     		ldr	r2, .L74+28
 1152 011e 1340     		ands	r3, r2
 1153              	.LVL66:
 1154              		.loc 1 703 7 view .LVU256
 1155              		.loc 1 703 7 view .LVU257
 1156              		.loc 1 703 7 view .LVU258
 1157 0120 2022     		movs	r2, #32
 1158 0122 5A40     		eors	r2, r3
 1159              	.LVL67:
 1160              		.loc 1 703 7 view .LVU259
 1161 0124 904B     		ldr	r3, .L74+20
 1162 0126 1343     		orrs	r3, r2
 1163 0128 9BB2     		uxth	r3, r3
 1164 012a 0B80     		strh	r3, [r1]
 1165              	.LVL68:
 1166              	.L61:
 1167              		.loc 1 703 7 is_stmt 0 view .LVU260
 1168              	.LBE2:
 704:Drivers/STM32F0xx_HAL_Driver/Src/stm32f0xx_hal_pcd.c ****     }
ARM GAS  /tmp/ccwMzrYy.s 			page 35


 705:Drivers/STM32F0xx_HAL_Driver/Src/stm32f0xx_hal_pcd.c ****     else
 706:Drivers/STM32F0xx_HAL_Driver/Src/stm32f0xx_hal_pcd.c ****     {
 707:Drivers/STM32F0xx_HAL_Driver/Src/stm32f0xx_hal_pcd.c ****       /*Set the endpoint Receive buffer address */
 708:Drivers/STM32F0xx_HAL_Driver/Src/stm32f0xx_hal_pcd.c ****       PCD_SET_EP_RX_ADDRESS(hpcd->Instance, ep->num, ep->pmaadress);
 709:Drivers/STM32F0xx_HAL_Driver/Src/stm32f0xx_hal_pcd.c ****       /*Set the endpoint Receive buffer counter*/
 710:Drivers/STM32F0xx_HAL_Driver/Src/stm32f0xx_hal_pcd.c ****       PCD_SET_EP_RX_CNT(hpcd->Instance, ep->num, ep->maxpacket)
 711:Drivers/STM32F0xx_HAL_Driver/Src/stm32f0xx_hal_pcd.c ****       PCD_CLEAR_RX_DTOG(hpcd->Instance, ep->num)
 712:Drivers/STM32F0xx_HAL_Driver/Src/stm32f0xx_hal_pcd.c ****       /* Configure VALID status for the Endpoint*/
 713:Drivers/STM32F0xx_HAL_Driver/Src/stm32f0xx_hal_pcd.c ****       PCD_SET_EP_RX_STATUS(hpcd->Instance, ep->num, USB_EP_RX_VALID)
 714:Drivers/STM32F0xx_HAL_Driver/Src/stm32f0xx_hal_pcd.c ****     }
 715:Drivers/STM32F0xx_HAL_Driver/Src/stm32f0xx_hal_pcd.c ****   }
 716:Drivers/STM32F0xx_HAL_Driver/Src/stm32f0xx_hal_pcd.c ****   /*Double Buffer*/
 717:Drivers/STM32F0xx_HAL_Driver/Src/stm32f0xx_hal_pcd.c ****   else
 718:Drivers/STM32F0xx_HAL_Driver/Src/stm32f0xx_hal_pcd.c ****   {
 719:Drivers/STM32F0xx_HAL_Driver/Src/stm32f0xx_hal_pcd.c ****     /*Set the endpoint as double buffered*/
 720:Drivers/STM32F0xx_HAL_Driver/Src/stm32f0xx_hal_pcd.c ****     PCD_SET_EP_DBUF(hpcd->Instance, ep->num);
 721:Drivers/STM32F0xx_HAL_Driver/Src/stm32f0xx_hal_pcd.c ****     /*Set buffer address for double buffered mode*/
 722:Drivers/STM32F0xx_HAL_Driver/Src/stm32f0xx_hal_pcd.c ****     PCD_SET_EP_DBUF_ADDR(hpcd->Instance, ep->num,ep->pmaaddr0, ep->pmaaddr1)
 723:Drivers/STM32F0xx_HAL_Driver/Src/stm32f0xx_hal_pcd.c ****     
 724:Drivers/STM32F0xx_HAL_Driver/Src/stm32f0xx_hal_pcd.c ****     if (ep->is_in==0U)
 725:Drivers/STM32F0xx_HAL_Driver/Src/stm32f0xx_hal_pcd.c ****     {
 726:Drivers/STM32F0xx_HAL_Driver/Src/stm32f0xx_hal_pcd.c ****       /* Clear the data toggle bits for the endpoint IN/OUT*/
 727:Drivers/STM32F0xx_HAL_Driver/Src/stm32f0xx_hal_pcd.c ****       PCD_CLEAR_RX_DTOG(hpcd->Instance, ep->num)
 728:Drivers/STM32F0xx_HAL_Driver/Src/stm32f0xx_hal_pcd.c ****       PCD_CLEAR_TX_DTOG(hpcd->Instance, ep->num)
 729:Drivers/STM32F0xx_HAL_Driver/Src/stm32f0xx_hal_pcd.c ****       
 730:Drivers/STM32F0xx_HAL_Driver/Src/stm32f0xx_hal_pcd.c ****       /* Reset value of the data toggle bits for the endpoint out*/
 731:Drivers/STM32F0xx_HAL_Driver/Src/stm32f0xx_hal_pcd.c ****       PCD_TX_DTOG(hpcd->Instance, ep->num);
 732:Drivers/STM32F0xx_HAL_Driver/Src/stm32f0xx_hal_pcd.c ****       
 733:Drivers/STM32F0xx_HAL_Driver/Src/stm32f0xx_hal_pcd.c ****       PCD_SET_EP_RX_STATUS(hpcd->Instance, ep->num, USB_EP_RX_VALID)
 734:Drivers/STM32F0xx_HAL_Driver/Src/stm32f0xx_hal_pcd.c ****       PCD_SET_EP_TX_STATUS(hpcd->Instance, ep->num, USB_EP_TX_DIS)
 735:Drivers/STM32F0xx_HAL_Driver/Src/stm32f0xx_hal_pcd.c ****     }
 736:Drivers/STM32F0xx_HAL_Driver/Src/stm32f0xx_hal_pcd.c ****     else
 737:Drivers/STM32F0xx_HAL_Driver/Src/stm32f0xx_hal_pcd.c ****     {
 738:Drivers/STM32F0xx_HAL_Driver/Src/stm32f0xx_hal_pcd.c ****       /* Clear the data toggle bits for the endpoint IN/OUT*/
 739:Drivers/STM32F0xx_HAL_Driver/Src/stm32f0xx_hal_pcd.c ****       PCD_CLEAR_RX_DTOG(hpcd->Instance, ep->num)
 740:Drivers/STM32F0xx_HAL_Driver/Src/stm32f0xx_hal_pcd.c ****       PCD_CLEAR_TX_DTOG(hpcd->Instance, ep->num)
 741:Drivers/STM32F0xx_HAL_Driver/Src/stm32f0xx_hal_pcd.c ****       PCD_RX_DTOG(hpcd->Instance, ep->num);
 742:Drivers/STM32F0xx_HAL_Driver/Src/stm32f0xx_hal_pcd.c ****       /* Configure DISABLE status for the Endpoint*/
 743:Drivers/STM32F0xx_HAL_Driver/Src/stm32f0xx_hal_pcd.c ****       PCD_SET_EP_TX_STATUS(hpcd->Instance, ep->num, USB_EP_TX_DIS)
 744:Drivers/STM32F0xx_HAL_Driver/Src/stm32f0xx_hal_pcd.c ****       PCD_SET_EP_RX_STATUS(hpcd->Instance, ep->num, USB_EP_RX_DIS)
 745:Drivers/STM32F0xx_HAL_Driver/Src/stm32f0xx_hal_pcd.c ****     }
 746:Drivers/STM32F0xx_HAL_Driver/Src/stm32f0xx_hal_pcd.c ****   } 
 747:Drivers/STM32F0xx_HAL_Driver/Src/stm32f0xx_hal_pcd.c ****   
 748:Drivers/STM32F0xx_HAL_Driver/Src/stm32f0xx_hal_pcd.c ****   __HAL_UNLOCK(hpcd);   
 1169              		.loc 1 748 3 is_stmt 1 view .LVU261
 1170              		.loc 1 748 3 view .LVU262
 1171 012c F423     		movs	r3, #244
 1172 012e 5B00     		lsls	r3, r3, #1
 1173 0130 0022     		movs	r2, #0
 1174 0132 C254     		strb	r2, [r0, r3]
 749:Drivers/STM32F0xx_HAL_Driver/Src/stm32f0xx_hal_pcd.c ****   return ret;
 1175              		.loc 1 749 3 view .LVU263
 1176              		.loc 1 749 10 is_stmt 0 view .LVU264
 1177 0134 0020     		movs	r0, #0
 1178              	.LVL69:
 1179              	.L51:
 750:Drivers/STM32F0xx_HAL_Driver/Src/stm32f0xx_hal_pcd.c **** }
ARM GAS  /tmp/ccwMzrYy.s 			page 36


 1180              		.loc 1 750 1 view .LVU265
 1181              		@ sp needed
 1182 0136 F0BD     		pop	{r4, r5, r6, r7, pc}
 1183              	.LVL70:
 1184              	.L52:
 681:Drivers/STM32F0xx_HAL_Driver/Src/stm32f0xx_hal_pcd.c ****     break;
 1185              		.loc 1 681 5 is_stmt 1 view .LVU266
 1186 0138 2278     		ldrb	r2, [r4]
 1187 013a 9200     		lsls	r2, r2, #2
 1188 013c 0368     		ldr	r3, [r0]
 1189 013e 9C46     		mov	ip, r3
 1190 0140 6244     		add	r2, r2, ip
 1191 0142 1388     		ldrh	r3, [r2]
 1192 0144 8349     		ldr	r1, .L74
 1193 0146 1940     		ands	r1, r3
 1194 0148 874B     		ldr	r3, .L74+20
 1195 014a 0B43     		orrs	r3, r1
 1196 014c 9BB2     		uxth	r3, r3
 1197 014e 1380     		strh	r3, [r2]
 682:Drivers/STM32F0xx_HAL_Driver/Src/stm32f0xx_hal_pcd.c ****   case PCD_EP_TYPE_INTR:
 1198              		.loc 1 682 5 view .LVU267
 1199 0150 ACE7     		b	.L56
 1200              	.L59:
 708:Drivers/STM32F0xx_HAL_Driver/Src/stm32f0xx_hal_pcd.c ****       /*Set the endpoint Receive buffer counter*/
 1201              		.loc 1 708 7 view .LVU268
 1202 0152 A288     		ldrh	r2, [r4, #4]
 1203 0154 0568     		ldr	r5, [r0]
 1204 0156 5026     		movs	r6, #80
 1205 0158 AB5B     		ldrh	r3, [r5, r6]
 1206 015a 2178     		ldrb	r1, [r4]
 1207 015c C900     		lsls	r1, r1, #3
 1208 015e 5B18     		adds	r3, r3, r1
 1209 0160 5B19     		adds	r3, r3, r5
 1210 0162 8449     		ldr	r1, .L74+32
 1211 0164 8C46     		mov	ip, r1
 1212 0166 6344     		add	r3, r3, ip
 1213 0168 0121     		movs	r1, #1
 1214 016a 8A43     		bics	r2, r1
 1215 016c 1A80     		strh	r2, [r3]
 1216              	.LBB3:
 710:Drivers/STM32F0xx_HAL_Driver/Src/stm32f0xx_hal_pcd.c ****       PCD_CLEAR_RX_DTOG(hpcd->Instance, ep->num)
 1217              		.loc 1 710 7 view .LVU269
 1218 016e 0168     		ldr	r1, [r0]
 1219 0170 8B5B     		ldrh	r3, [r1, r6]
 1220 0172 2278     		ldrb	r2, [r4]
 1221 0174 D200     		lsls	r2, r2, #3
 1222 0176 9B18     		adds	r3, r3, r2
 1223 0178 5B18     		adds	r3, r3, r1
 1224 017a 7F4A     		ldr	r2, .L74+36
 1225 017c 9446     		mov	ip, r2
 1226 017e 6344     		add	r3, r3, ip
 1227              	.LVL71:
 1228              	.LBB4:
 710:Drivers/STM32F0xx_HAL_Driver/Src/stm32f0xx_hal_pcd.c ****       PCD_CLEAR_RX_DTOG(hpcd->Instance, ep->num)
 1229              		.loc 1 710 7 view .LVU270
 710:Drivers/STM32F0xx_HAL_Driver/Src/stm32f0xx_hal_pcd.c ****       PCD_CLEAR_RX_DTOG(hpcd->Instance, ep->num)
 1230              		.loc 1 710 7 view .LVU271
ARM GAS  /tmp/ccwMzrYy.s 			page 37


 1231 0180 E168     		ldr	r1, [r4, #12]
 1232 0182 3E29     		cmp	r1, #62
 1233 0184 29D9     		bls	.L62
 710:Drivers/STM32F0xx_HAL_Driver/Src/stm32f0xx_hal_pcd.c ****       PCD_CLEAR_RX_DTOG(hpcd->Instance, ep->num)
 1234              		.loc 1 710 7 discriminator 1 view .LVU272
 1235 0186 4A09     		lsrs	r2, r1, #5
 1236 0188 92B2     		uxth	r2, r2
 1237              	.LVL72:
 710:Drivers/STM32F0xx_HAL_Driver/Src/stm32f0xx_hal_pcd.c ****       PCD_CLEAR_RX_DTOG(hpcd->Instance, ep->num)
 1238              		.loc 1 710 7 discriminator 1 view .LVU273
 1239 018a C906     		lsls	r1, r1, #27
 1240 018c 01D1     		bne	.L63
 710:Drivers/STM32F0xx_HAL_Driver/Src/stm32f0xx_hal_pcd.c ****       PCD_CLEAR_RX_DTOG(hpcd->Instance, ep->num)
 1241              		.loc 1 710 7 discriminator 3 view .LVU274
 1242 018e 013A     		subs	r2, r2, #1
 1243              	.LVL73:
 710:Drivers/STM32F0xx_HAL_Driver/Src/stm32f0xx_hal_pcd.c ****       PCD_CLEAR_RX_DTOG(hpcd->Instance, ep->num)
 1244              		.loc 1 710 7 is_stmt 0 discriminator 3 view .LVU275
 1245 0190 92B2     		uxth	r2, r2
 1246              	.LVL74:
 1247              	.L63:
 710:Drivers/STM32F0xx_HAL_Driver/Src/stm32f0xx_hal_pcd.c ****       PCD_CLEAR_RX_DTOG(hpcd->Instance, ep->num)
 1248              		.loc 1 710 7 is_stmt 1 discriminator 5 view .LVU276
 1249 0192 9202     		lsls	r2, r2, #10
 1250              	.LVL75:
 710:Drivers/STM32F0xx_HAL_Driver/Src/stm32f0xx_hal_pcd.c ****       PCD_CLEAR_RX_DTOG(hpcd->Instance, ep->num)
 1251              		.loc 1 710 7 is_stmt 0 discriminator 5 view .LVU277
 1252 0194 92B2     		uxth	r2, r2
 1253 0196 7949     		ldr	r1, .L74+40
 1254 0198 0A43     		orrs	r2, r1
 1255 019a 1A80     		strh	r2, [r3]
 1256              	.L64:
 710:Drivers/STM32F0xx_HAL_Driver/Src/stm32f0xx_hal_pcd.c ****       PCD_CLEAR_RX_DTOG(hpcd->Instance, ep->num)
 1257              		.loc 1 710 7 discriminator 5 view .LVU278
 1258              	.LBE4:
 1259              	.LBE3:
 711:Drivers/STM32F0xx_HAL_Driver/Src/stm32f0xx_hal_pcd.c ****       /* Configure VALID status for the Endpoint*/
 1260              		.loc 1 711 7 is_stmt 1 view .LVU279
 1261 019c 2378     		ldrb	r3, [r4]
 1262              	.LVL76:
 711:Drivers/STM32F0xx_HAL_Driver/Src/stm32f0xx_hal_pcd.c ****       /* Configure VALID status for the Endpoint*/
 1263              		.loc 1 711 7 is_stmt 0 view .LVU280
 1264 019e 9B00     		lsls	r3, r3, #2
 1265 01a0 0268     		ldr	r2, [r0]
 1266 01a2 9446     		mov	ip, r2
 1267 01a4 6344     		add	r3, r3, ip
 1268 01a6 1A88     		ldrh	r2, [r3]
 1269 01a8 5204     		lsls	r2, r2, #17
 1270 01aa 06D5     		bpl	.L66
 711:Drivers/STM32F0xx_HAL_Driver/Src/stm32f0xx_hal_pcd.c ****       /* Configure VALID status for the Endpoint*/
 1271              		.loc 1 711 7 is_stmt 1 discriminator 1 view .LVU281
 1272 01ac 1A88     		ldrh	r2, [r3]
 1273 01ae 6D49     		ldr	r1, .L74+16
 1274 01b0 1140     		ands	r1, r2
 1275 01b2 734A     		ldr	r2, .L74+44
 1276 01b4 0A43     		orrs	r2, r1
 1277 01b6 92B2     		uxth	r2, r2
ARM GAS  /tmp/ccwMzrYy.s 			page 38


 1278 01b8 1A80     		strh	r2, [r3]
 1279              	.L66:
 1280              	.LBB6:
 713:Drivers/STM32F0xx_HAL_Driver/Src/stm32f0xx_hal_pcd.c ****     }
 1281              		.loc 1 713 7 view .LVU282
 713:Drivers/STM32F0xx_HAL_Driver/Src/stm32f0xx_hal_pcd.c ****     }
 1282              		.loc 1 713 7 view .LVU283
 1283 01ba 2278     		ldrb	r2, [r4]
 1284 01bc 9200     		lsls	r2, r2, #2
 1285 01be 0368     		ldr	r3, [r0]
 1286 01c0 9C46     		mov	ip, r3
 1287 01c2 6244     		add	r2, r2, ip
 1288 01c4 1188     		ldrh	r1, [r2]
 1289 01c6 6F4B     		ldr	r3, .L74+48
 1290 01c8 1940     		ands	r1, r3
 1291              	.LVL77:
 713:Drivers/STM32F0xx_HAL_Driver/Src/stm32f0xx_hal_pcd.c ****     }
 1292              		.loc 1 713 7 view .LVU284
 713:Drivers/STM32F0xx_HAL_Driver/Src/stm32f0xx_hal_pcd.c ****     }
 1293              		.loc 1 713 7 view .LVU285
 713:Drivers/STM32F0xx_HAL_Driver/Src/stm32f0xx_hal_pcd.c ****     }
 1294              		.loc 1 713 7 view .LVU286
 713:Drivers/STM32F0xx_HAL_Driver/Src/stm32f0xx_hal_pcd.c ****     }
 1295              		.loc 1 713 7 view .LVU287
 1296 01ca C023     		movs	r3, #192
 1297 01cc 9B01     		lsls	r3, r3, #6
 1298 01ce 5940     		eors	r1, r3
 1299              	.LVL78:
 713:Drivers/STM32F0xx_HAL_Driver/Src/stm32f0xx_hal_pcd.c ****     }
 1300              		.loc 1 713 7 view .LVU288
 1301 01d0 654B     		ldr	r3, .L74+20
 1302 01d2 0B43     		orrs	r3, r1
 1303 01d4 9BB2     		uxth	r3, r3
 1304 01d6 1380     		strh	r3, [r2]
 1305 01d8 A8E7     		b	.L61
 1306              	.LVL79:
 1307              	.L62:
 713:Drivers/STM32F0xx_HAL_Driver/Src/stm32f0xx_hal_pcd.c ****     }
 1308              		.loc 1 713 7 is_stmt 0 view .LVU289
 1309              	.LBE6:
 1310              	.LBB7:
 1311              	.LBB5:
 710:Drivers/STM32F0xx_HAL_Driver/Src/stm32f0xx_hal_pcd.c ****       PCD_CLEAR_RX_DTOG(hpcd->Instance, ep->num)
 1312              		.loc 1 710 7 is_stmt 1 discriminator 2 view .LVU290
 1313 01da 4A08     		lsrs	r2, r1, #1
 1314 01dc 92B2     		uxth	r2, r2
 1315              	.LVL80:
 710:Drivers/STM32F0xx_HAL_Driver/Src/stm32f0xx_hal_pcd.c ****       PCD_CLEAR_RX_DTOG(hpcd->Instance, ep->num)
 1316              		.loc 1 710 7 discriminator 2 view .LVU291
 1317 01de C907     		lsls	r1, r1, #31
 1318 01e0 01D5     		bpl	.L65
 710:Drivers/STM32F0xx_HAL_Driver/Src/stm32f0xx_hal_pcd.c ****       PCD_CLEAR_RX_DTOG(hpcd->Instance, ep->num)
 1319              		.loc 1 710 7 discriminator 6 view .LVU292
 1320 01e2 0132     		adds	r2, r2, #1
 1321              	.LVL81:
 710:Drivers/STM32F0xx_HAL_Driver/Src/stm32f0xx_hal_pcd.c ****       PCD_CLEAR_RX_DTOG(hpcd->Instance, ep->num)
 1322              		.loc 1 710 7 is_stmt 0 discriminator 6 view .LVU293
ARM GAS  /tmp/ccwMzrYy.s 			page 39


 1323 01e4 92B2     		uxth	r2, r2
 1324              	.LVL82:
 1325              	.L65:
 710:Drivers/STM32F0xx_HAL_Driver/Src/stm32f0xx_hal_pcd.c ****       PCD_CLEAR_RX_DTOG(hpcd->Instance, ep->num)
 1326              		.loc 1 710 7 is_stmt 1 discriminator 8 view .LVU294
 1327 01e6 9202     		lsls	r2, r2, #10
 1328              	.LVL83:
 710:Drivers/STM32F0xx_HAL_Driver/Src/stm32f0xx_hal_pcd.c ****       PCD_CLEAR_RX_DTOG(hpcd->Instance, ep->num)
 1329              		.loc 1 710 7 is_stmt 0 discriminator 8 view .LVU295
 1330 01e8 1A80     		strh	r2, [r3]
 1331 01ea D7E7     		b	.L64
 1332              	.LVL84:
 1333              	.L58:
 710:Drivers/STM32F0xx_HAL_Driver/Src/stm32f0xx_hal_pcd.c ****       PCD_CLEAR_RX_DTOG(hpcd->Instance, ep->num)
 1334              		.loc 1 710 7 discriminator 8 view .LVU296
 1335              	.LBE5:
 1336              	.LBE7:
 720:Drivers/STM32F0xx_HAL_Driver/Src/stm32f0xx_hal_pcd.c ****     /*Set buffer address for double buffered mode*/
 1337              		.loc 1 720 5 is_stmt 1 view .LVU297
 1338 01ec 2278     		ldrb	r2, [r4]
 1339 01ee 9200     		lsls	r2, r2, #2
 1340 01f0 0368     		ldr	r3, [r0]
 1341 01f2 9C46     		mov	ip, r3
 1342 01f4 6244     		add	r2, r2, ip
 1343 01f6 1388     		ldrh	r3, [r2]
 1344 01f8 6349     		ldr	r1, .L74+52
 1345 01fa 1940     		ands	r1, r3
 1346 01fc 634B     		ldr	r3, .L74+56
 1347 01fe 0B43     		orrs	r3, r1
 1348 0200 9BB2     		uxth	r3, r3
 1349 0202 1380     		strh	r3, [r2]
 722:Drivers/STM32F0xx_HAL_Driver/Src/stm32f0xx_hal_pcd.c ****     
 1350              		.loc 1 722 5 view .LVU298
 1351 0204 E288     		ldrh	r2, [r4, #6]
 1352 0206 0568     		ldr	r5, [r0]
 1353 0208 5027     		movs	r7, #80
 1354 020a EB5B     		ldrh	r3, [r5, r7]
 1355 020c 2178     		ldrb	r1, [r4]
 1356 020e C900     		lsls	r1, r1, #3
 1357 0210 5B18     		adds	r3, r3, r1
 1358 0212 5B19     		adds	r3, r3, r5
 1359 0214 8021     		movs	r1, #128
 1360 0216 C900     		lsls	r1, r1, #3
 1361 0218 8C46     		mov	ip, r1
 1362 021a 6344     		add	r3, r3, ip
 1363 021c 0126     		movs	r6, #1
 1364 021e B243     		bics	r2, r6
 1365 0220 1A80     		strh	r2, [r3]
 722:Drivers/STM32F0xx_HAL_Driver/Src/stm32f0xx_hal_pcd.c ****     
 1366              		.loc 1 722 5 view .LVU299
 1367 0222 2289     		ldrh	r2, [r4, #8]
 1368 0224 0568     		ldr	r5, [r0]
 1369 0226 EB5B     		ldrh	r3, [r5, r7]
 1370 0228 2178     		ldrb	r1, [r4]
 1371 022a C900     		lsls	r1, r1, #3
 1372 022c 5B18     		adds	r3, r3, r1
 1373 022e 5B19     		adds	r3, r3, r5
ARM GAS  /tmp/ccwMzrYy.s 			page 40


 1374 0230 5049     		ldr	r1, .L74+32
 1375 0232 8C46     		mov	ip, r1
 1376 0234 6344     		add	r3, r3, ip
 1377 0236 B243     		bics	r2, r6
 1378 0238 1A80     		strh	r2, [r3]
 724:Drivers/STM32F0xx_HAL_Driver/Src/stm32f0xx_hal_pcd.c ****     {
 1379              		.loc 1 724 5 view .LVU300
 724:Drivers/STM32F0xx_HAL_Driver/Src/stm32f0xx_hal_pcd.c ****     {
 1380              		.loc 1 724 11 is_stmt 0 view .LVU301
 1381 023a 6378     		ldrb	r3, [r4, #1]
 724:Drivers/STM32F0xx_HAL_Driver/Src/stm32f0xx_hal_pcd.c ****     {
 1382              		.loc 1 724 8 view .LVU302
 1383 023c 002B     		cmp	r3, #0
 1384 023e 44D1     		bne	.L67
 727:Drivers/STM32F0xx_HAL_Driver/Src/stm32f0xx_hal_pcd.c ****       PCD_CLEAR_TX_DTOG(hpcd->Instance, ep->num)
 1385              		.loc 1 727 7 is_stmt 1 view .LVU303
 1386 0240 2378     		ldrb	r3, [r4]
 1387 0242 9B00     		lsls	r3, r3, #2
 1388 0244 0268     		ldr	r2, [r0]
 1389 0246 9446     		mov	ip, r2
 1390 0248 6344     		add	r3, r3, ip
 1391 024a 1A88     		ldrh	r2, [r3]
 1392 024c 5204     		lsls	r2, r2, #17
 1393 024e 06D5     		bpl	.L68
 727:Drivers/STM32F0xx_HAL_Driver/Src/stm32f0xx_hal_pcd.c ****       PCD_CLEAR_TX_DTOG(hpcd->Instance, ep->num)
 1394              		.loc 1 727 7 discriminator 1 view .LVU304
 1395 0250 1A88     		ldrh	r2, [r3]
 1396 0252 4449     		ldr	r1, .L74+16
 1397 0254 1140     		ands	r1, r2
 1398 0256 4A4A     		ldr	r2, .L74+44
 1399 0258 0A43     		orrs	r2, r1
 1400 025a 92B2     		uxth	r2, r2
 1401 025c 1A80     		strh	r2, [r3]
 1402              	.L68:
 728:Drivers/STM32F0xx_HAL_Driver/Src/stm32f0xx_hal_pcd.c ****       
 1403              		.loc 1 728 7 view .LVU305
 1404 025e 2378     		ldrb	r3, [r4]
 1405 0260 9B00     		lsls	r3, r3, #2
 1406 0262 0268     		ldr	r2, [r0]
 1407 0264 9446     		mov	ip, r2
 1408 0266 6344     		add	r3, r3, ip
 1409 0268 1A88     		ldrh	r2, [r3]
 1410 026a 5206     		lsls	r2, r2, #25
 1411 026c 06D5     		bpl	.L69
 728:Drivers/STM32F0xx_HAL_Driver/Src/stm32f0xx_hal_pcd.c ****       
 1412              		.loc 1 728 7 discriminator 1 view .LVU306
 1413 026e 1A88     		ldrh	r2, [r3]
 1414 0270 3C49     		ldr	r1, .L74+16
 1415 0272 1140     		ands	r1, r2
 1416 0274 3D4A     		ldr	r2, .L74+24
 1417 0276 0A43     		orrs	r2, r1
 1418 0278 92B2     		uxth	r2, r2
 1419 027a 1A80     		strh	r2, [r3]
 1420              	.L69:
 731:Drivers/STM32F0xx_HAL_Driver/Src/stm32f0xx_hal_pcd.c ****       
 1421              		.loc 1 731 7 view .LVU307
 1422 027c 2278     		ldrb	r2, [r4]
ARM GAS  /tmp/ccwMzrYy.s 			page 41


 1423 027e 9200     		lsls	r2, r2, #2
 1424 0280 0368     		ldr	r3, [r0]
 1425 0282 9C46     		mov	ip, r3
 1426 0284 6244     		add	r2, r2, ip
 1427 0286 1388     		ldrh	r3, [r2]
 1428 0288 3649     		ldr	r1, .L74+16
 1429 028a 1940     		ands	r1, r3
 1430 028c 374B     		ldr	r3, .L74+24
 1431 028e 0B43     		orrs	r3, r1
 1432 0290 9BB2     		uxth	r3, r3
 1433 0292 1380     		strh	r3, [r2]
 1434              	.LBB8:
 733:Drivers/STM32F0xx_HAL_Driver/Src/stm32f0xx_hal_pcd.c ****       PCD_SET_EP_TX_STATUS(hpcd->Instance, ep->num, USB_EP_TX_DIS)
 1435              		.loc 1 733 7 view .LVU308
 733:Drivers/STM32F0xx_HAL_Driver/Src/stm32f0xx_hal_pcd.c ****       PCD_SET_EP_TX_STATUS(hpcd->Instance, ep->num, USB_EP_TX_DIS)
 1436              		.loc 1 733 7 view .LVU309
 1437 0294 2178     		ldrb	r1, [r4]
 1438 0296 8900     		lsls	r1, r1, #2
 1439 0298 0368     		ldr	r3, [r0]
 1440 029a 9C46     		mov	ip, r3
 1441 029c 6144     		add	r1, r1, ip
 1442 029e 0B88     		ldrh	r3, [r1]
 1443 02a0 384A     		ldr	r2, .L74+48
 1444 02a2 1A40     		ands	r2, r3
 1445              	.LVL85:
 733:Drivers/STM32F0xx_HAL_Driver/Src/stm32f0xx_hal_pcd.c ****       PCD_SET_EP_TX_STATUS(hpcd->Instance, ep->num, USB_EP_TX_DIS)
 1446              		.loc 1 733 7 view .LVU310
 733:Drivers/STM32F0xx_HAL_Driver/Src/stm32f0xx_hal_pcd.c ****       PCD_SET_EP_TX_STATUS(hpcd->Instance, ep->num, USB_EP_TX_DIS)
 1447              		.loc 1 733 7 view .LVU311
 733:Drivers/STM32F0xx_HAL_Driver/Src/stm32f0xx_hal_pcd.c ****       PCD_SET_EP_TX_STATUS(hpcd->Instance, ep->num, USB_EP_TX_DIS)
 1448              		.loc 1 733 7 view .LVU312
 733:Drivers/STM32F0xx_HAL_Driver/Src/stm32f0xx_hal_pcd.c ****       PCD_SET_EP_TX_STATUS(hpcd->Instance, ep->num, USB_EP_TX_DIS)
 1449              		.loc 1 733 7 view .LVU313
 1450 02a4 C023     		movs	r3, #192
 1451 02a6 9B01     		lsls	r3, r3, #6
 1452 02a8 5340     		eors	r3, r2
 1453              	.LVL86:
 733:Drivers/STM32F0xx_HAL_Driver/Src/stm32f0xx_hal_pcd.c ****       PCD_SET_EP_TX_STATUS(hpcd->Instance, ep->num, USB_EP_TX_DIS)
 1454              		.loc 1 733 7 view .LVU314
 1455 02aa 2F4A     		ldr	r2, .L74+20
 1456 02ac 1343     		orrs	r3, r2
 1457              	.LVL87:
 733:Drivers/STM32F0xx_HAL_Driver/Src/stm32f0xx_hal_pcd.c ****       PCD_SET_EP_TX_STATUS(hpcd->Instance, ep->num, USB_EP_TX_DIS)
 1458              		.loc 1 733 7 is_stmt 0 view .LVU315
 1459 02ae 9BB2     		uxth	r3, r3
 1460 02b0 0B80     		strh	r3, [r1]
 1461              	.LBE8:
 1462              	.LBB9:
 734:Drivers/STM32F0xx_HAL_Driver/Src/stm32f0xx_hal_pcd.c ****     }
 1463              		.loc 1 734 7 is_stmt 1 view .LVU316
 734:Drivers/STM32F0xx_HAL_Driver/Src/stm32f0xx_hal_pcd.c ****     }
 1464              		.loc 1 734 7 view .LVU317
 1465 02b2 2378     		ldrb	r3, [r4]
 1466 02b4 9B00     		lsls	r3, r3, #2
 1467 02b6 0168     		ldr	r1, [r0]
 1468 02b8 8C46     		mov	ip, r1
 1469 02ba 6344     		add	r3, r3, ip
ARM GAS  /tmp/ccwMzrYy.s 			page 42


 1470 02bc 1988     		ldrh	r1, [r3]
 1471 02be 2C4C     		ldr	r4, .L74+28
 1472              	.LVL88:
 734:Drivers/STM32F0xx_HAL_Driver/Src/stm32f0xx_hal_pcd.c ****     }
 1473              		.loc 1 734 7 is_stmt 0 view .LVU318
 1474 02c0 2140     		ands	r1, r4
 1475              	.LVL89:
 734:Drivers/STM32F0xx_HAL_Driver/Src/stm32f0xx_hal_pcd.c ****     }
 1476              		.loc 1 734 7 is_stmt 1 view .LVU319
 734:Drivers/STM32F0xx_HAL_Driver/Src/stm32f0xx_hal_pcd.c ****     }
 1477              		.loc 1 734 7 view .LVU320
 734:Drivers/STM32F0xx_HAL_Driver/Src/stm32f0xx_hal_pcd.c ****     }
 1478              		.loc 1 734 7 view .LVU321
 1479 02c2 0A43     		orrs	r2, r1
 1480 02c4 92B2     		uxth	r2, r2
 1481 02c6 1A80     		strh	r2, [r3]
 1482              	.LBE9:
 1483 02c8 30E7     		b	.L61
 1484              	.LVL90:
 1485              	.L67:
 739:Drivers/STM32F0xx_HAL_Driver/Src/stm32f0xx_hal_pcd.c ****       PCD_CLEAR_TX_DTOG(hpcd->Instance, ep->num)
 1486              		.loc 1 739 7 view .LVU322
 1487 02ca 2378     		ldrb	r3, [r4]
 1488 02cc 9B00     		lsls	r3, r3, #2
 1489 02ce 0268     		ldr	r2, [r0]
 1490 02d0 9446     		mov	ip, r2
 1491 02d2 6344     		add	r3, r3, ip
 1492 02d4 1A88     		ldrh	r2, [r3]
 1493 02d6 5204     		lsls	r2, r2, #17
 1494 02d8 06D5     		bpl	.L70
 739:Drivers/STM32F0xx_HAL_Driver/Src/stm32f0xx_hal_pcd.c ****       PCD_CLEAR_TX_DTOG(hpcd->Instance, ep->num)
 1495              		.loc 1 739 7 discriminator 1 view .LVU323
 1496 02da 1A88     		ldrh	r2, [r3]
 1497 02dc 2149     		ldr	r1, .L74+16
 1498 02de 1140     		ands	r1, r2
 1499 02e0 274A     		ldr	r2, .L74+44
 1500 02e2 0A43     		orrs	r2, r1
 1501 02e4 92B2     		uxth	r2, r2
 1502 02e6 1A80     		strh	r2, [r3]
 1503              	.L70:
 740:Drivers/STM32F0xx_HAL_Driver/Src/stm32f0xx_hal_pcd.c ****       PCD_RX_DTOG(hpcd->Instance, ep->num);
 1504              		.loc 1 740 7 view .LVU324
 1505 02e8 2378     		ldrb	r3, [r4]
 1506 02ea 9B00     		lsls	r3, r3, #2
 1507 02ec 0268     		ldr	r2, [r0]
 1508 02ee 9446     		mov	ip, r2
 1509 02f0 6344     		add	r3, r3, ip
 1510 02f2 1A88     		ldrh	r2, [r3]
 1511 02f4 5206     		lsls	r2, r2, #25
 1512 02f6 06D5     		bpl	.L71
 740:Drivers/STM32F0xx_HAL_Driver/Src/stm32f0xx_hal_pcd.c ****       PCD_RX_DTOG(hpcd->Instance, ep->num);
 1513              		.loc 1 740 7 discriminator 1 view .LVU325
 1514 02f8 1A88     		ldrh	r2, [r3]
 1515 02fa 1A49     		ldr	r1, .L74+16
 1516 02fc 1140     		ands	r1, r2
 1517 02fe 1B4A     		ldr	r2, .L74+24
 1518 0300 0A43     		orrs	r2, r1
ARM GAS  /tmp/ccwMzrYy.s 			page 43


 1519 0302 92B2     		uxth	r2, r2
 1520 0304 1A80     		strh	r2, [r3]
 1521              	.L71:
 741:Drivers/STM32F0xx_HAL_Driver/Src/stm32f0xx_hal_pcd.c ****       /* Configure DISABLE status for the Endpoint*/
 1522              		.loc 1 741 7 view .LVU326
 1523 0306 2278     		ldrb	r2, [r4]
 1524 0308 9200     		lsls	r2, r2, #2
 1525 030a 0368     		ldr	r3, [r0]
 1526 030c 9C46     		mov	ip, r3
 1527 030e 6244     		add	r2, r2, ip
 1528 0310 1388     		ldrh	r3, [r2]
 1529 0312 1449     		ldr	r1, .L74+16
 1530 0314 1940     		ands	r1, r3
 1531 0316 1A4B     		ldr	r3, .L74+44
 1532 0318 0B43     		orrs	r3, r1
 1533 031a 9BB2     		uxth	r3, r3
 1534 031c 1380     		strh	r3, [r2]
 1535              	.LBB10:
 743:Drivers/STM32F0xx_HAL_Driver/Src/stm32f0xx_hal_pcd.c ****       PCD_SET_EP_RX_STATUS(hpcd->Instance, ep->num, USB_EP_RX_DIS)
 1536              		.loc 1 743 7 view .LVU327
 743:Drivers/STM32F0xx_HAL_Driver/Src/stm32f0xx_hal_pcd.c ****       PCD_SET_EP_RX_STATUS(hpcd->Instance, ep->num, USB_EP_RX_DIS)
 1537              		.loc 1 743 7 view .LVU328
 1538 031e 2178     		ldrb	r1, [r4]
 1539 0320 8900     		lsls	r1, r1, #2
 1540 0322 0368     		ldr	r3, [r0]
 1541 0324 9C46     		mov	ip, r3
 1542 0326 6144     		add	r1, r1, ip
 1543 0328 0B88     		ldrh	r3, [r1]
 1544 032a 114A     		ldr	r2, .L74+28
 1545 032c 1340     		ands	r3, r2
 1546              	.LVL91:
 743:Drivers/STM32F0xx_HAL_Driver/Src/stm32f0xx_hal_pcd.c ****       PCD_SET_EP_RX_STATUS(hpcd->Instance, ep->num, USB_EP_RX_DIS)
 1547              		.loc 1 743 7 view .LVU329
 743:Drivers/STM32F0xx_HAL_Driver/Src/stm32f0xx_hal_pcd.c ****       PCD_SET_EP_RX_STATUS(hpcd->Instance, ep->num, USB_EP_RX_DIS)
 1548              		.loc 1 743 7 view .LVU330
 743:Drivers/STM32F0xx_HAL_Driver/Src/stm32f0xx_hal_pcd.c ****       PCD_SET_EP_RX_STATUS(hpcd->Instance, ep->num, USB_EP_RX_DIS)
 1549              		.loc 1 743 7 view .LVU331
 1550 032e 0E4A     		ldr	r2, .L74+20
 1551 0330 1343     		orrs	r3, r2
 1552              	.LVL92:
 743:Drivers/STM32F0xx_HAL_Driver/Src/stm32f0xx_hal_pcd.c ****       PCD_SET_EP_RX_STATUS(hpcd->Instance, ep->num, USB_EP_RX_DIS)
 1553              		.loc 1 743 7 is_stmt 0 view .LVU332
 1554 0332 9BB2     		uxth	r3, r3
 1555 0334 0B80     		strh	r3, [r1]
 1556              	.LBE10:
 1557              	.LBB11:
 744:Drivers/STM32F0xx_HAL_Driver/Src/stm32f0xx_hal_pcd.c ****     }
 1558              		.loc 1 744 7 is_stmt 1 view .LVU333
 744:Drivers/STM32F0xx_HAL_Driver/Src/stm32f0xx_hal_pcd.c ****     }
 1559              		.loc 1 744 7 view .LVU334
 1560 0336 2378     		ldrb	r3, [r4]
 1561 0338 9B00     		lsls	r3, r3, #2
 1562 033a 0168     		ldr	r1, [r0]
 1563 033c 8C46     		mov	ip, r1
 1564 033e 6344     		add	r3, r3, ip
 1565 0340 1988     		ldrh	r1, [r3]
 1566 0342 104C     		ldr	r4, .L74+48
ARM GAS  /tmp/ccwMzrYy.s 			page 44


 1567              	.LVL93:
 744:Drivers/STM32F0xx_HAL_Driver/Src/stm32f0xx_hal_pcd.c ****     }
 1568              		.loc 1 744 7 is_stmt 0 view .LVU335
 1569 0344 2140     		ands	r1, r4
 1570              	.LVL94:
 744:Drivers/STM32F0xx_HAL_Driver/Src/stm32f0xx_hal_pcd.c ****     }
 1571              		.loc 1 744 7 is_stmt 1 view .LVU336
 744:Drivers/STM32F0xx_HAL_Driver/Src/stm32f0xx_hal_pcd.c ****     }
 1572              		.loc 1 744 7 view .LVU337
 744:Drivers/STM32F0xx_HAL_Driver/Src/stm32f0xx_hal_pcd.c ****     }
 1573              		.loc 1 744 7 view .LVU338
 1574 0346 0A43     		orrs	r2, r1
 1575 0348 92B2     		uxth	r2, r2
 1576 034a 1A80     		strh	r2, [r3]
 1577 034c EEE6     		b	.L61
 1578              	.LVL95:
 1579              	.L72:
 744:Drivers/STM32F0xx_HAL_Driver/Src/stm32f0xx_hal_pcd.c ****     }
 1580              		.loc 1 744 7 is_stmt 0 view .LVU339
 1581              	.LBE11:
 672:Drivers/STM32F0xx_HAL_Driver/Src/stm32f0xx_hal_pcd.c **** 
 1582              		.loc 1 672 3 view .LVU340
 1583 034e 0220     		movs	r0, #2
 1584              	.LVL96:
 672:Drivers/STM32F0xx_HAL_Driver/Src/stm32f0xx_hal_pcd.c **** 
 1585              		.loc 1 672 3 view .LVU341
 1586 0350 F1E6     		b	.L51
 1587              	.L75:
 1588 0352 C046     		.align	2
 1589              	.L74:
 1590 0354 0F090000 		.word	2319
 1591 0358 8084FFFF 		.word	-31616
 1592 035c 8086FFFF 		.word	-31104
 1593 0360 8082FFFF 		.word	-32128
 1594 0364 0F0F0000 		.word	3855
 1595 0368 8080FFFF 		.word	-32640
 1596 036c C080FFFF 		.word	-32576
 1597 0370 BF8FFFFF 		.word	-28737
 1598 0374 04040000 		.word	1028
 1599 0378 06040000 		.word	1030
 1600 037c 0080FFFF 		.word	-32768
 1601 0380 80C0FFFF 		.word	-16256
 1602 0384 8FBFFFFF 		.word	-16497
 1603 0388 0F0E0000 		.word	3599
 1604 038c 8081FFFF 		.word	-32384
 1605              		.cfi_endproc
 1606              	.LFE58:
 1608              		.section	.text.HAL_PCD_EP_Close,"ax",%progbits
 1609              		.align	1
 1610              		.global	HAL_PCD_EP_Close
 1611              		.syntax unified
 1612              		.code	16
 1613              		.thumb_func
 1614              		.fpu softvfp
 1616              	HAL_PCD_EP_Close:
 1617              	.LVL97:
 1618              	.LFB59:
ARM GAS  /tmp/ccwMzrYy.s 			page 45


 751:Drivers/STM32F0xx_HAL_Driver/Src/stm32f0xx_hal_pcd.c **** 
 752:Drivers/STM32F0xx_HAL_Driver/Src/stm32f0xx_hal_pcd.c **** 
 753:Drivers/STM32F0xx_HAL_Driver/Src/stm32f0xx_hal_pcd.c **** /**
 754:Drivers/STM32F0xx_HAL_Driver/Src/stm32f0xx_hal_pcd.c ****   * @brief  Deactivate an endpoint
 755:Drivers/STM32F0xx_HAL_Driver/Src/stm32f0xx_hal_pcd.c ****   * @param  hpcd PCD handle
 756:Drivers/STM32F0xx_HAL_Driver/Src/stm32f0xx_hal_pcd.c ****   * @param  ep_addr endpoint address
 757:Drivers/STM32F0xx_HAL_Driver/Src/stm32f0xx_hal_pcd.c ****   * @retval HAL status
 758:Drivers/STM32F0xx_HAL_Driver/Src/stm32f0xx_hal_pcd.c ****   */
 759:Drivers/STM32F0xx_HAL_Driver/Src/stm32f0xx_hal_pcd.c **** HAL_StatusTypeDef HAL_PCD_EP_Close(PCD_HandleTypeDef *hpcd, uint8_t ep_addr)
 760:Drivers/STM32F0xx_HAL_Driver/Src/stm32f0xx_hal_pcd.c **** {  
 1619              		.loc 1 760 1 is_stmt 1 view -0
 1620              		.cfi_startproc
 1621              		@ args = 0, pretend = 0, frame = 0
 1622              		@ frame_needed = 0, uses_anonymous_args = 0
 1623              		.loc 1 760 1 is_stmt 0 view .LVU343
 1624 0000 10B5     		push	{r4, lr}
 1625              	.LCFI6:
 1626              		.cfi_def_cfa_offset 8
 1627              		.cfi_offset 4, -8
 1628              		.cfi_offset 14, -4
 1629 0002 0C00     		movs	r4, r1
 761:Drivers/STM32F0xx_HAL_Driver/Src/stm32f0xx_hal_pcd.c ****   PCD_EPTypeDef *ep;
 1630              		.loc 1 761 3 is_stmt 1 view .LVU344
 762:Drivers/STM32F0xx_HAL_Driver/Src/stm32f0xx_hal_pcd.c ****   
 763:Drivers/STM32F0xx_HAL_Driver/Src/stm32f0xx_hal_pcd.c ****   if ((ep_addr & 0x80U) == 0x80U)
 1631              		.loc 1 763 3 view .LVU345
 1632              		.loc 1 763 25 is_stmt 0 view .LVU346
 1633 0004 4AB2     		sxtb	r2, r1
 1634              		.loc 1 763 6 view .LVU347
 1635 0006 002A     		cmp	r2, #0
 1636 0008 3DDB     		blt	.L91
 764:Drivers/STM32F0xx_HAL_Driver/Src/stm32f0xx_hal_pcd.c ****   {
 765:Drivers/STM32F0xx_HAL_Driver/Src/stm32f0xx_hal_pcd.c ****     ep = &hpcd->IN_ep[ep_addr & 0x7FU];
 766:Drivers/STM32F0xx_HAL_Driver/Src/stm32f0xx_hal_pcd.c ****   }
 767:Drivers/STM32F0xx_HAL_Driver/Src/stm32f0xx_hal_pcd.c ****   else
 768:Drivers/STM32F0xx_HAL_Driver/Src/stm32f0xx_hal_pcd.c ****   {
 769:Drivers/STM32F0xx_HAL_Driver/Src/stm32f0xx_hal_pcd.c ****     ep = &hpcd->OUT_ep[ep_addr & 0x7FU];
 1637              		.loc 1 769 5 is_stmt 1 view .LVU348
 1638              		.loc 1 769 32 is_stmt 0 view .LVU349
 1639 000a 7F21     		movs	r1, #127
 1640              	.LVL98:
 1641              		.loc 1 769 32 view .LVU350
 1642 000c 2140     		ands	r1, r4
 1643              		.loc 1 769 8 view .LVU351
 1644 000e CB00     		lsls	r3, r1, #3
 1645 0010 5B1A     		subs	r3, r3, r1
 1646 0012 9B00     		lsls	r3, r3, #2
 1647 0014 0933     		adds	r3, r3, #9
 1648 0016 FF33     		adds	r3, r3, #255
 1649 0018 C318     		adds	r3, r0, r3
 1650              	.LVL99:
 1651              	.L78:
 770:Drivers/STM32F0xx_HAL_Driver/Src/stm32f0xx_hal_pcd.c ****   }
 771:Drivers/STM32F0xx_HAL_Driver/Src/stm32f0xx_hal_pcd.c ****   ep->num   = ep_addr & 0x7FU;
 1652              		.loc 1 771 3 is_stmt 1 view .LVU352
 1653              		.loc 1 771 23 is_stmt 0 view .LVU353
 1654 001a 7F21     		movs	r1, #127
ARM GAS  /tmp/ccwMzrYy.s 			page 46


 1655 001c 2140     		ands	r1, r4
 1656              		.loc 1 771 13 view .LVU354
 1657 001e 1970     		strb	r1, [r3]
 772:Drivers/STM32F0xx_HAL_Driver/Src/stm32f0xx_hal_pcd.c ****   
 773:Drivers/STM32F0xx_HAL_Driver/Src/stm32f0xx_hal_pcd.c ****   ep->is_in = (0x80U & ep_addr) != 0U;
 1658              		.loc 1 773 3 is_stmt 1 view .LVU355
 1659              		.loc 1 773 33 is_stmt 0 view .LVU356
 1660 0020 D20F     		lsrs	r2, r2, #31
 1661              	.LVL100:
 1662              		.loc 1 773 13 view .LVU357
 1663 0022 5A70     		strb	r2, [r3, #1]
 774:Drivers/STM32F0xx_HAL_Driver/Src/stm32f0xx_hal_pcd.c ****   
 775:Drivers/STM32F0xx_HAL_Driver/Src/stm32f0xx_hal_pcd.c ****   __HAL_LOCK(hpcd); 
 1664              		.loc 1 775 3 is_stmt 1 view .LVU358
 1665              		.loc 1 775 3 view .LVU359
 1666 0024 F422     		movs	r2, #244
 1667 0026 5200     		lsls	r2, r2, #1
 1668 0028 825C     		ldrb	r2, [r0, r2]
 1669 002a 012A     		cmp	r2, #1
 1670 002c 00D1     		bne	.LCB1576
 1671 002e D5E0     		b	.L90	@long jump
 1672              	.LCB1576:
 1673              		.loc 1 775 3 discriminator 2 view .LVU360
 1674 0030 F422     		movs	r2, #244
 1675 0032 5200     		lsls	r2, r2, #1
 1676 0034 0121     		movs	r1, #1
 1677 0036 8154     		strb	r1, [r0, r2]
 776:Drivers/STM32F0xx_HAL_Driver/Src/stm32f0xx_hal_pcd.c **** 
 777:Drivers/STM32F0xx_HAL_Driver/Src/stm32f0xx_hal_pcd.c ****   if (ep->doublebuffer == 0U) 
 1678              		.loc 1 777 3 discriminator 2 view .LVU361
 1679              		.loc 1 777 9 is_stmt 0 discriminator 2 view .LVU362
 1680 0038 9A7A     		ldrb	r2, [r3, #10]
 1681              		.loc 1 777 6 discriminator 2 view .LVU363
 1682 003a 002A     		cmp	r2, #0
 1683 003c 47D1     		bne	.L80
 778:Drivers/STM32F0xx_HAL_Driver/Src/stm32f0xx_hal_pcd.c ****   {
 779:Drivers/STM32F0xx_HAL_Driver/Src/stm32f0xx_hal_pcd.c ****     if (ep->is_in)
 1684              		.loc 1 779 5 is_stmt 1 view .LVU364
 1685              		.loc 1 779 11 is_stmt 0 view .LVU365
 1686 003e 5A78     		ldrb	r2, [r3, #1]
 1687              		.loc 1 779 8 view .LVU366
 1688 0040 002A     		cmp	r2, #0
 1689 0042 28D0     		beq	.L81
 780:Drivers/STM32F0xx_HAL_Driver/Src/stm32f0xx_hal_pcd.c ****     {
 781:Drivers/STM32F0xx_HAL_Driver/Src/stm32f0xx_hal_pcd.c ****       PCD_CLEAR_TX_DTOG(hpcd->Instance, ep->num)
 1690              		.loc 1 781 7 is_stmt 1 view .LVU367
 1691 0044 1A78     		ldrb	r2, [r3]
 1692 0046 9200     		lsls	r2, r2, #2
 1693 0048 0168     		ldr	r1, [r0]
 1694 004a 8C46     		mov	ip, r1
 1695 004c 6244     		add	r2, r2, ip
 1696 004e 1188     		ldrh	r1, [r2]
 1697 0050 4906     		lsls	r1, r1, #25
 1698 0052 06D5     		bpl	.L82
 1699              		.loc 1 781 7 discriminator 1 view .LVU368
 1700 0054 1188     		ldrh	r1, [r2]
 1701 0056 624C     		ldr	r4, .L92
ARM GAS  /tmp/ccwMzrYy.s 			page 47


 1702 0058 0C40     		ands	r4, r1
 1703 005a 6249     		ldr	r1, .L92+4
 1704 005c 2143     		orrs	r1, r4
 1705 005e 89B2     		uxth	r1, r1
 1706 0060 1180     		strh	r1, [r2]
 1707              	.L82:
 1708              	.LBB12:
 782:Drivers/STM32F0xx_HAL_Driver/Src/stm32f0xx_hal_pcd.c ****       /* Configure DISABLE status for the Endpoint*/
 783:Drivers/STM32F0xx_HAL_Driver/Src/stm32f0xx_hal_pcd.c ****       PCD_SET_EP_TX_STATUS(hpcd->Instance, ep->num, USB_EP_TX_DIS)
 1709              		.loc 1 783 7 view .LVU369
 1710              		.loc 1 783 7 view .LVU370
 1711 0062 1A78     		ldrb	r2, [r3]
 1712 0064 9200     		lsls	r2, r2, #2
 1713 0066 0368     		ldr	r3, [r0]
 1714              	.LVL101:
 1715              		.loc 1 783 7 is_stmt 0 view .LVU371
 1716 0068 9C46     		mov	ip, r3
 1717 006a 6244     		add	r2, r2, ip
 1718 006c 1388     		ldrh	r3, [r2]
 1719 006e 5E49     		ldr	r1, .L92+8
 1720 0070 1940     		ands	r1, r3
 1721              	.LVL102:
 1722              		.loc 1 783 7 is_stmt 1 view .LVU372
 1723              		.loc 1 783 7 view .LVU373
 1724              		.loc 1 783 7 view .LVU374
 1725 0072 5E4B     		ldr	r3, .L92+12
 1726 0074 0B43     		orrs	r3, r1
 1727 0076 9BB2     		uxth	r3, r3
 1728 0078 1380     		strh	r3, [r2]
 1729              	.LVL103:
 1730              	.L83:
 1731              		.loc 1 783 7 is_stmt 0 view .LVU375
 1732              	.LBE12:
 784:Drivers/STM32F0xx_HAL_Driver/Src/stm32f0xx_hal_pcd.c ****     }
 785:Drivers/STM32F0xx_HAL_Driver/Src/stm32f0xx_hal_pcd.c ****     else
 786:Drivers/STM32F0xx_HAL_Driver/Src/stm32f0xx_hal_pcd.c ****     {
 787:Drivers/STM32F0xx_HAL_Driver/Src/stm32f0xx_hal_pcd.c ****       PCD_CLEAR_RX_DTOG(hpcd->Instance, ep->num)
 788:Drivers/STM32F0xx_HAL_Driver/Src/stm32f0xx_hal_pcd.c ****       /* Configure DISABLE status for the Endpoint*/
 789:Drivers/STM32F0xx_HAL_Driver/Src/stm32f0xx_hal_pcd.c ****       PCD_SET_EP_RX_STATUS(hpcd->Instance, ep->num, USB_EP_RX_DIS)
 790:Drivers/STM32F0xx_HAL_Driver/Src/stm32f0xx_hal_pcd.c ****     }
 791:Drivers/STM32F0xx_HAL_Driver/Src/stm32f0xx_hal_pcd.c ****   }
 792:Drivers/STM32F0xx_HAL_Driver/Src/stm32f0xx_hal_pcd.c ****   /*Double Buffer*/
 793:Drivers/STM32F0xx_HAL_Driver/Src/stm32f0xx_hal_pcd.c ****   else
 794:Drivers/STM32F0xx_HAL_Driver/Src/stm32f0xx_hal_pcd.c ****   { 
 795:Drivers/STM32F0xx_HAL_Driver/Src/stm32f0xx_hal_pcd.c ****     if (ep->is_in==0U)
 796:Drivers/STM32F0xx_HAL_Driver/Src/stm32f0xx_hal_pcd.c ****     {
 797:Drivers/STM32F0xx_HAL_Driver/Src/stm32f0xx_hal_pcd.c ****       /* Clear the data toggle bits for the endpoint IN/OUT*/
 798:Drivers/STM32F0xx_HAL_Driver/Src/stm32f0xx_hal_pcd.c ****       PCD_CLEAR_RX_DTOG(hpcd->Instance, ep->num)
 799:Drivers/STM32F0xx_HAL_Driver/Src/stm32f0xx_hal_pcd.c ****       PCD_CLEAR_TX_DTOG(hpcd->Instance, ep->num)
 800:Drivers/STM32F0xx_HAL_Driver/Src/stm32f0xx_hal_pcd.c ****       
 801:Drivers/STM32F0xx_HAL_Driver/Src/stm32f0xx_hal_pcd.c ****       /* Reset value of the data toggle bits for the endpoint out*/
 802:Drivers/STM32F0xx_HAL_Driver/Src/stm32f0xx_hal_pcd.c ****       PCD_TX_DTOG(hpcd->Instance, ep->num);
 803:Drivers/STM32F0xx_HAL_Driver/Src/stm32f0xx_hal_pcd.c ****       
 804:Drivers/STM32F0xx_HAL_Driver/Src/stm32f0xx_hal_pcd.c ****       PCD_SET_EP_RX_STATUS(hpcd->Instance, ep->num, USB_EP_RX_DIS)
 805:Drivers/STM32F0xx_HAL_Driver/Src/stm32f0xx_hal_pcd.c ****       PCD_SET_EP_TX_STATUS(hpcd->Instance, ep->num, USB_EP_TX_DIS)
 806:Drivers/STM32F0xx_HAL_Driver/Src/stm32f0xx_hal_pcd.c ****     }
 807:Drivers/STM32F0xx_HAL_Driver/Src/stm32f0xx_hal_pcd.c ****     else
ARM GAS  /tmp/ccwMzrYy.s 			page 48


 808:Drivers/STM32F0xx_HAL_Driver/Src/stm32f0xx_hal_pcd.c ****     {
 809:Drivers/STM32F0xx_HAL_Driver/Src/stm32f0xx_hal_pcd.c ****       /* Clear the data toggle bits for the endpoint IN/OUT*/
 810:Drivers/STM32F0xx_HAL_Driver/Src/stm32f0xx_hal_pcd.c ****       PCD_CLEAR_RX_DTOG(hpcd->Instance, ep->num)
 811:Drivers/STM32F0xx_HAL_Driver/Src/stm32f0xx_hal_pcd.c ****       PCD_CLEAR_TX_DTOG(hpcd->Instance, ep->num)
 812:Drivers/STM32F0xx_HAL_Driver/Src/stm32f0xx_hal_pcd.c ****       PCD_RX_DTOG(hpcd->Instance, ep->num);
 813:Drivers/STM32F0xx_HAL_Driver/Src/stm32f0xx_hal_pcd.c ****       /* Configure DISABLE status for the Endpoint*/
 814:Drivers/STM32F0xx_HAL_Driver/Src/stm32f0xx_hal_pcd.c ****       PCD_SET_EP_TX_STATUS(hpcd->Instance, ep->num, USB_EP_TX_DIS)
 815:Drivers/STM32F0xx_HAL_Driver/Src/stm32f0xx_hal_pcd.c ****       PCD_SET_EP_RX_STATUS(hpcd->Instance, ep->num, USB_EP_RX_DIS)
 816:Drivers/STM32F0xx_HAL_Driver/Src/stm32f0xx_hal_pcd.c ****     }
 817:Drivers/STM32F0xx_HAL_Driver/Src/stm32f0xx_hal_pcd.c ****   } 
 818:Drivers/STM32F0xx_HAL_Driver/Src/stm32f0xx_hal_pcd.c ****   
 819:Drivers/STM32F0xx_HAL_Driver/Src/stm32f0xx_hal_pcd.c ****   __HAL_UNLOCK(hpcd);   
 1733              		.loc 1 819 3 is_stmt 1 view .LVU376
 1734              		.loc 1 819 3 view .LVU377
 1735 007a F423     		movs	r3, #244
 1736 007c 5B00     		lsls	r3, r3, #1
 1737 007e 0022     		movs	r2, #0
 1738 0080 C254     		strb	r2, [r0, r3]
 820:Drivers/STM32F0xx_HAL_Driver/Src/stm32f0xx_hal_pcd.c ****   return HAL_OK;
 1739              		.loc 1 820 3 view .LVU378
 1740              		.loc 1 820 10 is_stmt 0 view .LVU379
 1741 0082 0020     		movs	r0, #0
 1742              	.LVL104:
 1743              	.L79:
 821:Drivers/STM32F0xx_HAL_Driver/Src/stm32f0xx_hal_pcd.c **** }
 1744              		.loc 1 821 1 view .LVU380
 1745              		@ sp needed
 1746 0084 10BD     		pop	{r4, pc}
 1747              	.LVL105:
 1748              	.L91:
 765:Drivers/STM32F0xx_HAL_Driver/Src/stm32f0xx_hal_pcd.c ****   }
 1749              		.loc 1 765 5 is_stmt 1 view .LVU381
 765:Drivers/STM32F0xx_HAL_Driver/Src/stm32f0xx_hal_pcd.c ****   }
 1750              		.loc 1 765 31 is_stmt 0 view .LVU382
 1751 0086 7F21     		movs	r1, #127
 1752              	.LVL106:
 765:Drivers/STM32F0xx_HAL_Driver/Src/stm32f0xx_hal_pcd.c ****   }
 1753              		.loc 1 765 31 view .LVU383
 1754 0088 2140     		ands	r1, r4
 765:Drivers/STM32F0xx_HAL_Driver/Src/stm32f0xx_hal_pcd.c ****   }
 1755              		.loc 1 765 8 view .LVU384
 1756 008a CB00     		lsls	r3, r1, #3
 1757 008c 5B1A     		subs	r3, r3, r1
 1758 008e 9B00     		lsls	r3, r3, #2
 1759 0090 2833     		adds	r3, r3, #40
 1760 0092 C318     		adds	r3, r0, r3
 1761              	.LVL107:
 765:Drivers/STM32F0xx_HAL_Driver/Src/stm32f0xx_hal_pcd.c ****   }
 1762              		.loc 1 765 8 view .LVU385
 1763 0094 C1E7     		b	.L78
 1764              	.LVL108:
 1765              	.L81:
 787:Drivers/STM32F0xx_HAL_Driver/Src/stm32f0xx_hal_pcd.c ****       /* Configure DISABLE status for the Endpoint*/
 1766              		.loc 1 787 7 is_stmt 1 view .LVU386
 1767 0096 1A78     		ldrb	r2, [r3]
 1768 0098 9200     		lsls	r2, r2, #2
 1769 009a 0168     		ldr	r1, [r0]
ARM GAS  /tmp/ccwMzrYy.s 			page 49


 1770 009c 8C46     		mov	ip, r1
 1771 009e 6244     		add	r2, r2, ip
 1772 00a0 1188     		ldrh	r1, [r2]
 1773 00a2 4904     		lsls	r1, r1, #17
 1774 00a4 06D5     		bpl	.L84
 787:Drivers/STM32F0xx_HAL_Driver/Src/stm32f0xx_hal_pcd.c ****       /* Configure DISABLE status for the Endpoint*/
 1775              		.loc 1 787 7 discriminator 1 view .LVU387
 1776 00a6 1188     		ldrh	r1, [r2]
 1777 00a8 4D4C     		ldr	r4, .L92
 1778 00aa 0C40     		ands	r4, r1
 1779 00ac 5049     		ldr	r1, .L92+16
 1780 00ae 2143     		orrs	r1, r4
 1781 00b0 89B2     		uxth	r1, r1
 1782 00b2 1180     		strh	r1, [r2]
 1783              	.L84:
 1784              	.LBB13:
 789:Drivers/STM32F0xx_HAL_Driver/Src/stm32f0xx_hal_pcd.c ****     }
 1785              		.loc 1 789 7 view .LVU388
 789:Drivers/STM32F0xx_HAL_Driver/Src/stm32f0xx_hal_pcd.c ****     }
 1786              		.loc 1 789 7 view .LVU389
 1787 00b4 1A78     		ldrb	r2, [r3]
 1788 00b6 9200     		lsls	r2, r2, #2
 1789 00b8 0368     		ldr	r3, [r0]
 1790              	.LVL109:
 789:Drivers/STM32F0xx_HAL_Driver/Src/stm32f0xx_hal_pcd.c ****     }
 1791              		.loc 1 789 7 is_stmt 0 view .LVU390
 1792 00ba 9C46     		mov	ip, r3
 1793 00bc 6244     		add	r2, r2, ip
 1794 00be 1388     		ldrh	r3, [r2]
 1795 00c0 4C49     		ldr	r1, .L92+20
 1796 00c2 1940     		ands	r1, r3
 1797              	.LVL110:
 789:Drivers/STM32F0xx_HAL_Driver/Src/stm32f0xx_hal_pcd.c ****     }
 1798              		.loc 1 789 7 is_stmt 1 view .LVU391
 789:Drivers/STM32F0xx_HAL_Driver/Src/stm32f0xx_hal_pcd.c ****     }
 1799              		.loc 1 789 7 view .LVU392
 789:Drivers/STM32F0xx_HAL_Driver/Src/stm32f0xx_hal_pcd.c ****     }
 1800              		.loc 1 789 7 view .LVU393
 1801 00c4 494B     		ldr	r3, .L92+12
 1802 00c6 0B43     		orrs	r3, r1
 1803 00c8 9BB2     		uxth	r3, r3
 1804 00ca 1380     		strh	r3, [r2]
 1805 00cc D5E7     		b	.L83
 1806              	.LVL111:
 1807              	.L80:
 789:Drivers/STM32F0xx_HAL_Driver/Src/stm32f0xx_hal_pcd.c ****     }
 1808              		.loc 1 789 7 is_stmt 0 view .LVU394
 1809              	.LBE13:
 795:Drivers/STM32F0xx_HAL_Driver/Src/stm32f0xx_hal_pcd.c ****     {
 1810              		.loc 1 795 5 is_stmt 1 view .LVU395
 795:Drivers/STM32F0xx_HAL_Driver/Src/stm32f0xx_hal_pcd.c ****     {
 1811              		.loc 1 795 11 is_stmt 0 view .LVU396
 1812 00ce 5A78     		ldrb	r2, [r3, #1]
 795:Drivers/STM32F0xx_HAL_Driver/Src/stm32f0xx_hal_pcd.c ****     {
 1813              		.loc 1 795 8 view .LVU397
 1814 00d0 002A     		cmp	r2, #0
 1815 00d2 41D1     		bne	.L85
ARM GAS  /tmp/ccwMzrYy.s 			page 50


 798:Drivers/STM32F0xx_HAL_Driver/Src/stm32f0xx_hal_pcd.c ****       PCD_CLEAR_TX_DTOG(hpcd->Instance, ep->num)
 1816              		.loc 1 798 7 is_stmt 1 view .LVU398
 1817 00d4 1A78     		ldrb	r2, [r3]
 1818 00d6 9200     		lsls	r2, r2, #2
 1819 00d8 0168     		ldr	r1, [r0]
 1820 00da 8C46     		mov	ip, r1
 1821 00dc 6244     		add	r2, r2, ip
 1822 00de 1188     		ldrh	r1, [r2]
 1823 00e0 4904     		lsls	r1, r1, #17
 1824 00e2 06D5     		bpl	.L86
 798:Drivers/STM32F0xx_HAL_Driver/Src/stm32f0xx_hal_pcd.c ****       PCD_CLEAR_TX_DTOG(hpcd->Instance, ep->num)
 1825              		.loc 1 798 7 discriminator 1 view .LVU399
 1826 00e4 1188     		ldrh	r1, [r2]
 1827 00e6 3E4C     		ldr	r4, .L92
 1828 00e8 0C40     		ands	r4, r1
 1829 00ea 4149     		ldr	r1, .L92+16
 1830 00ec 2143     		orrs	r1, r4
 1831 00ee 89B2     		uxth	r1, r1
 1832 00f0 1180     		strh	r1, [r2]
 1833              	.L86:
 799:Drivers/STM32F0xx_HAL_Driver/Src/stm32f0xx_hal_pcd.c ****       
 1834              		.loc 1 799 7 view .LVU400
 1835 00f2 1A78     		ldrb	r2, [r3]
 1836 00f4 9200     		lsls	r2, r2, #2
 1837 00f6 0168     		ldr	r1, [r0]
 1838 00f8 8C46     		mov	ip, r1
 1839 00fa 6244     		add	r2, r2, ip
 1840 00fc 1188     		ldrh	r1, [r2]
 1841 00fe 4906     		lsls	r1, r1, #25
 1842 0100 06D5     		bpl	.L87
 799:Drivers/STM32F0xx_HAL_Driver/Src/stm32f0xx_hal_pcd.c ****       
 1843              		.loc 1 799 7 discriminator 1 view .LVU401
 1844 0102 1188     		ldrh	r1, [r2]
 1845 0104 364C     		ldr	r4, .L92
 1846 0106 0C40     		ands	r4, r1
 1847 0108 3649     		ldr	r1, .L92+4
 1848 010a 2143     		orrs	r1, r4
 1849 010c 89B2     		uxth	r1, r1
 1850 010e 1180     		strh	r1, [r2]
 1851              	.L87:
 802:Drivers/STM32F0xx_HAL_Driver/Src/stm32f0xx_hal_pcd.c ****       
 1852              		.loc 1 802 7 view .LVU402
 1853 0110 1978     		ldrb	r1, [r3]
 1854 0112 8900     		lsls	r1, r1, #2
 1855 0114 0268     		ldr	r2, [r0]
 1856 0116 9446     		mov	ip, r2
 1857 0118 6144     		add	r1, r1, ip
 1858 011a 0A88     		ldrh	r2, [r1]
 1859 011c 304C     		ldr	r4, .L92
 1860 011e 1440     		ands	r4, r2
 1861 0120 304A     		ldr	r2, .L92+4
 1862 0122 2243     		orrs	r2, r4
 1863 0124 92B2     		uxth	r2, r2
 1864 0126 0A80     		strh	r2, [r1]
 1865              	.LBB14:
 804:Drivers/STM32F0xx_HAL_Driver/Src/stm32f0xx_hal_pcd.c ****       PCD_SET_EP_TX_STATUS(hpcd->Instance, ep->num, USB_EP_TX_DIS)
 1866              		.loc 1 804 7 view .LVU403
ARM GAS  /tmp/ccwMzrYy.s 			page 51


 804:Drivers/STM32F0xx_HAL_Driver/Src/stm32f0xx_hal_pcd.c ****       PCD_SET_EP_TX_STATUS(hpcd->Instance, ep->num, USB_EP_TX_DIS)
 1867              		.loc 1 804 7 view .LVU404
 1868 0128 1C78     		ldrb	r4, [r3]
 1869 012a A400     		lsls	r4, r4, #2
 1870 012c 0268     		ldr	r2, [r0]
 1871 012e 9446     		mov	ip, r2
 1872 0130 6444     		add	r4, r4, ip
 1873 0132 2288     		ldrh	r2, [r4]
 1874 0134 2F49     		ldr	r1, .L92+20
 1875 0136 0A40     		ands	r2, r1
 1876              	.LVL112:
 804:Drivers/STM32F0xx_HAL_Driver/Src/stm32f0xx_hal_pcd.c ****       PCD_SET_EP_TX_STATUS(hpcd->Instance, ep->num, USB_EP_TX_DIS)
 1877              		.loc 1 804 7 view .LVU405
 804:Drivers/STM32F0xx_HAL_Driver/Src/stm32f0xx_hal_pcd.c ****       PCD_SET_EP_TX_STATUS(hpcd->Instance, ep->num, USB_EP_TX_DIS)
 1878              		.loc 1 804 7 view .LVU406
 804:Drivers/STM32F0xx_HAL_Driver/Src/stm32f0xx_hal_pcd.c ****       PCD_SET_EP_TX_STATUS(hpcd->Instance, ep->num, USB_EP_TX_DIS)
 1879              		.loc 1 804 7 view .LVU407
 1880 0138 2C49     		ldr	r1, .L92+12
 1881 013a 0A43     		orrs	r2, r1
 1882              	.LVL113:
 804:Drivers/STM32F0xx_HAL_Driver/Src/stm32f0xx_hal_pcd.c ****       PCD_SET_EP_TX_STATUS(hpcd->Instance, ep->num, USB_EP_TX_DIS)
 1883              		.loc 1 804 7 is_stmt 0 view .LVU408
 1884 013c 92B2     		uxth	r2, r2
 1885 013e 2280     		strh	r2, [r4]
 1886              	.LBE14:
 1887              	.LBB15:
 805:Drivers/STM32F0xx_HAL_Driver/Src/stm32f0xx_hal_pcd.c ****     }
 1888              		.loc 1 805 7 is_stmt 1 view .LVU409
 805:Drivers/STM32F0xx_HAL_Driver/Src/stm32f0xx_hal_pcd.c ****     }
 1889              		.loc 1 805 7 view .LVU410
 1890 0140 1B78     		ldrb	r3, [r3]
 1891              	.LVL114:
 805:Drivers/STM32F0xx_HAL_Driver/Src/stm32f0xx_hal_pcd.c ****     }
 1892              		.loc 1 805 7 is_stmt 0 view .LVU411
 1893 0142 9B00     		lsls	r3, r3, #2
 1894 0144 0268     		ldr	r2, [r0]
 1895 0146 9446     		mov	ip, r2
 1896 0148 6344     		add	r3, r3, ip
 1897 014a 1A88     		ldrh	r2, [r3]
 1898 014c 264C     		ldr	r4, .L92+8
 1899 014e 2240     		ands	r2, r4
 1900              	.LVL115:
 805:Drivers/STM32F0xx_HAL_Driver/Src/stm32f0xx_hal_pcd.c ****     }
 1901              		.loc 1 805 7 is_stmt 1 view .LVU412
 805:Drivers/STM32F0xx_HAL_Driver/Src/stm32f0xx_hal_pcd.c ****     }
 1902              		.loc 1 805 7 view .LVU413
 805:Drivers/STM32F0xx_HAL_Driver/Src/stm32f0xx_hal_pcd.c ****     }
 1903              		.loc 1 805 7 view .LVU414
 1904 0150 1143     		orrs	r1, r2
 1905 0152 89B2     		uxth	r1, r1
 1906 0154 1980     		strh	r1, [r3]
 1907              	.LBE15:
 1908 0156 90E7     		b	.L83
 1909              	.LVL116:
 1910              	.L85:
 810:Drivers/STM32F0xx_HAL_Driver/Src/stm32f0xx_hal_pcd.c ****       PCD_CLEAR_TX_DTOG(hpcd->Instance, ep->num)
 1911              		.loc 1 810 7 view .LVU415
ARM GAS  /tmp/ccwMzrYy.s 			page 52


 1912 0158 1A78     		ldrb	r2, [r3]
 1913 015a 9200     		lsls	r2, r2, #2
 1914 015c 0168     		ldr	r1, [r0]
 1915 015e 8C46     		mov	ip, r1
 1916 0160 6244     		add	r2, r2, ip
 1917 0162 1188     		ldrh	r1, [r2]
 1918 0164 4904     		lsls	r1, r1, #17
 1919 0166 06D5     		bpl	.L88
 810:Drivers/STM32F0xx_HAL_Driver/Src/stm32f0xx_hal_pcd.c ****       PCD_CLEAR_TX_DTOG(hpcd->Instance, ep->num)
 1920              		.loc 1 810 7 discriminator 1 view .LVU416
 1921 0168 1188     		ldrh	r1, [r2]
 1922 016a 1D4C     		ldr	r4, .L92
 1923 016c 0C40     		ands	r4, r1
 1924 016e 2049     		ldr	r1, .L92+16
 1925 0170 2143     		orrs	r1, r4
 1926 0172 89B2     		uxth	r1, r1
 1927 0174 1180     		strh	r1, [r2]
 1928              	.L88:
 811:Drivers/STM32F0xx_HAL_Driver/Src/stm32f0xx_hal_pcd.c ****       PCD_RX_DTOG(hpcd->Instance, ep->num);
 1929              		.loc 1 811 7 view .LVU417
 1930 0176 1A78     		ldrb	r2, [r3]
 1931 0178 9200     		lsls	r2, r2, #2
 1932 017a 0168     		ldr	r1, [r0]
 1933 017c 8C46     		mov	ip, r1
 1934 017e 6244     		add	r2, r2, ip
 1935 0180 1188     		ldrh	r1, [r2]
 1936 0182 4906     		lsls	r1, r1, #25
 1937 0184 06D5     		bpl	.L89
 811:Drivers/STM32F0xx_HAL_Driver/Src/stm32f0xx_hal_pcd.c ****       PCD_RX_DTOG(hpcd->Instance, ep->num);
 1938              		.loc 1 811 7 discriminator 1 view .LVU418
 1939 0186 1188     		ldrh	r1, [r2]
 1940 0188 154C     		ldr	r4, .L92
 1941 018a 0C40     		ands	r4, r1
 1942 018c 1549     		ldr	r1, .L92+4
 1943 018e 2143     		orrs	r1, r4
 1944 0190 89B2     		uxth	r1, r1
 1945 0192 1180     		strh	r1, [r2]
 1946              	.L89:
 812:Drivers/STM32F0xx_HAL_Driver/Src/stm32f0xx_hal_pcd.c ****       /* Configure DISABLE status for the Endpoint*/
 1947              		.loc 1 812 7 view .LVU419
 1948 0194 1978     		ldrb	r1, [r3]
 1949 0196 8900     		lsls	r1, r1, #2
 1950 0198 0268     		ldr	r2, [r0]
 1951 019a 9446     		mov	ip, r2
 1952 019c 6144     		add	r1, r1, ip
 1953 019e 0A88     		ldrh	r2, [r1]
 1954 01a0 0F4C     		ldr	r4, .L92
 1955 01a2 1440     		ands	r4, r2
 1956 01a4 124A     		ldr	r2, .L92+16
 1957 01a6 2243     		orrs	r2, r4
 1958 01a8 92B2     		uxth	r2, r2
 1959 01aa 0A80     		strh	r2, [r1]
 1960              	.LBB16:
 814:Drivers/STM32F0xx_HAL_Driver/Src/stm32f0xx_hal_pcd.c ****       PCD_SET_EP_RX_STATUS(hpcd->Instance, ep->num, USB_EP_RX_DIS)
 1961              		.loc 1 814 7 view .LVU420
 814:Drivers/STM32F0xx_HAL_Driver/Src/stm32f0xx_hal_pcd.c ****       PCD_SET_EP_RX_STATUS(hpcd->Instance, ep->num, USB_EP_RX_DIS)
 1962              		.loc 1 814 7 view .LVU421
ARM GAS  /tmp/ccwMzrYy.s 			page 53


 1963 01ac 1C78     		ldrb	r4, [r3]
 1964 01ae A400     		lsls	r4, r4, #2
 1965 01b0 0268     		ldr	r2, [r0]
 1966 01b2 9446     		mov	ip, r2
 1967 01b4 6444     		add	r4, r4, ip
 1968 01b6 2288     		ldrh	r2, [r4]
 1969 01b8 0B49     		ldr	r1, .L92+8
 1970 01ba 0A40     		ands	r2, r1
 1971              	.LVL117:
 814:Drivers/STM32F0xx_HAL_Driver/Src/stm32f0xx_hal_pcd.c ****       PCD_SET_EP_RX_STATUS(hpcd->Instance, ep->num, USB_EP_RX_DIS)
 1972              		.loc 1 814 7 view .LVU422
 814:Drivers/STM32F0xx_HAL_Driver/Src/stm32f0xx_hal_pcd.c ****       PCD_SET_EP_RX_STATUS(hpcd->Instance, ep->num, USB_EP_RX_DIS)
 1973              		.loc 1 814 7 view .LVU423
 814:Drivers/STM32F0xx_HAL_Driver/Src/stm32f0xx_hal_pcd.c ****       PCD_SET_EP_RX_STATUS(hpcd->Instance, ep->num, USB_EP_RX_DIS)
 1974              		.loc 1 814 7 view .LVU424
 1975 01bc 0B49     		ldr	r1, .L92+12
 1976 01be 0A43     		orrs	r2, r1
 1977              	.LVL118:
 814:Drivers/STM32F0xx_HAL_Driver/Src/stm32f0xx_hal_pcd.c ****       PCD_SET_EP_RX_STATUS(hpcd->Instance, ep->num, USB_EP_RX_DIS)
 1978              		.loc 1 814 7 is_stmt 0 view .LVU425
 1979 01c0 92B2     		uxth	r2, r2
 1980 01c2 2280     		strh	r2, [r4]
 1981              	.LBE16:
 1982              	.LBB17:
 815:Drivers/STM32F0xx_HAL_Driver/Src/stm32f0xx_hal_pcd.c ****     }
 1983              		.loc 1 815 7 is_stmt 1 view .LVU426
 815:Drivers/STM32F0xx_HAL_Driver/Src/stm32f0xx_hal_pcd.c ****     }
 1984              		.loc 1 815 7 view .LVU427
 1985 01c4 1B78     		ldrb	r3, [r3]
 1986              	.LVL119:
 815:Drivers/STM32F0xx_HAL_Driver/Src/stm32f0xx_hal_pcd.c ****     }
 1987              		.loc 1 815 7 is_stmt 0 view .LVU428
 1988 01c6 9B00     		lsls	r3, r3, #2
 1989 01c8 0268     		ldr	r2, [r0]
 1990 01ca 9446     		mov	ip, r2
 1991 01cc 6344     		add	r3, r3, ip
 1992 01ce 1A88     		ldrh	r2, [r3]
 1993 01d0 084C     		ldr	r4, .L92+20
 1994 01d2 2240     		ands	r2, r4
 1995              	.LVL120:
 815:Drivers/STM32F0xx_HAL_Driver/Src/stm32f0xx_hal_pcd.c ****     }
 1996              		.loc 1 815 7 is_stmt 1 view .LVU429
 815:Drivers/STM32F0xx_HAL_Driver/Src/stm32f0xx_hal_pcd.c ****     }
 1997              		.loc 1 815 7 view .LVU430
 815:Drivers/STM32F0xx_HAL_Driver/Src/stm32f0xx_hal_pcd.c ****     }
 1998              		.loc 1 815 7 view .LVU431
 1999 01d4 1143     		orrs	r1, r2
 2000 01d6 89B2     		uxth	r1, r1
 2001 01d8 1980     		strh	r1, [r3]
 2002 01da 4EE7     		b	.L83
 2003              	.LVL121:
 2004              	.L90:
 815:Drivers/STM32F0xx_HAL_Driver/Src/stm32f0xx_hal_pcd.c ****     }
 2005              		.loc 1 815 7 is_stmt 0 view .LVU432
 2006              	.LBE17:
 775:Drivers/STM32F0xx_HAL_Driver/Src/stm32f0xx_hal_pcd.c **** 
 2007              		.loc 1 775 3 view .LVU433
ARM GAS  /tmp/ccwMzrYy.s 			page 54


 2008 01dc 0220     		movs	r0, #2
 2009              	.LVL122:
 775:Drivers/STM32F0xx_HAL_Driver/Src/stm32f0xx_hal_pcd.c **** 
 2010              		.loc 1 775 3 view .LVU434
 2011 01de 51E7     		b	.L79
 2012              	.L93:
 2013              		.align	2
 2014              	.L92:
 2015 01e0 0F0F0000 		.word	3855
 2016 01e4 C080FFFF 		.word	-32576
 2017 01e8 BF8FFFFF 		.word	-28737
 2018 01ec 8080FFFF 		.word	-32640
 2019 01f0 80C0FFFF 		.word	-16256
 2020 01f4 8FBFFFFF 		.word	-16497
 2021              		.cfi_endproc
 2022              	.LFE59:
 2024              		.section	.text.HAL_PCD_EP_Receive,"ax",%progbits
 2025              		.align	1
 2026              		.global	HAL_PCD_EP_Receive
 2027              		.syntax unified
 2028              		.code	16
 2029              		.thumb_func
 2030              		.fpu softvfp
 2032              	HAL_PCD_EP_Receive:
 2033              	.LVL123:
 2034              	.LFB60:
 822:Drivers/STM32F0xx_HAL_Driver/Src/stm32f0xx_hal_pcd.c **** 
 823:Drivers/STM32F0xx_HAL_Driver/Src/stm32f0xx_hal_pcd.c **** 
 824:Drivers/STM32F0xx_HAL_Driver/Src/stm32f0xx_hal_pcd.c **** /**
 825:Drivers/STM32F0xx_HAL_Driver/Src/stm32f0xx_hal_pcd.c ****   * @brief  Receive an amount of data  
 826:Drivers/STM32F0xx_HAL_Driver/Src/stm32f0xx_hal_pcd.c ****   * @param  hpcd PCD handle
 827:Drivers/STM32F0xx_HAL_Driver/Src/stm32f0xx_hal_pcd.c ****   * @param  ep_addr endpoint address
 828:Drivers/STM32F0xx_HAL_Driver/Src/stm32f0xx_hal_pcd.c ****   * @param  pBuf pointer to the reception buffer   
 829:Drivers/STM32F0xx_HAL_Driver/Src/stm32f0xx_hal_pcd.c ****   * @param  len amount of data to be received
 830:Drivers/STM32F0xx_HAL_Driver/Src/stm32f0xx_hal_pcd.c ****   * @retval HAL status
 831:Drivers/STM32F0xx_HAL_Driver/Src/stm32f0xx_hal_pcd.c ****   */
 832:Drivers/STM32F0xx_HAL_Driver/Src/stm32f0xx_hal_pcd.c **** HAL_StatusTypeDef HAL_PCD_EP_Receive(PCD_HandleTypeDef *hpcd, uint8_t ep_addr, uint8_t *pBuf, uint3
 833:Drivers/STM32F0xx_HAL_Driver/Src/stm32f0xx_hal_pcd.c **** {
 2035              		.loc 1 833 1 is_stmt 1 view -0
 2036              		.cfi_startproc
 2037              		@ args = 0, pretend = 0, frame = 0
 2038              		@ frame_needed = 0, uses_anonymous_args = 0
 2039              		.loc 1 833 1 is_stmt 0 view .LVU436
 2040 0000 30B5     		push	{r4, r5, lr}
 2041              	.LCFI7:
 2042              		.cfi_def_cfa_offset 12
 2043              		.cfi_offset 4, -12
 2044              		.cfi_offset 5, -8
 2045              		.cfi_offset 14, -4
 834:Drivers/STM32F0xx_HAL_Driver/Src/stm32f0xx_hal_pcd.c ****   
 835:Drivers/STM32F0xx_HAL_Driver/Src/stm32f0xx_hal_pcd.c ****  PCD_EPTypeDef *ep;
 2046              		.loc 1 835 2 is_stmt 1 view .LVU437
 836:Drivers/STM32F0xx_HAL_Driver/Src/stm32f0xx_hal_pcd.c ****   
 837:Drivers/STM32F0xx_HAL_Driver/Src/stm32f0xx_hal_pcd.c ****   ep = &hpcd->OUT_ep[ep_addr & 0x7FU];
 2047              		.loc 1 837 3 view .LVU438
 2048 0002 7F24     		movs	r4, #127
 2049 0004 2140     		ands	r1, r4
ARM GAS  /tmp/ccwMzrYy.s 			page 55


 2050              	.LVL124:
 838:Drivers/STM32F0xx_HAL_Driver/Src/stm32f0xx_hal_pcd.c ****   
 839:Drivers/STM32F0xx_HAL_Driver/Src/stm32f0xx_hal_pcd.c ****   /*setup and start the Xfer */
 840:Drivers/STM32F0xx_HAL_Driver/Src/stm32f0xx_hal_pcd.c ****   ep->xfer_buff = pBuf;  
 2051              		.loc 1 840 3 view .LVU439
 2052              		.loc 1 840 17 is_stmt 0 view .LVU440
 2053 0006 CC00     		lsls	r4, r1, #3
 2054 0008 641A     		subs	r4, r4, r1
 2055 000a A400     		lsls	r4, r4, #2
 2056 000c 0419     		adds	r4, r0, r4
 2057 000e 2500     		movs	r5, r4
 2058 0010 1935     		adds	r5, r5, #25
 2059 0012 FF35     		adds	r5, r5, #255
 2060 0014 2A60     		str	r2, [r5]
 841:Drivers/STM32F0xx_HAL_Driver/Src/stm32f0xx_hal_pcd.c ****   ep->xfer_len = len;
 2061              		.loc 1 841 3 is_stmt 1 view .LVU441
 2062              		.loc 1 841 16 is_stmt 0 view .LVU442
 2063 0016 2200     		movs	r2, r4
 2064              	.LVL125:
 2065              		.loc 1 841 16 view .LVU443
 2066 0018 1D32     		adds	r2, r2, #29
 2067 001a FF32     		adds	r2, r2, #255
 2068 001c 1360     		str	r3, [r2]
 842:Drivers/STM32F0xx_HAL_Driver/Src/stm32f0xx_hal_pcd.c ****   ep->xfer_count = 0U;
 2069              		.loc 1 842 3 is_stmt 1 view .LVU444
 2070              		.loc 1 842 18 is_stmt 0 view .LVU445
 2071 001e 0835     		adds	r5, r5, #8
 2072              	.LVL126:
 2073              		.loc 1 842 18 view .LVU446
 2074 0020 0022     		movs	r2, #0
 2075 0022 2A60     		str	r2, [r5]
 843:Drivers/STM32F0xx_HAL_Driver/Src/stm32f0xx_hal_pcd.c ****   ep->is_in = 0U;
 2076              		.loc 1 843 3 is_stmt 1 view .LVU447
 2077              		.loc 1 843 13 is_stmt 0 view .LVU448
 2078 0024 173D     		subs	r5, r5, #23
 2079              	.LVL127:
 2080              		.loc 1 843 13 view .LVU449
 2081 0026 2A70     		strb	r2, [r5]
 844:Drivers/STM32F0xx_HAL_Driver/Src/stm32f0xx_hal_pcd.c ****   ep->num = ep_addr & 0x7FU;
 2082              		.loc 1 844 3 is_stmt 1 view .LVU450
 2083              		.loc 1 844 11 is_stmt 0 view .LVU451
 2084 0028 2200     		movs	r2, r4
 2085 002a 0932     		adds	r2, r2, #9
 2086 002c FF32     		adds	r2, r2, #255
 2087 002e 1170     		strb	r1, [r2]
 845:Drivers/STM32F0xx_HAL_Driver/Src/stm32f0xx_hal_pcd.c ****    
 846:Drivers/STM32F0xx_HAL_Driver/Src/stm32f0xx_hal_pcd.c ****   /* Multi packet transfer*/
 847:Drivers/STM32F0xx_HAL_Driver/Src/stm32f0xx_hal_pcd.c ****   if (ep->xfer_len > ep->maxpacket)
 2088              		.loc 1 847 3 is_stmt 1 view .LVU452
 2089              		.loc 1 847 24 is_stmt 0 view .LVU453
 2090 0030 1534     		adds	r4, r4, #21
 2091 0032 FF34     		adds	r4, r4, #255
 2092 0034 2268     		ldr	r2, [r4]
 2093              		.loc 1 847 6 view .LVU454
 2094 0036 9342     		cmp	r3, r2
 2095 0038 43D9     		bls	.L95
 848:Drivers/STM32F0xx_HAL_Driver/Src/stm32f0xx_hal_pcd.c ****   {
ARM GAS  /tmp/ccwMzrYy.s 			page 56


 849:Drivers/STM32F0xx_HAL_Driver/Src/stm32f0xx_hal_pcd.c ****     len=ep->maxpacket;
 2096              		.loc 1 849 5 is_stmt 1 view .LVU455
 2097              	.LVL128:
 850:Drivers/STM32F0xx_HAL_Driver/Src/stm32f0xx_hal_pcd.c ****     ep->xfer_len-=len; 
 2098              		.loc 1 850 5 view .LVU456
 2099              		.loc 1 850 17 is_stmt 0 view .LVU457
 2100 003a CC00     		lsls	r4, r1, #3
 2101 003c 641A     		subs	r4, r4, r1
 2102 003e A400     		lsls	r4, r4, #2
 2103 0040 0419     		adds	r4, r0, r4
 2104 0042 1D34     		adds	r4, r4, #29
 2105 0044 FF34     		adds	r4, r4, #255
 2106 0046 9B1A     		subs	r3, r3, r2
 2107 0048 2360     		str	r3, [r4]
 2108              	.LVL129:
 2109              	.L96:
 851:Drivers/STM32F0xx_HAL_Driver/Src/stm32f0xx_hal_pcd.c ****   }
 852:Drivers/STM32F0xx_HAL_Driver/Src/stm32f0xx_hal_pcd.c ****   else
 853:Drivers/STM32F0xx_HAL_Driver/Src/stm32f0xx_hal_pcd.c ****   {
 854:Drivers/STM32F0xx_HAL_Driver/Src/stm32f0xx_hal_pcd.c ****     len=ep->xfer_len;
 855:Drivers/STM32F0xx_HAL_Driver/Src/stm32f0xx_hal_pcd.c ****     ep->xfer_len =0U;
 856:Drivers/STM32F0xx_HAL_Driver/Src/stm32f0xx_hal_pcd.c ****   }
 857:Drivers/STM32F0xx_HAL_Driver/Src/stm32f0xx_hal_pcd.c ****   
 858:Drivers/STM32F0xx_HAL_Driver/Src/stm32f0xx_hal_pcd.c ****   /* configure and validate Rx endpoint */
 859:Drivers/STM32F0xx_HAL_Driver/Src/stm32f0xx_hal_pcd.c ****   if (ep->doublebuffer == 0) 
 2110              		.loc 1 859 3 is_stmt 1 view .LVU458
 2111              		.loc 1 859 9 is_stmt 0 view .LVU459
 2112 004a CB00     		lsls	r3, r1, #3
 2113 004c 5B1A     		subs	r3, r3, r1
 2114 004e 9B00     		lsls	r3, r3, #2
 2115 0050 C318     		adds	r3, r0, r3
 2116 0052 1333     		adds	r3, r3, #19
 2117 0054 FF33     		adds	r3, r3, #255
 2118 0056 1B78     		ldrb	r3, [r3]
 2119              		.loc 1 859 6 view .LVU460
 2120 0058 002B     		cmp	r3, #0
 2121 005a 45D1     		bne	.L97
 2122              	.LBB18:
 860:Drivers/STM32F0xx_HAL_Driver/Src/stm32f0xx_hal_pcd.c ****   {
 861:Drivers/STM32F0xx_HAL_Driver/Src/stm32f0xx_hal_pcd.c ****     /*Set RX buffer count*/
 862:Drivers/STM32F0xx_HAL_Driver/Src/stm32f0xx_hal_pcd.c ****     PCD_SET_EP_RX_CNT(hpcd->Instance, ep->num, len)
 2123              		.loc 1 862 5 is_stmt 1 view .LVU461
 2124 005c 0468     		ldr	r4, [r0]
 2125 005e 5033     		adds	r3, r3, #80
 2126 0060 E55A     		ldrh	r5, [r4, r3]
 2127 0062 CB00     		lsls	r3, r1, #3
 2128 0064 5B1A     		subs	r3, r3, r1
 2129 0066 9B00     		lsls	r3, r3, #2
 2130 0068 C318     		adds	r3, r0, r3
 2131 006a 0933     		adds	r3, r3, #9
 2132 006c FF33     		adds	r3, r3, #255
 2133 006e 1B78     		ldrb	r3, [r3]
 2134 0070 DB00     		lsls	r3, r3, #3
 2135 0072 EB18     		adds	r3, r5, r3
 2136 0074 1C19     		adds	r4, r3, r4
 2137 0076 614B     		ldr	r3, .L112
 2138 0078 9C46     		mov	ip, r3
ARM GAS  /tmp/ccwMzrYy.s 			page 57


 2139 007a 6444     		add	r4, r4, ip
 2140              	.LVL130:
 2141              	.LBB19:
 2142              		.loc 1 862 5 view .LVU462
 2143              		.loc 1 862 5 view .LVU463
 2144 007c 3E2A     		cmp	r2, #62
 2145 007e 2AD9     		bls	.L98
 2146              		.loc 1 862 5 discriminator 1 view .LVU464
 2147 0080 5309     		lsrs	r3, r2, #5
 2148 0082 9BB2     		uxth	r3, r3
 2149              	.LVL131:
 2150              		.loc 1 862 5 discriminator 1 view .LVU465
 2151 0084 D206     		lsls	r2, r2, #27
 2152 0086 01D1     		bne	.L99
 2153              	.LVL132:
 2154              		.loc 1 862 5 discriminator 3 view .LVU466
 2155 0088 013B     		subs	r3, r3, #1
 2156              	.LVL133:
 2157              		.loc 1 862 5 is_stmt 0 discriminator 3 view .LVU467
 2158 008a 9BB2     		uxth	r3, r3
 2159              	.LVL134:
 2160              	.L99:
 2161              		.loc 1 862 5 is_stmt 1 discriminator 5 view .LVU468
 2162 008c 9B02     		lsls	r3, r3, #10
 2163              	.LVL135:
 2164              		.loc 1 862 5 is_stmt 0 discriminator 5 view .LVU469
 2165 008e 9BB2     		uxth	r3, r3
 2166 0090 5B4A     		ldr	r2, .L112+4
 2167 0092 1343     		orrs	r3, r2
 2168 0094 2380     		strh	r3, [r4]
 2169              	.LVL136:
 2170              	.L100:
 2171              		.loc 1 862 5 discriminator 5 view .LVU470
 2172              	.LBE19:
 2173              	.LBE18:
 2174              	.LBB21:
 863:Drivers/STM32F0xx_HAL_Driver/Src/stm32f0xx_hal_pcd.c ****   }
 864:Drivers/STM32F0xx_HAL_Driver/Src/stm32f0xx_hal_pcd.c ****   else
 865:Drivers/STM32F0xx_HAL_Driver/Src/stm32f0xx_hal_pcd.c ****   {
 866:Drivers/STM32F0xx_HAL_Driver/Src/stm32f0xx_hal_pcd.c ****     /*Set the Double buffer counter*/
 867:Drivers/STM32F0xx_HAL_Driver/Src/stm32f0xx_hal_pcd.c ****     PCD_SET_EP_DBUF_CNT(hpcd->Instance, ep->num, ep->is_in, len)
 868:Drivers/STM32F0xx_HAL_Driver/Src/stm32f0xx_hal_pcd.c ****   } 
 869:Drivers/STM32F0xx_HAL_Driver/Src/stm32f0xx_hal_pcd.c ****   
 870:Drivers/STM32F0xx_HAL_Driver/Src/stm32f0xx_hal_pcd.c ****   PCD_SET_EP_RX_STATUS(hpcd->Instance, ep->num, USB_EP_RX_VALID)
 2175              		.loc 1 870 3 is_stmt 1 view .LVU471
 2176              		.loc 1 870 3 view .LVU472
 2177 0096 0268     		ldr	r2, [r0]
 2178 0098 CB00     		lsls	r3, r1, #3
 2179 009a 591A     		subs	r1, r3, r1
 2180              	.LVL137:
 2181              		.loc 1 870 3 is_stmt 0 view .LVU473
 2182 009c 8900     		lsls	r1, r1, #2
 2183 009e 4018     		adds	r0, r0, r1
 2184              	.LVL138:
 2185              		.loc 1 870 3 view .LVU474
 2186 00a0 0930     		adds	r0, r0, #9
 2187 00a2 FF30     		adds	r0, r0, #255
ARM GAS  /tmp/ccwMzrYy.s 			page 58


 2188 00a4 0378     		ldrb	r3, [r0]
 2189 00a6 9B00     		lsls	r3, r3, #2
 2190 00a8 D218     		adds	r2, r2, r3
 2191 00aa 1188     		ldrh	r1, [r2]
 2192 00ac 554B     		ldr	r3, .L112+8
 2193 00ae 1940     		ands	r1, r3
 2194              	.LVL139:
 2195              		.loc 1 870 3 is_stmt 1 view .LVU475
 2196              		.loc 1 870 3 view .LVU476
 2197              		.loc 1 870 3 view .LVU477
 2198              		.loc 1 870 3 view .LVU478
 2199 00b0 C023     		movs	r3, #192
 2200 00b2 9B01     		lsls	r3, r3, #6
 2201 00b4 5940     		eors	r1, r3
 2202              	.LVL140:
 2203              		.loc 1 870 3 view .LVU479
 2204 00b6 544B     		ldr	r3, .L112+12
 2205 00b8 0B43     		orrs	r3, r1
 2206 00ba 9BB2     		uxth	r3, r3
 2207 00bc 1380     		strh	r3, [r2]
 2208              	.LBE21:
 871:Drivers/STM32F0xx_HAL_Driver/Src/stm32f0xx_hal_pcd.c ****   
 872:Drivers/STM32F0xx_HAL_Driver/Src/stm32f0xx_hal_pcd.c ****   return HAL_OK;
 2209              		.loc 1 872 3 view .LVU480
 873:Drivers/STM32F0xx_HAL_Driver/Src/stm32f0xx_hal_pcd.c **** }
 2210              		.loc 1 873 1 is_stmt 0 view .LVU481
 2211 00be 0020     		movs	r0, #0
 2212              		@ sp needed
 2213 00c0 30BD     		pop	{r4, r5, pc}
 2214              	.LVL141:
 2215              	.L95:
 854:Drivers/STM32F0xx_HAL_Driver/Src/stm32f0xx_hal_pcd.c ****     ep->xfer_len =0U;
 2216              		.loc 1 854 5 is_stmt 1 view .LVU482
 855:Drivers/STM32F0xx_HAL_Driver/Src/stm32f0xx_hal_pcd.c ****   }
 2217              		.loc 1 855 5 view .LVU483
 855:Drivers/STM32F0xx_HAL_Driver/Src/stm32f0xx_hal_pcd.c ****   }
 2218              		.loc 1 855 18 is_stmt 0 view .LVU484
 2219 00c2 CA00     		lsls	r2, r1, #3
 2220 00c4 521A     		subs	r2, r2, r1
 2221 00c6 9200     		lsls	r2, r2, #2
 2222 00c8 8218     		adds	r2, r0, r2
 2223 00ca 1D32     		adds	r2, r2, #29
 2224 00cc FF32     		adds	r2, r2, #255
 2225 00ce 0024     		movs	r4, #0
 2226 00d0 1460     		str	r4, [r2]
 2227              	.LVL142:
 854:Drivers/STM32F0xx_HAL_Driver/Src/stm32f0xx_hal_pcd.c ****     ep->xfer_len =0U;
 2228              		.loc 1 854 8 view .LVU485
 2229 00d2 1A00     		movs	r2, r3
 2230 00d4 B9E7     		b	.L96
 2231              	.LVL143:
 2232              	.L98:
 2233              	.LBB22:
 2234              	.LBB20:
 862:Drivers/STM32F0xx_HAL_Driver/Src/stm32f0xx_hal_pcd.c ****   }
 2235              		.loc 1 862 5 is_stmt 1 discriminator 2 view .LVU486
 2236 00d6 5308     		lsrs	r3, r2, #1
ARM GAS  /tmp/ccwMzrYy.s 			page 59


 2237 00d8 9BB2     		uxth	r3, r3
 2238              	.LVL144:
 862:Drivers/STM32F0xx_HAL_Driver/Src/stm32f0xx_hal_pcd.c ****   }
 2239              		.loc 1 862 5 discriminator 2 view .LVU487
 2240 00da D207     		lsls	r2, r2, #31
 2241 00dc 01D5     		bpl	.L101
 2242              	.LVL145:
 862:Drivers/STM32F0xx_HAL_Driver/Src/stm32f0xx_hal_pcd.c ****   }
 2243              		.loc 1 862 5 discriminator 6 view .LVU488
 2244 00de 0133     		adds	r3, r3, #1
 2245              	.LVL146:
 862:Drivers/STM32F0xx_HAL_Driver/Src/stm32f0xx_hal_pcd.c ****   }
 2246              		.loc 1 862 5 is_stmt 0 discriminator 6 view .LVU489
 2247 00e0 9BB2     		uxth	r3, r3
 2248              	.LVL147:
 2249              	.L101:
 862:Drivers/STM32F0xx_HAL_Driver/Src/stm32f0xx_hal_pcd.c ****   }
 2250              		.loc 1 862 5 is_stmt 1 discriminator 8 view .LVU490
 2251 00e2 9B02     		lsls	r3, r3, #10
 2252              	.LVL148:
 862:Drivers/STM32F0xx_HAL_Driver/Src/stm32f0xx_hal_pcd.c ****   }
 2253              		.loc 1 862 5 is_stmt 0 discriminator 8 view .LVU491
 2254 00e4 2380     		strh	r3, [r4]
 2255 00e6 D6E7     		b	.L100
 2256              	.LVL149:
 2257              	.L97:
 862:Drivers/STM32F0xx_HAL_Driver/Src/stm32f0xx_hal_pcd.c ****   }
 2258              		.loc 1 862 5 discriminator 8 view .LVU492
 2259              	.LBE20:
 2260              	.LBE22:
 867:Drivers/STM32F0xx_HAL_Driver/Src/stm32f0xx_hal_pcd.c ****   } 
 2261              		.loc 1 867 5 is_stmt 1 view .LVU493
 2262 00e8 CB00     		lsls	r3, r1, #3
 2263 00ea 5B1A     		subs	r3, r3, r1
 2264 00ec 9B00     		lsls	r3, r3, #2
 2265 00ee C318     		adds	r3, r0, r3
 2266 00f0 0A33     		adds	r3, r3, #10
 2267 00f2 FF33     		adds	r3, r3, #255
 2268 00f4 1B78     		ldrb	r3, [r3]
 2269 00f6 002B     		cmp	r3, #0
 2270 00f8 26D1     		bne	.L102
 2271              	.LBB23:
 867:Drivers/STM32F0xx_HAL_Driver/Src/stm32f0xx_hal_pcd.c ****   } 
 2272              		.loc 1 867 5 discriminator 1 view .LVU494
 2273 00fa 0468     		ldr	r4, [r0]
 2274 00fc 5033     		adds	r3, r3, #80
 2275 00fe E55A     		ldrh	r5, [r4, r3]
 2276 0100 CB00     		lsls	r3, r1, #3
 2277 0102 5B1A     		subs	r3, r3, r1
 2278 0104 9B00     		lsls	r3, r3, #2
 2279 0106 C318     		adds	r3, r0, r3
 2280 0108 0933     		adds	r3, r3, #9
 2281 010a FF33     		adds	r3, r3, #255
 2282 010c 1B78     		ldrb	r3, [r3]
 2283 010e DB00     		lsls	r3, r3, #3
 2284 0110 EB18     		adds	r3, r5, r3
 2285 0112 1C19     		adds	r4, r3, r4
ARM GAS  /tmp/ccwMzrYy.s 			page 60


 2286 0114 3D4B     		ldr	r3, .L112+16
 2287 0116 9C46     		mov	ip, r3
 2288 0118 6444     		add	r4, r4, ip
 2289              	.LVL150:
 2290              	.LBB24:
 867:Drivers/STM32F0xx_HAL_Driver/Src/stm32f0xx_hal_pcd.c ****   } 
 2291              		.loc 1 867 5 discriminator 1 view .LVU495
 867:Drivers/STM32F0xx_HAL_Driver/Src/stm32f0xx_hal_pcd.c ****   } 
 2292              		.loc 1 867 5 discriminator 1 view .LVU496
 2293 011a 3E2A     		cmp	r2, #62
 2294 011c 0BD9     		bls	.L103
 867:Drivers/STM32F0xx_HAL_Driver/Src/stm32f0xx_hal_pcd.c ****   } 
 2295              		.loc 1 867 5 discriminator 3 view .LVU497
 2296 011e 5309     		lsrs	r3, r2, #5
 2297 0120 9BB2     		uxth	r3, r3
 2298              	.LVL151:
 867:Drivers/STM32F0xx_HAL_Driver/Src/stm32f0xx_hal_pcd.c ****   } 
 2299              		.loc 1 867 5 discriminator 3 view .LVU498
 2300 0122 D506     		lsls	r5, r2, #27
 2301 0124 01D1     		bne	.L104
 867:Drivers/STM32F0xx_HAL_Driver/Src/stm32f0xx_hal_pcd.c ****   } 
 2302              		.loc 1 867 5 discriminator 5 view .LVU499
 2303 0126 013B     		subs	r3, r3, #1
 2304              	.LVL152:
 867:Drivers/STM32F0xx_HAL_Driver/Src/stm32f0xx_hal_pcd.c ****   } 
 2305              		.loc 1 867 5 is_stmt 0 discriminator 5 view .LVU500
 2306 0128 9BB2     		uxth	r3, r3
 2307              	.LVL153:
 2308              	.L104:
 867:Drivers/STM32F0xx_HAL_Driver/Src/stm32f0xx_hal_pcd.c ****   } 
 2309              		.loc 1 867 5 is_stmt 1 discriminator 7 view .LVU501
 2310 012a 9B02     		lsls	r3, r3, #10
 2311              	.LVL154:
 867:Drivers/STM32F0xx_HAL_Driver/Src/stm32f0xx_hal_pcd.c ****   } 
 2312              		.loc 1 867 5 is_stmt 0 discriminator 7 view .LVU502
 2313 012c 9BB2     		uxth	r3, r3
 2314 012e 344D     		ldr	r5, .L112+4
 2315 0130 2B43     		orrs	r3, r5
 2316 0132 2380     		strh	r3, [r4]
 2317 0134 0AE0     		b	.L105
 2318              	.L103:
 867:Drivers/STM32F0xx_HAL_Driver/Src/stm32f0xx_hal_pcd.c ****   } 
 2319              		.loc 1 867 5 is_stmt 1 discriminator 4 view .LVU503
 2320 0136 5308     		lsrs	r3, r2, #1
 2321 0138 9BB2     		uxth	r3, r3
 2322              	.LVL155:
 867:Drivers/STM32F0xx_HAL_Driver/Src/stm32f0xx_hal_pcd.c ****   } 
 2323              		.loc 1 867 5 discriminator 4 view .LVU504
 2324 013a D507     		lsls	r5, r2, #31
 2325 013c 01D5     		bpl	.L106
 867:Drivers/STM32F0xx_HAL_Driver/Src/stm32f0xx_hal_pcd.c ****   } 
 2326              		.loc 1 867 5 discriminator 8 view .LVU505
 2327 013e 0133     		adds	r3, r3, #1
 2328              	.LVL156:
 867:Drivers/STM32F0xx_HAL_Driver/Src/stm32f0xx_hal_pcd.c ****   } 
 2329              		.loc 1 867 5 is_stmt 0 discriminator 8 view .LVU506
 2330 0140 9BB2     		uxth	r3, r3
ARM GAS  /tmp/ccwMzrYy.s 			page 61


 2331              	.LVL157:
 2332              	.L106:
 867:Drivers/STM32F0xx_HAL_Driver/Src/stm32f0xx_hal_pcd.c ****   } 
 2333              		.loc 1 867 5 is_stmt 1 discriminator 10 view .LVU507
 2334 0142 9B02     		lsls	r3, r3, #10
 2335              	.LVL158:
 867:Drivers/STM32F0xx_HAL_Driver/Src/stm32f0xx_hal_pcd.c ****   } 
 2336              		.loc 1 867 5 is_stmt 0 discriminator 10 view .LVU508
 2337 0144 2380     		strh	r3, [r4]
 2338 0146 01E0     		b	.L105
 2339              	.LVL159:
 2340              	.L102:
 867:Drivers/STM32F0xx_HAL_Driver/Src/stm32f0xx_hal_pcd.c ****   } 
 2341              		.loc 1 867 5 discriminator 10 view .LVU509
 2342              	.LBE24:
 2343              	.LBE23:
 867:Drivers/STM32F0xx_HAL_Driver/Src/stm32f0xx_hal_pcd.c ****   } 
 2344              		.loc 1 867 5 is_stmt 1 discriminator 2 view .LVU510
 2345 0148 012B     		cmp	r3, #1
 2346 014a 26D0     		beq	.L111
 2347              	.L105:
 867:Drivers/STM32F0xx_HAL_Driver/Src/stm32f0xx_hal_pcd.c ****   } 
 2348              		.loc 1 867 5 discriminator 13 view .LVU511
 2349 014c CB00     		lsls	r3, r1, #3
 2350 014e 5B1A     		subs	r3, r3, r1
 2351 0150 9B00     		lsls	r3, r3, #2
 2352 0152 C318     		adds	r3, r0, r3
 2353 0154 0A33     		adds	r3, r3, #10
 2354 0156 FF33     		adds	r3, r3, #255
 2355 0158 1B78     		ldrb	r3, [r3]
 2356 015a 002B     		cmp	r3, #0
 2357 015c 38D1     		bne	.L107
 2358              	.LBB25:
 867:Drivers/STM32F0xx_HAL_Driver/Src/stm32f0xx_hal_pcd.c ****   } 
 2359              		.loc 1 867 5 discriminator 14 view .LVU512
 2360 015e 0468     		ldr	r4, [r0]
 2361 0160 5033     		adds	r3, r3, #80
 2362 0162 E55A     		ldrh	r5, [r4, r3]
 2363 0164 CB00     		lsls	r3, r1, #3
 2364 0166 5B1A     		subs	r3, r3, r1
 2365 0168 9B00     		lsls	r3, r3, #2
 2366 016a C318     		adds	r3, r0, r3
 2367 016c 0933     		adds	r3, r3, #9
 2368 016e FF33     		adds	r3, r3, #255
 2369 0170 1B78     		ldrb	r3, [r3]
 2370 0172 DB00     		lsls	r3, r3, #3
 2371 0174 EB18     		adds	r3, r5, r3
 2372 0176 1C19     		adds	r4, r3, r4
 2373 0178 204B     		ldr	r3, .L112
 2374 017a 9C46     		mov	ip, r3
 2375 017c 6444     		add	r4, r4, ip
 2376              	.LVL160:
 2377              	.LBB26:
 867:Drivers/STM32F0xx_HAL_Driver/Src/stm32f0xx_hal_pcd.c ****   } 
 2378              		.loc 1 867 5 discriminator 14 view .LVU513
 867:Drivers/STM32F0xx_HAL_Driver/Src/stm32f0xx_hal_pcd.c ****   } 
 2379              		.loc 1 867 5 discriminator 14 view .LVU514
ARM GAS  /tmp/ccwMzrYy.s 			page 62


 2380 017e 3E2A     		cmp	r2, #62
 2381 0180 1DD9     		bls	.L108
 867:Drivers/STM32F0xx_HAL_Driver/Src/stm32f0xx_hal_pcd.c ****   } 
 2382              		.loc 1 867 5 discriminator 16 view .LVU515
 2383 0182 5309     		lsrs	r3, r2, #5
 2384 0184 9BB2     		uxth	r3, r3
 2385              	.LVL161:
 867:Drivers/STM32F0xx_HAL_Driver/Src/stm32f0xx_hal_pcd.c ****   } 
 2386              		.loc 1 867 5 discriminator 16 view .LVU516
 2387 0186 D206     		lsls	r2, r2, #27
 2388 0188 01D1     		bne	.L109
 2389              	.LVL162:
 867:Drivers/STM32F0xx_HAL_Driver/Src/stm32f0xx_hal_pcd.c ****   } 
 2390              		.loc 1 867 5 discriminator 18 view .LVU517
 2391 018a 013B     		subs	r3, r3, #1
 2392              	.LVL163:
 867:Drivers/STM32F0xx_HAL_Driver/Src/stm32f0xx_hal_pcd.c ****   } 
 2393              		.loc 1 867 5 is_stmt 0 discriminator 18 view .LVU518
 2394 018c 9BB2     		uxth	r3, r3
 2395              	.LVL164:
 2396              	.L109:
 867:Drivers/STM32F0xx_HAL_Driver/Src/stm32f0xx_hal_pcd.c ****   } 
 2397              		.loc 1 867 5 is_stmt 1 discriminator 20 view .LVU519
 2398 018e 9B02     		lsls	r3, r3, #10
 2399              	.LVL165:
 867:Drivers/STM32F0xx_HAL_Driver/Src/stm32f0xx_hal_pcd.c ****   } 
 2400              		.loc 1 867 5 is_stmt 0 discriminator 20 view .LVU520
 2401 0190 9BB2     		uxth	r3, r3
 2402 0192 1B4A     		ldr	r2, .L112+4
 2403 0194 1343     		orrs	r3, r2
 2404 0196 2380     		strh	r3, [r4]
 2405 0198 7DE7     		b	.L100
 2406              	.LVL166:
 2407              	.L111:
 867:Drivers/STM32F0xx_HAL_Driver/Src/stm32f0xx_hal_pcd.c ****   } 
 2408              		.loc 1 867 5 discriminator 20 view .LVU521
 2409              	.LBE26:
 2410              	.LBE25:
 867:Drivers/STM32F0xx_HAL_Driver/Src/stm32f0xx_hal_pcd.c ****   } 
 2411              		.loc 1 867 5 is_stmt 1 discriminator 11 view .LVU522
 2412 019a 0468     		ldr	r4, [r0]
 2413 019c 4F33     		adds	r3, r3, #79
 2414 019e E55A     		ldrh	r5, [r4, r3]
 2415 01a0 CB00     		lsls	r3, r1, #3
 2416 01a2 5B1A     		subs	r3, r3, r1
 2417 01a4 9B00     		lsls	r3, r3, #2
 2418 01a6 C318     		adds	r3, r0, r3
 2419 01a8 0933     		adds	r3, r3, #9
 2420 01aa FF33     		adds	r3, r3, #255
 2421 01ac 1B78     		ldrb	r3, [r3]
 2422 01ae DB00     		lsls	r3, r3, #3
 2423 01b0 EB18     		adds	r3, r5, r3
 2424 01b2 1C19     		adds	r4, r3, r4
 2425 01b4 154B     		ldr	r3, .L112+16
 2426 01b6 9C46     		mov	ip, r3
 2427 01b8 6444     		add	r4, r4, ip
 2428 01ba 2280     		strh	r2, [r4]
ARM GAS  /tmp/ccwMzrYy.s 			page 63


 2429 01bc C6E7     		b	.L105
 2430              	.LVL167:
 2431              	.L108:
 2432              	.LBB28:
 2433              	.LBB27:
 867:Drivers/STM32F0xx_HAL_Driver/Src/stm32f0xx_hal_pcd.c ****   } 
 2434              		.loc 1 867 5 discriminator 17 view .LVU523
 2435 01be 5308     		lsrs	r3, r2, #1
 2436 01c0 9BB2     		uxth	r3, r3
 2437              	.LVL168:
 867:Drivers/STM32F0xx_HAL_Driver/Src/stm32f0xx_hal_pcd.c ****   } 
 2438              		.loc 1 867 5 discriminator 17 view .LVU524
 2439 01c2 D207     		lsls	r2, r2, #31
 2440 01c4 01D5     		bpl	.L110
 2441              	.LVL169:
 867:Drivers/STM32F0xx_HAL_Driver/Src/stm32f0xx_hal_pcd.c ****   } 
 2442              		.loc 1 867 5 discriminator 21 view .LVU525
 2443 01c6 0133     		adds	r3, r3, #1
 2444              	.LVL170:
 867:Drivers/STM32F0xx_HAL_Driver/Src/stm32f0xx_hal_pcd.c ****   } 
 2445              		.loc 1 867 5 is_stmt 0 discriminator 21 view .LVU526
 2446 01c8 9BB2     		uxth	r3, r3
 2447              	.LVL171:
 2448              	.L110:
 867:Drivers/STM32F0xx_HAL_Driver/Src/stm32f0xx_hal_pcd.c ****   } 
 2449              		.loc 1 867 5 is_stmt 1 discriminator 23 view .LVU527
 2450 01ca 9B02     		lsls	r3, r3, #10
 2451              	.LVL172:
 867:Drivers/STM32F0xx_HAL_Driver/Src/stm32f0xx_hal_pcd.c ****   } 
 2452              		.loc 1 867 5 is_stmt 0 discriminator 23 view .LVU528
 2453 01cc 2380     		strh	r3, [r4]
 2454 01ce 62E7     		b	.L100
 2455              	.LVL173:
 2456              	.L107:
 867:Drivers/STM32F0xx_HAL_Driver/Src/stm32f0xx_hal_pcd.c ****   } 
 2457              		.loc 1 867 5 discriminator 23 view .LVU529
 2458              	.LBE27:
 2459              	.LBE28:
 867:Drivers/STM32F0xx_HAL_Driver/Src/stm32f0xx_hal_pcd.c ****   } 
 2460              		.loc 1 867 5 is_stmt 1 discriminator 15 view .LVU530
 2461 01d0 012B     		cmp	r3, #1
 2462 01d2 00D0     		beq	.LCB2512
 2463 01d4 5FE7     		b	.L100	@long jump
 2464              	.LCB2512:
 867:Drivers/STM32F0xx_HAL_Driver/Src/stm32f0xx_hal_pcd.c ****   } 
 2465              		.loc 1 867 5 discriminator 24 view .LVU531
 2466 01d6 0468     		ldr	r4, [r0]
 2467 01d8 4F33     		adds	r3, r3, #79
 2468 01da E55A     		ldrh	r5, [r4, r3]
 2469 01dc CB00     		lsls	r3, r1, #3
 2470 01de 5B1A     		subs	r3, r3, r1
 2471 01e0 9B00     		lsls	r3, r3, #2
 2472 01e2 C318     		adds	r3, r0, r3
 2473 01e4 0933     		adds	r3, r3, #9
 2474 01e6 FF33     		adds	r3, r3, #255
 2475 01e8 1B78     		ldrb	r3, [r3]
 2476 01ea DB00     		lsls	r3, r3, #3
ARM GAS  /tmp/ccwMzrYy.s 			page 64


 2477 01ec EB18     		adds	r3, r5, r3
 2478 01ee 1C19     		adds	r4, r3, r4
 2479 01f0 024B     		ldr	r3, .L112
 2480 01f2 9C46     		mov	ip, r3
 2481 01f4 6444     		add	r4, r4, ip
 2482 01f6 2280     		strh	r2, [r4]
 2483 01f8 4DE7     		b	.L100
 2484              	.L113:
 2485 01fa C046     		.align	2
 2486              	.L112:
 2487 01fc 06040000 		.word	1030
 2488 0200 0080FFFF 		.word	-32768
 2489 0204 8FBFFFFF 		.word	-16497
 2490 0208 8080FFFF 		.word	-32640
 2491 020c 02040000 		.word	1026
 2492              		.cfi_endproc
 2493              	.LFE60:
 2495              		.section	.text.HAL_PCD_EP_GetRxCount,"ax",%progbits
 2496              		.align	1
 2497              		.global	HAL_PCD_EP_GetRxCount
 2498              		.syntax unified
 2499              		.code	16
 2500              		.thumb_func
 2501              		.fpu softvfp
 2503              	HAL_PCD_EP_GetRxCount:
 2504              	.LVL174:
 2505              	.LFB61:
 874:Drivers/STM32F0xx_HAL_Driver/Src/stm32f0xx_hal_pcd.c **** 
 875:Drivers/STM32F0xx_HAL_Driver/Src/stm32f0xx_hal_pcd.c **** /**
 876:Drivers/STM32F0xx_HAL_Driver/Src/stm32f0xx_hal_pcd.c ****   * @brief  Get Received Data Size
 877:Drivers/STM32F0xx_HAL_Driver/Src/stm32f0xx_hal_pcd.c ****   * @param  hpcd PCD handle
 878:Drivers/STM32F0xx_HAL_Driver/Src/stm32f0xx_hal_pcd.c ****   * @param  ep_addr endpoint address
 879:Drivers/STM32F0xx_HAL_Driver/Src/stm32f0xx_hal_pcd.c ****   * @retval Data Size
 880:Drivers/STM32F0xx_HAL_Driver/Src/stm32f0xx_hal_pcd.c ****   */
 881:Drivers/STM32F0xx_HAL_Driver/Src/stm32f0xx_hal_pcd.c **** uint16_t HAL_PCD_EP_GetRxCount(PCD_HandleTypeDef *hpcd, uint8_t ep_addr)
 882:Drivers/STM32F0xx_HAL_Driver/Src/stm32f0xx_hal_pcd.c **** {
 2506              		.loc 1 882 1 view -0
 2507              		.cfi_startproc
 2508              		@ args = 0, pretend = 0, frame = 0
 2509              		@ frame_needed = 0, uses_anonymous_args = 0
 2510              		@ link register save eliminated.
 2511              		.loc 1 882 1 is_stmt 0 view .LVU533
 2512 0000 0B00     		movs	r3, r1
 883:Drivers/STM32F0xx_HAL_Driver/Src/stm32f0xx_hal_pcd.c ****   return hpcd->OUT_ep[ep_addr & 0x7FU].xfer_count;
 2513              		.loc 1 883 3 is_stmt 1 view .LVU534
 2514              		.loc 1 883 31 is_stmt 0 view .LVU535
 2515 0002 7F21     		movs	r1, #127
 2516              	.LVL175:
 2517              		.loc 1 883 31 view .LVU536
 2518 0004 1940     		ands	r1, r3
 2519              		.loc 1 883 39 view .LVU537
 2520 0006 CB00     		lsls	r3, r1, #3
 2521 0008 591A     		subs	r1, r3, r1
 2522 000a 8900     		lsls	r1, r1, #2
 2523 000c 4018     		adds	r0, r0, r1
 2524              	.LVL176:
 2525              		.loc 1 883 39 view .LVU538
ARM GAS  /tmp/ccwMzrYy.s 			page 65


 2526 000e 2130     		adds	r0, r0, #33
 2527 0010 FF30     		adds	r0, r0, #255
 2528 0012 0088     		ldrh	r0, [r0]
 884:Drivers/STM32F0xx_HAL_Driver/Src/stm32f0xx_hal_pcd.c **** }
 2529              		.loc 1 884 1 view .LVU539
 2530              		@ sp needed
 2531 0014 7047     		bx	lr
 2532              		.cfi_endproc
 2533              	.LFE61:
 2535              		.section	.text.HAL_PCD_EP_SetStall,"ax",%progbits
 2536              		.align	1
 2537              		.global	HAL_PCD_EP_SetStall
 2538              		.syntax unified
 2539              		.code	16
 2540              		.thumb_func
 2541              		.fpu softvfp
 2543              	HAL_PCD_EP_SetStall:
 2544              	.LVL177:
 2545              	.LFB63:
 885:Drivers/STM32F0xx_HAL_Driver/Src/stm32f0xx_hal_pcd.c **** /**
 886:Drivers/STM32F0xx_HAL_Driver/Src/stm32f0xx_hal_pcd.c ****   * @brief  Send an amount of data  
 887:Drivers/STM32F0xx_HAL_Driver/Src/stm32f0xx_hal_pcd.c ****   * @param  hpcd PCD handle
 888:Drivers/STM32F0xx_HAL_Driver/Src/stm32f0xx_hal_pcd.c ****   * @param  ep_addr endpoint address
 889:Drivers/STM32F0xx_HAL_Driver/Src/stm32f0xx_hal_pcd.c ****   * @param  pBuf pointer to the transmission buffer   
 890:Drivers/STM32F0xx_HAL_Driver/Src/stm32f0xx_hal_pcd.c ****   * @param  len amount of data to be sent
 891:Drivers/STM32F0xx_HAL_Driver/Src/stm32f0xx_hal_pcd.c ****   * @retval HAL status
 892:Drivers/STM32F0xx_HAL_Driver/Src/stm32f0xx_hal_pcd.c ****   */
 893:Drivers/STM32F0xx_HAL_Driver/Src/stm32f0xx_hal_pcd.c **** HAL_StatusTypeDef HAL_PCD_EP_Transmit(PCD_HandleTypeDef *hpcd, uint8_t ep_addr, uint8_t *pBuf, uint
 894:Drivers/STM32F0xx_HAL_Driver/Src/stm32f0xx_hal_pcd.c **** {
 895:Drivers/STM32F0xx_HAL_Driver/Src/stm32f0xx_hal_pcd.c ****   PCD_EPTypeDef *ep;
 896:Drivers/STM32F0xx_HAL_Driver/Src/stm32f0xx_hal_pcd.c ****   uint16_t pmabuffer = 0U;
 897:Drivers/STM32F0xx_HAL_Driver/Src/stm32f0xx_hal_pcd.c ****     
 898:Drivers/STM32F0xx_HAL_Driver/Src/stm32f0xx_hal_pcd.c ****   ep = &hpcd->IN_ep[ep_addr & 0x7FU];
 899:Drivers/STM32F0xx_HAL_Driver/Src/stm32f0xx_hal_pcd.c ****   
 900:Drivers/STM32F0xx_HAL_Driver/Src/stm32f0xx_hal_pcd.c ****   /*setup and start the Xfer */
 901:Drivers/STM32F0xx_HAL_Driver/Src/stm32f0xx_hal_pcd.c ****   ep->xfer_buff = pBuf;  
 902:Drivers/STM32F0xx_HAL_Driver/Src/stm32f0xx_hal_pcd.c ****   ep->xfer_len = len;
 903:Drivers/STM32F0xx_HAL_Driver/Src/stm32f0xx_hal_pcd.c ****   ep->xfer_count = 0U;
 904:Drivers/STM32F0xx_HAL_Driver/Src/stm32f0xx_hal_pcd.c ****   ep->is_in = 1U;
 905:Drivers/STM32F0xx_HAL_Driver/Src/stm32f0xx_hal_pcd.c ****   ep->num = ep_addr & 0x7FU;
 906:Drivers/STM32F0xx_HAL_Driver/Src/stm32f0xx_hal_pcd.c ****   
 907:Drivers/STM32F0xx_HAL_Driver/Src/stm32f0xx_hal_pcd.c ****   /*Multi packet transfer*/
 908:Drivers/STM32F0xx_HAL_Driver/Src/stm32f0xx_hal_pcd.c ****   if (ep->xfer_len > ep->maxpacket)
 909:Drivers/STM32F0xx_HAL_Driver/Src/stm32f0xx_hal_pcd.c ****   {
 910:Drivers/STM32F0xx_HAL_Driver/Src/stm32f0xx_hal_pcd.c ****     len=ep->maxpacket;
 911:Drivers/STM32F0xx_HAL_Driver/Src/stm32f0xx_hal_pcd.c ****     ep->xfer_len-=len; 
 912:Drivers/STM32F0xx_HAL_Driver/Src/stm32f0xx_hal_pcd.c ****   }
 913:Drivers/STM32F0xx_HAL_Driver/Src/stm32f0xx_hal_pcd.c ****   else
 914:Drivers/STM32F0xx_HAL_Driver/Src/stm32f0xx_hal_pcd.c ****   {  
 915:Drivers/STM32F0xx_HAL_Driver/Src/stm32f0xx_hal_pcd.c ****     len=ep->xfer_len;
 916:Drivers/STM32F0xx_HAL_Driver/Src/stm32f0xx_hal_pcd.c ****     ep->xfer_len =0U;
 917:Drivers/STM32F0xx_HAL_Driver/Src/stm32f0xx_hal_pcd.c ****   }
 918:Drivers/STM32F0xx_HAL_Driver/Src/stm32f0xx_hal_pcd.c ****   
 919:Drivers/STM32F0xx_HAL_Driver/Src/stm32f0xx_hal_pcd.c ****   /* configure and validate Tx endpoint */
 920:Drivers/STM32F0xx_HAL_Driver/Src/stm32f0xx_hal_pcd.c ****   if (ep->doublebuffer == 0U) 
 921:Drivers/STM32F0xx_HAL_Driver/Src/stm32f0xx_hal_pcd.c ****   {
 922:Drivers/STM32F0xx_HAL_Driver/Src/stm32f0xx_hal_pcd.c ****     PCD_WritePMA(hpcd->Instance, ep->xfer_buff, ep->pmaadress, len);
ARM GAS  /tmp/ccwMzrYy.s 			page 66


 923:Drivers/STM32F0xx_HAL_Driver/Src/stm32f0xx_hal_pcd.c ****     PCD_SET_EP_TX_CNT(hpcd->Instance, ep->num, len);
 924:Drivers/STM32F0xx_HAL_Driver/Src/stm32f0xx_hal_pcd.c ****   }
 925:Drivers/STM32F0xx_HAL_Driver/Src/stm32f0xx_hal_pcd.c ****   else
 926:Drivers/STM32F0xx_HAL_Driver/Src/stm32f0xx_hal_pcd.c ****   {
 927:Drivers/STM32F0xx_HAL_Driver/Src/stm32f0xx_hal_pcd.c ****     /*Write the data to the USB endpoint*/
 928:Drivers/STM32F0xx_HAL_Driver/Src/stm32f0xx_hal_pcd.c ****     if ((PCD_GET_ENDPOINT(hpcd->Instance, ep->num)& USB_EP_DTOG_TX) == USB_EP_DTOG_TX)
 929:Drivers/STM32F0xx_HAL_Driver/Src/stm32f0xx_hal_pcd.c ****     {
 930:Drivers/STM32F0xx_HAL_Driver/Src/stm32f0xx_hal_pcd.c ****       /*Set the Double buffer counter for pmabuffer1*/
 931:Drivers/STM32F0xx_HAL_Driver/Src/stm32f0xx_hal_pcd.c ****       PCD_SET_EP_DBUF1_CNT(hpcd->Instance, ep->num, ep->is_in, len)
 932:Drivers/STM32F0xx_HAL_Driver/Src/stm32f0xx_hal_pcd.c ****       pmabuffer = ep->pmaaddr1;
 933:Drivers/STM32F0xx_HAL_Driver/Src/stm32f0xx_hal_pcd.c ****     }
 934:Drivers/STM32F0xx_HAL_Driver/Src/stm32f0xx_hal_pcd.c ****     else
 935:Drivers/STM32F0xx_HAL_Driver/Src/stm32f0xx_hal_pcd.c ****     {
 936:Drivers/STM32F0xx_HAL_Driver/Src/stm32f0xx_hal_pcd.c ****       /*Set the Double buffer counter for pmabuffer0*/
 937:Drivers/STM32F0xx_HAL_Driver/Src/stm32f0xx_hal_pcd.c ****       PCD_SET_EP_DBUF0_CNT(hpcd->Instance, ep->num, ep->is_in, len)
 938:Drivers/STM32F0xx_HAL_Driver/Src/stm32f0xx_hal_pcd.c ****       pmabuffer = ep->pmaaddr0;
 939:Drivers/STM32F0xx_HAL_Driver/Src/stm32f0xx_hal_pcd.c ****     }
 940:Drivers/STM32F0xx_HAL_Driver/Src/stm32f0xx_hal_pcd.c **** 
 941:Drivers/STM32F0xx_HAL_Driver/Src/stm32f0xx_hal_pcd.c ****     PCD_WritePMA(hpcd->Instance, ep->xfer_buff, pmabuffer, len);
 942:Drivers/STM32F0xx_HAL_Driver/Src/stm32f0xx_hal_pcd.c ****     PCD_FreeUserBuffer(hpcd->Instance, ep->num, ep->is_in)
 943:Drivers/STM32F0xx_HAL_Driver/Src/stm32f0xx_hal_pcd.c ****   }
 944:Drivers/STM32F0xx_HAL_Driver/Src/stm32f0xx_hal_pcd.c **** 
 945:Drivers/STM32F0xx_HAL_Driver/Src/stm32f0xx_hal_pcd.c ****   PCD_SET_EP_TX_STATUS(hpcd->Instance, ep->num, USB_EP_TX_VALID)
 946:Drivers/STM32F0xx_HAL_Driver/Src/stm32f0xx_hal_pcd.c ****      
 947:Drivers/STM32F0xx_HAL_Driver/Src/stm32f0xx_hal_pcd.c ****   return HAL_OK;
 948:Drivers/STM32F0xx_HAL_Driver/Src/stm32f0xx_hal_pcd.c **** }
 949:Drivers/STM32F0xx_HAL_Driver/Src/stm32f0xx_hal_pcd.c **** 
 950:Drivers/STM32F0xx_HAL_Driver/Src/stm32f0xx_hal_pcd.c **** /**
 951:Drivers/STM32F0xx_HAL_Driver/Src/stm32f0xx_hal_pcd.c ****   * @brief  Set a STALL condition over an endpoint
 952:Drivers/STM32F0xx_HAL_Driver/Src/stm32f0xx_hal_pcd.c ****   * @param  hpcd PCD handle
 953:Drivers/STM32F0xx_HAL_Driver/Src/stm32f0xx_hal_pcd.c ****   * @param  ep_addr endpoint address
 954:Drivers/STM32F0xx_HAL_Driver/Src/stm32f0xx_hal_pcd.c ****   * @retval HAL status
 955:Drivers/STM32F0xx_HAL_Driver/Src/stm32f0xx_hal_pcd.c ****   */
 956:Drivers/STM32F0xx_HAL_Driver/Src/stm32f0xx_hal_pcd.c **** HAL_StatusTypeDef HAL_PCD_EP_SetStall(PCD_HandleTypeDef *hpcd, uint8_t ep_addr)
 957:Drivers/STM32F0xx_HAL_Driver/Src/stm32f0xx_hal_pcd.c **** {
 2546              		.loc 1 957 1 is_stmt 1 view -0
 2547              		.cfi_startproc
 2548              		@ args = 0, pretend = 0, frame = 0
 2549              		@ frame_needed = 0, uses_anonymous_args = 0
 2550              		.loc 1 957 1 is_stmt 0 view .LVU541
 2551 0000 10B5     		push	{r4, lr}
 2552              	.LCFI8:
 2553              		.cfi_def_cfa_offset 8
 2554              		.cfi_offset 4, -8
 2555              		.cfi_offset 14, -4
 2556 0002 0C00     		movs	r4, r1
 958:Drivers/STM32F0xx_HAL_Driver/Src/stm32f0xx_hal_pcd.c ****   PCD_EPTypeDef *ep;
 2557              		.loc 1 958 3 is_stmt 1 view .LVU542
 959:Drivers/STM32F0xx_HAL_Driver/Src/stm32f0xx_hal_pcd.c ****    
 960:Drivers/STM32F0xx_HAL_Driver/Src/stm32f0xx_hal_pcd.c ****   __HAL_LOCK(hpcd); 
 2558              		.loc 1 960 3 view .LVU543
 2559              		.loc 1 960 3 view .LVU544
 2560 0004 F423     		movs	r3, #244
 2561 0006 5B00     		lsls	r3, r3, #1
 2562 0008 C35C     		ldrb	r3, [r0, r3]
 2563 000a 012B     		cmp	r3, #1
 2564 000c 4FD0     		beq	.L122
ARM GAS  /tmp/ccwMzrYy.s 			page 67


 2565              		.loc 1 960 3 discriminator 2 view .LVU545
 2566 000e F423     		movs	r3, #244
 2567 0010 5B00     		lsls	r3, r3, #1
 2568 0012 0122     		movs	r2, #1
 2569 0014 C254     		strb	r2, [r0, r3]
 961:Drivers/STM32F0xx_HAL_Driver/Src/stm32f0xx_hal_pcd.c ****    
 962:Drivers/STM32F0xx_HAL_Driver/Src/stm32f0xx_hal_pcd.c ****   if ((0x80U & ep_addr) == 0x80U)
 2570              		.loc 1 962 3 discriminator 2 view .LVU546
 2571              		.loc 1 962 25 is_stmt 0 discriminator 2 view .LVU547
 2572 0016 4AB2     		sxtb	r2, r1
 2573              		.loc 1 962 6 discriminator 2 view .LVU548
 2574 0018 002A     		cmp	r2, #0
 2575 001a 21DB     		blt	.L123
 963:Drivers/STM32F0xx_HAL_Driver/Src/stm32f0xx_hal_pcd.c ****   {
 964:Drivers/STM32F0xx_HAL_Driver/Src/stm32f0xx_hal_pcd.c ****     ep = &hpcd->IN_ep[ep_addr & 0x7FU];
 965:Drivers/STM32F0xx_HAL_Driver/Src/stm32f0xx_hal_pcd.c ****   }
 966:Drivers/STM32F0xx_HAL_Driver/Src/stm32f0xx_hal_pcd.c ****   else
 967:Drivers/STM32F0xx_HAL_Driver/Src/stm32f0xx_hal_pcd.c ****   {
 968:Drivers/STM32F0xx_HAL_Driver/Src/stm32f0xx_hal_pcd.c ****     ep = &hpcd->OUT_ep[ep_addr];
 2576              		.loc 1 968 5 is_stmt 1 view .LVU549
 2577              		.loc 1 968 8 is_stmt 0 view .LVU550
 2578 001c CB00     		lsls	r3, r1, #3
 2579 001e 5B1A     		subs	r3, r3, r1
 2580 0020 9B00     		lsls	r3, r3, #2
 2581 0022 0933     		adds	r3, r3, #9
 2582 0024 FF33     		adds	r3, r3, #255
 2583 0026 C318     		adds	r3, r0, r3
 2584              	.LVL178:
 2585              	.L118:
 969:Drivers/STM32F0xx_HAL_Driver/Src/stm32f0xx_hal_pcd.c ****   }
 970:Drivers/STM32F0xx_HAL_Driver/Src/stm32f0xx_hal_pcd.c ****   
 971:Drivers/STM32F0xx_HAL_Driver/Src/stm32f0xx_hal_pcd.c ****   ep->is_stall = 1;
 2586              		.loc 1 971 3 is_stmt 1 view .LVU551
 2587              		.loc 1 971 16 is_stmt 0 view .LVU552
 2588 0028 0121     		movs	r1, #1
 2589 002a 9970     		strb	r1, [r3, #2]
 972:Drivers/STM32F0xx_HAL_Driver/Src/stm32f0xx_hal_pcd.c ****   ep->num   = ep_addr & 0x7FU;
 2590              		.loc 1 972 3 is_stmt 1 view .LVU553
 2591              		.loc 1 972 23 is_stmt 0 view .LVU554
 2592 002c 7E31     		adds	r1, r1, #126
 2593 002e 2140     		ands	r1, r4
 2594              		.loc 1 972 13 view .LVU555
 2595 0030 1970     		strb	r1, [r3]
 973:Drivers/STM32F0xx_HAL_Driver/Src/stm32f0xx_hal_pcd.c ****   ep->is_in = ((ep_addr & 0x80U) == 0x80U);
 2596              		.loc 1 973 3 is_stmt 1 view .LVU556
 2597              		.loc 1 973 34 is_stmt 0 view .LVU557
 2598 0032 D20F     		lsrs	r2, r2, #31
 2599              	.LVL179:
 2600              		.loc 1 973 13 view .LVU558
 2601 0034 5A70     		strb	r2, [r3, #1]
 974:Drivers/STM32F0xx_HAL_Driver/Src/stm32f0xx_hal_pcd.c ****   
 975:Drivers/STM32F0xx_HAL_Driver/Src/stm32f0xx_hal_pcd.c ****   if (ep->num == 0U)
 2602              		.loc 1 975 3 is_stmt 1 view .LVU559
 2603              		.loc 1 975 6 is_stmt 0 view .LVU560
 2604 0036 0029     		cmp	r1, #0
 2605 0038 1AD1     		bne	.L119
 2606              	.LBB29:
ARM GAS  /tmp/ccwMzrYy.s 			page 68


 976:Drivers/STM32F0xx_HAL_Driver/Src/stm32f0xx_hal_pcd.c ****   {
 977:Drivers/STM32F0xx_HAL_Driver/Src/stm32f0xx_hal_pcd.c ****     /* This macro sets STALL status for RX & TX*/ 
 978:Drivers/STM32F0xx_HAL_Driver/Src/stm32f0xx_hal_pcd.c ****     PCD_SET_EP_TXRX_STATUS(hpcd->Instance, ep->num, USB_EP_RX_STALL, USB_EP_TX_STALL)
 2607              		.loc 1 978 5 is_stmt 1 view .LVU561
 2608              		.loc 1 978 5 view .LVU562
 2609 003a 8900     		lsls	r1, r1, #2
 2610 003c 0368     		ldr	r3, [r0]
 2611              	.LVL180:
 2612              		.loc 1 978 5 is_stmt 0 view .LVU563
 2613 003e 9C46     		mov	ip, r3
 2614 0040 6144     		add	r1, r1, ip
 2615 0042 0A88     		ldrh	r2, [r1]
 2616              	.LVL181:
 2617              		.loc 1 978 5 is_stmt 1 view .LVU564
 2618              		.loc 1 978 5 view .LVU565
 2619              		.loc 1 978 5 view .LVU566
 2620              		.loc 1 978 5 view .LVU567
 2621              		.loc 1 978 5 view .LVU568
 2622              		.loc 1 978 5 view .LVU569
 2623              		.loc 1 978 5 view .LVU570
 2624 0044 1B4B     		ldr	r3, .L124
 2625 0046 1A40     		ands	r2, r3
 2626              	.LVL182:
 2627              		.loc 1 978 5 is_stmt 0 view .LVU571
 2628 0048 1B4B     		ldr	r3, .L124+4
 2629 004a 5A40     		eors	r2, r3
 2630 004c 1B4B     		ldr	r3, .L124+8
 2631 004e 1343     		orrs	r3, r2
 2632 0050 9BB2     		uxth	r3, r3
 2633 0052 0B80     		strh	r3, [r1]
 2634              	.L120:
 2635              		.loc 1 978 5 view .LVU572
 2636              	.LBE29:
 979:Drivers/STM32F0xx_HAL_Driver/Src/stm32f0xx_hal_pcd.c ****   }
 980:Drivers/STM32F0xx_HAL_Driver/Src/stm32f0xx_hal_pcd.c ****   else
 981:Drivers/STM32F0xx_HAL_Driver/Src/stm32f0xx_hal_pcd.c ****   {
 982:Drivers/STM32F0xx_HAL_Driver/Src/stm32f0xx_hal_pcd.c ****     if (ep->is_in)
 983:Drivers/STM32F0xx_HAL_Driver/Src/stm32f0xx_hal_pcd.c ****     {
 984:Drivers/STM32F0xx_HAL_Driver/Src/stm32f0xx_hal_pcd.c ****       PCD_SET_EP_TX_STATUS(hpcd->Instance, ep->num , USB_EP_TX_STALL)
 985:Drivers/STM32F0xx_HAL_Driver/Src/stm32f0xx_hal_pcd.c ****     }
 986:Drivers/STM32F0xx_HAL_Driver/Src/stm32f0xx_hal_pcd.c ****     else
 987:Drivers/STM32F0xx_HAL_Driver/Src/stm32f0xx_hal_pcd.c ****     {
 988:Drivers/STM32F0xx_HAL_Driver/Src/stm32f0xx_hal_pcd.c ****       PCD_SET_EP_RX_STATUS(hpcd->Instance, ep->num , USB_EP_RX_STALL)
 989:Drivers/STM32F0xx_HAL_Driver/Src/stm32f0xx_hal_pcd.c ****     }
 990:Drivers/STM32F0xx_HAL_Driver/Src/stm32f0xx_hal_pcd.c ****   }
 991:Drivers/STM32F0xx_HAL_Driver/Src/stm32f0xx_hal_pcd.c ****   __HAL_UNLOCK(hpcd); 
 2637              		.loc 1 991 3 is_stmt 1 view .LVU573
 2638              		.loc 1 991 3 view .LVU574
 2639 0054 F423     		movs	r3, #244
 2640 0056 5B00     		lsls	r3, r3, #1
 2641 0058 0022     		movs	r2, #0
 2642 005a C254     		strb	r2, [r0, r3]
 992:Drivers/STM32F0xx_HAL_Driver/Src/stm32f0xx_hal_pcd.c ****   
 993:Drivers/STM32F0xx_HAL_Driver/Src/stm32f0xx_hal_pcd.c ****   return HAL_OK;
 2643              		.loc 1 993 3 view .LVU575
 2644              		.loc 1 993 10 is_stmt 0 view .LVU576
 2645 005c 0020     		movs	r0, #0
ARM GAS  /tmp/ccwMzrYy.s 			page 69


 2646              	.LVL183:
 2647              	.L116:
 994:Drivers/STM32F0xx_HAL_Driver/Src/stm32f0xx_hal_pcd.c **** }
 2648              		.loc 1 994 1 view .LVU577
 2649              		@ sp needed
 2650 005e 10BD     		pop	{r4, pc}
 2651              	.LVL184:
 2652              	.L123:
 964:Drivers/STM32F0xx_HAL_Driver/Src/stm32f0xx_hal_pcd.c ****   }
 2653              		.loc 1 964 5 is_stmt 1 view .LVU578
 964:Drivers/STM32F0xx_HAL_Driver/Src/stm32f0xx_hal_pcd.c ****   }
 2654              		.loc 1 964 31 is_stmt 0 view .LVU579
 2655 0060 7F21     		movs	r1, #127
 2656              	.LVL185:
 964:Drivers/STM32F0xx_HAL_Driver/Src/stm32f0xx_hal_pcd.c ****   }
 2657              		.loc 1 964 31 view .LVU580
 2658 0062 2140     		ands	r1, r4
 964:Drivers/STM32F0xx_HAL_Driver/Src/stm32f0xx_hal_pcd.c ****   }
 2659              		.loc 1 964 8 view .LVU581
 2660 0064 CB00     		lsls	r3, r1, #3
 2661 0066 5B1A     		subs	r3, r3, r1
 2662 0068 9B00     		lsls	r3, r3, #2
 2663 006a 2833     		adds	r3, r3, #40
 2664 006c C318     		adds	r3, r0, r3
 2665              	.LVL186:
 964:Drivers/STM32F0xx_HAL_Driver/Src/stm32f0xx_hal_pcd.c ****   }
 2666              		.loc 1 964 8 view .LVU582
 2667 006e DBE7     		b	.L118
 2668              	.LVL187:
 2669              	.L119:
 982:Drivers/STM32F0xx_HAL_Driver/Src/stm32f0xx_hal_pcd.c ****     {
 2670              		.loc 1 982 5 is_stmt 1 view .LVU583
 982:Drivers/STM32F0xx_HAL_Driver/Src/stm32f0xx_hal_pcd.c ****     {
 2671              		.loc 1 982 8 is_stmt 0 view .LVU584
 2672 0070 002A     		cmp	r2, #0
 2673 0072 0DD0     		beq	.L121
 2674              	.LBB30:
 984:Drivers/STM32F0xx_HAL_Driver/Src/stm32f0xx_hal_pcd.c ****     }
 2675              		.loc 1 984 7 is_stmt 1 view .LVU585
 984:Drivers/STM32F0xx_HAL_Driver/Src/stm32f0xx_hal_pcd.c ****     }
 2676              		.loc 1 984 7 view .LVU586
 2677 0074 8900     		lsls	r1, r1, #2
 2678 0076 0368     		ldr	r3, [r0]
 2679              	.LVL188:
 984:Drivers/STM32F0xx_HAL_Driver/Src/stm32f0xx_hal_pcd.c ****     }
 2680              		.loc 1 984 7 is_stmt 0 view .LVU587
 2681 0078 9C46     		mov	ip, r3
 2682 007a 6144     		add	r1, r1, ip
 2683 007c 0B88     		ldrh	r3, [r1]
 2684 007e 104A     		ldr	r2, .L124+12
 2685 0080 1340     		ands	r3, r2
 2686              	.LVL189:
 984:Drivers/STM32F0xx_HAL_Driver/Src/stm32f0xx_hal_pcd.c ****     }
 2687              		.loc 1 984 7 is_stmt 1 view .LVU588
 984:Drivers/STM32F0xx_HAL_Driver/Src/stm32f0xx_hal_pcd.c ****     }
 2688              		.loc 1 984 7 view .LVU589
 2689 0082 1022     		movs	r2, #16
ARM GAS  /tmp/ccwMzrYy.s 			page 70


 2690 0084 5A40     		eors	r2, r3
 2691              	.LVL190:
 984:Drivers/STM32F0xx_HAL_Driver/Src/stm32f0xx_hal_pcd.c ****     }
 2692              		.loc 1 984 7 view .LVU590
 984:Drivers/STM32F0xx_HAL_Driver/Src/stm32f0xx_hal_pcd.c ****     }
 2693              		.loc 1 984 7 view .LVU591
 2694 0086 0D4B     		ldr	r3, .L124+8
 2695 0088 1343     		orrs	r3, r2
 2696 008a 9BB2     		uxth	r3, r3
 2697 008c 0B80     		strh	r3, [r1]
 2698              	.LBE30:
 2699 008e E1E7     		b	.L120
 2700              	.LVL191:
 2701              	.L121:
 2702              	.LBB31:
 988:Drivers/STM32F0xx_HAL_Driver/Src/stm32f0xx_hal_pcd.c ****     }
 2703              		.loc 1 988 7 view .LVU592
 988:Drivers/STM32F0xx_HAL_Driver/Src/stm32f0xx_hal_pcd.c ****     }
 2704              		.loc 1 988 7 view .LVU593
 2705 0090 8900     		lsls	r1, r1, #2
 2706 0092 0368     		ldr	r3, [r0]
 2707              	.LVL192:
 988:Drivers/STM32F0xx_HAL_Driver/Src/stm32f0xx_hal_pcd.c ****     }
 2708              		.loc 1 988 7 is_stmt 0 view .LVU594
 2709 0094 9C46     		mov	ip, r3
 2710 0096 6144     		add	r1, r1, ip
 2711 0098 0A88     		ldrh	r2, [r1]
 2712 009a 0A4B     		ldr	r3, .L124+16
 2713 009c 1A40     		ands	r2, r3
 2714              	.LVL193:
 988:Drivers/STM32F0xx_HAL_Driver/Src/stm32f0xx_hal_pcd.c ****     }
 2715              		.loc 1 988 7 is_stmt 1 view .LVU595
 988:Drivers/STM32F0xx_HAL_Driver/Src/stm32f0xx_hal_pcd.c ****     }
 2716              		.loc 1 988 7 view .LVU596
 2717 009e 8023     		movs	r3, #128
 2718 00a0 5B01     		lsls	r3, r3, #5
 2719 00a2 5A40     		eors	r2, r3
 2720              	.LVL194:
 988:Drivers/STM32F0xx_HAL_Driver/Src/stm32f0xx_hal_pcd.c ****     }
 2721              		.loc 1 988 7 view .LVU597
 988:Drivers/STM32F0xx_HAL_Driver/Src/stm32f0xx_hal_pcd.c ****     }
 2722              		.loc 1 988 7 view .LVU598
 2723 00a4 054B     		ldr	r3, .L124+8
 2724 00a6 1343     		orrs	r3, r2
 2725 00a8 9BB2     		uxth	r3, r3
 2726 00aa 0B80     		strh	r3, [r1]
 2727 00ac D2E7     		b	.L120
 2728              	.LVL195:
 2729              	.L122:
 988:Drivers/STM32F0xx_HAL_Driver/Src/stm32f0xx_hal_pcd.c ****     }
 2730              		.loc 1 988 7 is_stmt 0 view .LVU599
 2731              	.LBE31:
 960:Drivers/STM32F0xx_HAL_Driver/Src/stm32f0xx_hal_pcd.c ****    
 2732              		.loc 1 960 3 view .LVU600
 2733 00ae 0220     		movs	r0, #2
 2734              	.LVL196:
 960:Drivers/STM32F0xx_HAL_Driver/Src/stm32f0xx_hal_pcd.c ****    
ARM GAS  /tmp/ccwMzrYy.s 			page 71


 2735              		.loc 1 960 3 view .LVU601
 2736 00b0 D5E7     		b	.L116
 2737              	.L125:
 2738 00b2 C046     		.align	2
 2739              	.L124:
 2740 00b4 BFBFFFFF 		.word	-16449
 2741 00b8 10100000 		.word	4112
 2742 00bc 8080FFFF 		.word	-32640
 2743 00c0 BF8FFFFF 		.word	-28737
 2744 00c4 8FBFFFFF 		.word	-16497
 2745              		.cfi_endproc
 2746              	.LFE63:
 2748              		.section	.text.HAL_PCD_EP_ClrStall,"ax",%progbits
 2749              		.align	1
 2750              		.global	HAL_PCD_EP_ClrStall
 2751              		.syntax unified
 2752              		.code	16
 2753              		.thumb_func
 2754              		.fpu softvfp
 2756              	HAL_PCD_EP_ClrStall:
 2757              	.LVL197:
 2758              	.LFB64:
 995:Drivers/STM32F0xx_HAL_Driver/Src/stm32f0xx_hal_pcd.c **** 
 996:Drivers/STM32F0xx_HAL_Driver/Src/stm32f0xx_hal_pcd.c **** /**
 997:Drivers/STM32F0xx_HAL_Driver/Src/stm32f0xx_hal_pcd.c ****   * @brief  Clear a STALL condition over in an endpoint
 998:Drivers/STM32F0xx_HAL_Driver/Src/stm32f0xx_hal_pcd.c ****   * @param  hpcd PCD handle
 999:Drivers/STM32F0xx_HAL_Driver/Src/stm32f0xx_hal_pcd.c ****   * @param  ep_addr endpoint address
1000:Drivers/STM32F0xx_HAL_Driver/Src/stm32f0xx_hal_pcd.c ****   * @retval HAL status
1001:Drivers/STM32F0xx_HAL_Driver/Src/stm32f0xx_hal_pcd.c ****   */
1002:Drivers/STM32F0xx_HAL_Driver/Src/stm32f0xx_hal_pcd.c **** HAL_StatusTypeDef HAL_PCD_EP_ClrStall(PCD_HandleTypeDef *hpcd, uint8_t ep_addr)
1003:Drivers/STM32F0xx_HAL_Driver/Src/stm32f0xx_hal_pcd.c **** {
 2759              		.loc 1 1003 1 is_stmt 1 view -0
 2760              		.cfi_startproc
 2761              		@ args = 0, pretend = 0, frame = 0
 2762              		@ frame_needed = 0, uses_anonymous_args = 0
 2763              		.loc 1 1003 1 is_stmt 0 view .LVU603
 2764 0000 10B5     		push	{r4, lr}
 2765              	.LCFI9:
 2766              		.cfi_def_cfa_offset 8
 2767              		.cfi_offset 4, -8
 2768              		.cfi_offset 14, -4
 2769 0002 0C00     		movs	r4, r1
1004:Drivers/STM32F0xx_HAL_Driver/Src/stm32f0xx_hal_pcd.c ****   PCD_EPTypeDef *ep;
 2770              		.loc 1 1004 3 is_stmt 1 view .LVU604
1005:Drivers/STM32F0xx_HAL_Driver/Src/stm32f0xx_hal_pcd.c ****   
1006:Drivers/STM32F0xx_HAL_Driver/Src/stm32f0xx_hal_pcd.c ****   if ((0x80U & ep_addr) == 0x80U)
 2771              		.loc 1 1006 3 view .LVU605
 2772              		.loc 1 1006 25 is_stmt 0 view .LVU606
 2773 0004 4AB2     		sxtb	r2, r1
 2774              		.loc 1 1006 6 view .LVU607
 2775 0006 002A     		cmp	r2, #0
 2776 0008 3BDB     		blt	.L135
1007:Drivers/STM32F0xx_HAL_Driver/Src/stm32f0xx_hal_pcd.c ****   {
1008:Drivers/STM32F0xx_HAL_Driver/Src/stm32f0xx_hal_pcd.c ****     ep = &hpcd->IN_ep[ep_addr & 0x7FU];
1009:Drivers/STM32F0xx_HAL_Driver/Src/stm32f0xx_hal_pcd.c ****   }
1010:Drivers/STM32F0xx_HAL_Driver/Src/stm32f0xx_hal_pcd.c ****   else
1011:Drivers/STM32F0xx_HAL_Driver/Src/stm32f0xx_hal_pcd.c ****   {
ARM GAS  /tmp/ccwMzrYy.s 			page 72


1012:Drivers/STM32F0xx_HAL_Driver/Src/stm32f0xx_hal_pcd.c ****     ep = &hpcd->OUT_ep[ep_addr];
 2777              		.loc 1 1012 5 is_stmt 1 view .LVU608
 2778              		.loc 1 1012 8 is_stmt 0 view .LVU609
 2779 000a CB00     		lsls	r3, r1, #3
 2780 000c 5B1A     		subs	r3, r3, r1
 2781 000e 9B00     		lsls	r3, r3, #2
 2782 0010 0933     		adds	r3, r3, #9
 2783 0012 FF33     		adds	r3, r3, #255
 2784 0014 C318     		adds	r3, r0, r3
 2785              	.LVL198:
 2786              	.L128:
1013:Drivers/STM32F0xx_HAL_Driver/Src/stm32f0xx_hal_pcd.c ****   }
1014:Drivers/STM32F0xx_HAL_Driver/Src/stm32f0xx_hal_pcd.c ****   
1015:Drivers/STM32F0xx_HAL_Driver/Src/stm32f0xx_hal_pcd.c ****   ep->is_stall = 0U;
 2787              		.loc 1 1015 3 is_stmt 1 view .LVU610
 2788              		.loc 1 1015 16 is_stmt 0 view .LVU611
 2789 0016 0021     		movs	r1, #0
 2790 0018 9970     		strb	r1, [r3, #2]
1016:Drivers/STM32F0xx_HAL_Driver/Src/stm32f0xx_hal_pcd.c ****   ep->num   = ep_addr & 0x7FU;
 2791              		.loc 1 1016 3 is_stmt 1 view .LVU612
 2792              		.loc 1 1016 23 is_stmt 0 view .LVU613
 2793 001a 7F31     		adds	r1, r1, #127
 2794 001c 2140     		ands	r1, r4
 2795              		.loc 1 1016 13 view .LVU614
 2796 001e 1970     		strb	r1, [r3]
1017:Drivers/STM32F0xx_HAL_Driver/Src/stm32f0xx_hal_pcd.c ****   ep->is_in = ((ep_addr & 0x80U) == 0x80U);
 2797              		.loc 1 1017 3 is_stmt 1 view .LVU615
 2798              		.loc 1 1017 34 is_stmt 0 view .LVU616
 2799 0020 D20F     		lsrs	r2, r2, #31
 2800              	.LVL199:
 2801              		.loc 1 1017 13 view .LVU617
 2802 0022 5A70     		strb	r2, [r3, #1]
1018:Drivers/STM32F0xx_HAL_Driver/Src/stm32f0xx_hal_pcd.c ****   
1019:Drivers/STM32F0xx_HAL_Driver/Src/stm32f0xx_hal_pcd.c ****   __HAL_LOCK(hpcd); 
 2803              		.loc 1 1019 3 is_stmt 1 view .LVU618
 2804              		.loc 1 1019 3 view .LVU619
 2805 0024 F422     		movs	r2, #244
 2806 0026 5200     		lsls	r2, r2, #1
 2807 0028 825C     		ldrb	r2, [r0, r2]
 2808 002a 012A     		cmp	r2, #1
 2809 002c 50D0     		beq	.L134
 2810              		.loc 1 1019 3 discriminator 2 view .LVU620
 2811 002e F422     		movs	r2, #244
 2812 0030 5200     		lsls	r2, r2, #1
 2813 0032 0121     		movs	r1, #1
 2814 0034 8154     		strb	r1, [r0, r2]
1020:Drivers/STM32F0xx_HAL_Driver/Src/stm32f0xx_hal_pcd.c ****   
1021:Drivers/STM32F0xx_HAL_Driver/Src/stm32f0xx_hal_pcd.c ****   if (ep->is_in)
 2815              		.loc 1 1021 3 discriminator 2 view .LVU621
 2816              		.loc 1 1021 9 is_stmt 0 discriminator 2 view .LVU622
 2817 0036 5A78     		ldrb	r2, [r3, #1]
 2818              		.loc 1 1021 6 discriminator 2 view .LVU623
 2819 0038 002A     		cmp	r2, #0
 2820 003a 2AD0     		beq	.L130
1022:Drivers/STM32F0xx_HAL_Driver/Src/stm32f0xx_hal_pcd.c ****   {
1023:Drivers/STM32F0xx_HAL_Driver/Src/stm32f0xx_hal_pcd.c ****     PCD_CLEAR_TX_DTOG(hpcd->Instance, ep->num)
 2821              		.loc 1 1023 5 is_stmt 1 view .LVU624
ARM GAS  /tmp/ccwMzrYy.s 			page 73


 2822 003c 1A78     		ldrb	r2, [r3]
 2823 003e 9200     		lsls	r2, r2, #2
 2824 0040 0168     		ldr	r1, [r0]
 2825 0042 8C46     		mov	ip, r1
 2826 0044 6244     		add	r2, r2, ip
 2827 0046 1188     		ldrh	r1, [r2]
 2828 0048 4906     		lsls	r1, r1, #25
 2829 004a 06D5     		bpl	.L131
 2830              		.loc 1 1023 5 discriminator 1 view .LVU625
 2831 004c 1188     		ldrh	r1, [r2]
 2832 004e 214C     		ldr	r4, .L136
 2833 0050 0C40     		ands	r4, r1
 2834 0052 2149     		ldr	r1, .L136+4
 2835 0054 2143     		orrs	r1, r4
 2836 0056 89B2     		uxth	r1, r1
 2837 0058 1180     		strh	r1, [r2]
 2838              	.L131:
 2839              	.LBB32:
1024:Drivers/STM32F0xx_HAL_Driver/Src/stm32f0xx_hal_pcd.c ****     PCD_SET_EP_TX_STATUS(hpcd->Instance, ep->num, USB_EP_TX_VALID)
 2840              		.loc 1 1024 5 view .LVU626
 2841              		.loc 1 1024 5 view .LVU627
 2842 005a 1978     		ldrb	r1, [r3]
 2843 005c 8900     		lsls	r1, r1, #2
 2844 005e 0368     		ldr	r3, [r0]
 2845              	.LVL200:
 2846              		.loc 1 1024 5 is_stmt 0 view .LVU628
 2847 0060 9C46     		mov	ip, r3
 2848 0062 6144     		add	r1, r1, ip
 2849 0064 0B88     		ldrh	r3, [r1]
 2850 0066 1D4A     		ldr	r2, .L136+8
 2851 0068 1340     		ands	r3, r2
 2852              	.LVL201:
 2853              		.loc 1 1024 5 is_stmt 1 view .LVU629
 2854              		.loc 1 1024 5 view .LVU630
 2855              		.loc 1 1024 5 view .LVU631
 2856              		.loc 1 1024 5 view .LVU632
 2857 006a 3022     		movs	r2, #48
 2858 006c 5A40     		eors	r2, r3
 2859              	.LVL202:
 2860              		.loc 1 1024 5 view .LVU633
 2861 006e 1C4B     		ldr	r3, .L136+12
 2862 0070 1343     		orrs	r3, r2
 2863 0072 9BB2     		uxth	r3, r3
 2864 0074 0B80     		strh	r3, [r1]
 2865              	.LVL203:
 2866              	.L132:
 2867              		.loc 1 1024 5 is_stmt 0 view .LVU634
 2868              	.LBE32:
1025:Drivers/STM32F0xx_HAL_Driver/Src/stm32f0xx_hal_pcd.c ****   }
1026:Drivers/STM32F0xx_HAL_Driver/Src/stm32f0xx_hal_pcd.c ****   else
1027:Drivers/STM32F0xx_HAL_Driver/Src/stm32f0xx_hal_pcd.c ****   {
1028:Drivers/STM32F0xx_HAL_Driver/Src/stm32f0xx_hal_pcd.c ****     PCD_CLEAR_RX_DTOG(hpcd->Instance, ep->num)
1029:Drivers/STM32F0xx_HAL_Driver/Src/stm32f0xx_hal_pcd.c ****     PCD_SET_EP_RX_STATUS(hpcd->Instance, ep->num, USB_EP_RX_VALID)
1030:Drivers/STM32F0xx_HAL_Driver/Src/stm32f0xx_hal_pcd.c ****   }
1031:Drivers/STM32F0xx_HAL_Driver/Src/stm32f0xx_hal_pcd.c ****   __HAL_UNLOCK(hpcd); 
 2869              		.loc 1 1031 3 is_stmt 1 view .LVU635
 2870              		.loc 1 1031 3 view .LVU636
ARM GAS  /tmp/ccwMzrYy.s 			page 74


 2871 0076 F423     		movs	r3, #244
 2872 0078 5B00     		lsls	r3, r3, #1
 2873 007a 0022     		movs	r2, #0
 2874 007c C254     		strb	r2, [r0, r3]
1032:Drivers/STM32F0xx_HAL_Driver/Src/stm32f0xx_hal_pcd.c ****     
1033:Drivers/STM32F0xx_HAL_Driver/Src/stm32f0xx_hal_pcd.c ****   return HAL_OK;
 2875              		.loc 1 1033 3 view .LVU637
 2876              		.loc 1 1033 10 is_stmt 0 view .LVU638
 2877 007e 0020     		movs	r0, #0
 2878              	.LVL204:
 2879              	.L129:
1034:Drivers/STM32F0xx_HAL_Driver/Src/stm32f0xx_hal_pcd.c **** }
 2880              		.loc 1 1034 1 view .LVU639
 2881              		@ sp needed
 2882 0080 10BD     		pop	{r4, pc}
 2883              	.LVL205:
 2884              	.L135:
1008:Drivers/STM32F0xx_HAL_Driver/Src/stm32f0xx_hal_pcd.c ****   }
 2885              		.loc 1 1008 5 is_stmt 1 view .LVU640
1008:Drivers/STM32F0xx_HAL_Driver/Src/stm32f0xx_hal_pcd.c ****   }
 2886              		.loc 1 1008 31 is_stmt 0 view .LVU641
 2887 0082 7F21     		movs	r1, #127
 2888              	.LVL206:
1008:Drivers/STM32F0xx_HAL_Driver/Src/stm32f0xx_hal_pcd.c ****   }
 2889              		.loc 1 1008 31 view .LVU642
 2890 0084 2140     		ands	r1, r4
1008:Drivers/STM32F0xx_HAL_Driver/Src/stm32f0xx_hal_pcd.c ****   }
 2891              		.loc 1 1008 8 view .LVU643
 2892 0086 CB00     		lsls	r3, r1, #3
 2893 0088 5B1A     		subs	r3, r3, r1
 2894 008a 9B00     		lsls	r3, r3, #2
 2895 008c 2833     		adds	r3, r3, #40
 2896 008e C318     		adds	r3, r0, r3
 2897              	.LVL207:
1008:Drivers/STM32F0xx_HAL_Driver/Src/stm32f0xx_hal_pcd.c ****   }
 2898              		.loc 1 1008 8 view .LVU644
 2899 0090 C1E7     		b	.L128
 2900              	.LVL208:
 2901              	.L130:
1028:Drivers/STM32F0xx_HAL_Driver/Src/stm32f0xx_hal_pcd.c ****     PCD_SET_EP_RX_STATUS(hpcd->Instance, ep->num, USB_EP_RX_VALID)
 2902              		.loc 1 1028 5 is_stmt 1 view .LVU645
 2903 0092 1A78     		ldrb	r2, [r3]
 2904 0094 9200     		lsls	r2, r2, #2
 2905 0096 0168     		ldr	r1, [r0]
 2906 0098 8C46     		mov	ip, r1
 2907 009a 6244     		add	r2, r2, ip
 2908 009c 1188     		ldrh	r1, [r2]
 2909 009e 4904     		lsls	r1, r1, #17
 2910 00a0 06D5     		bpl	.L133
1028:Drivers/STM32F0xx_HAL_Driver/Src/stm32f0xx_hal_pcd.c ****     PCD_SET_EP_RX_STATUS(hpcd->Instance, ep->num, USB_EP_RX_VALID)
 2911              		.loc 1 1028 5 discriminator 1 view .LVU646
 2912 00a2 1188     		ldrh	r1, [r2]
 2913 00a4 0B4C     		ldr	r4, .L136
 2914 00a6 0C40     		ands	r4, r1
 2915 00a8 0E49     		ldr	r1, .L136+16
 2916 00aa 2143     		orrs	r1, r4
 2917 00ac 89B2     		uxth	r1, r1
ARM GAS  /tmp/ccwMzrYy.s 			page 75


 2918 00ae 1180     		strh	r1, [r2]
 2919              	.L133:
 2920              	.LBB33:
1029:Drivers/STM32F0xx_HAL_Driver/Src/stm32f0xx_hal_pcd.c ****   }
 2921              		.loc 1 1029 5 view .LVU647
1029:Drivers/STM32F0xx_HAL_Driver/Src/stm32f0xx_hal_pcd.c ****   }
 2922              		.loc 1 1029 5 view .LVU648
 2923 00b0 1A78     		ldrb	r2, [r3]
 2924 00b2 9200     		lsls	r2, r2, #2
 2925 00b4 0368     		ldr	r3, [r0]
 2926              	.LVL209:
1029:Drivers/STM32F0xx_HAL_Driver/Src/stm32f0xx_hal_pcd.c ****   }
 2927              		.loc 1 1029 5 is_stmt 0 view .LVU649
 2928 00b6 9C46     		mov	ip, r3
 2929 00b8 6244     		add	r2, r2, ip
 2930 00ba 1188     		ldrh	r1, [r2]
 2931 00bc 0A4B     		ldr	r3, .L136+20
 2932 00be 1940     		ands	r1, r3
 2933              	.LVL210:
1029:Drivers/STM32F0xx_HAL_Driver/Src/stm32f0xx_hal_pcd.c ****   }
 2934              		.loc 1 1029 5 is_stmt 1 view .LVU650
1029:Drivers/STM32F0xx_HAL_Driver/Src/stm32f0xx_hal_pcd.c ****   }
 2935              		.loc 1 1029 5 view .LVU651
1029:Drivers/STM32F0xx_HAL_Driver/Src/stm32f0xx_hal_pcd.c ****   }
 2936              		.loc 1 1029 5 view .LVU652
1029:Drivers/STM32F0xx_HAL_Driver/Src/stm32f0xx_hal_pcd.c ****   }
 2937              		.loc 1 1029 5 view .LVU653
 2938 00c0 C023     		movs	r3, #192
 2939 00c2 9B01     		lsls	r3, r3, #6
 2940 00c4 5940     		eors	r1, r3
 2941              	.LVL211:
1029:Drivers/STM32F0xx_HAL_Driver/Src/stm32f0xx_hal_pcd.c ****   }
 2942              		.loc 1 1029 5 view .LVU654
 2943 00c6 064B     		ldr	r3, .L136+12
 2944 00c8 0B43     		orrs	r3, r1
 2945 00ca 9BB2     		uxth	r3, r3
 2946 00cc 1380     		strh	r3, [r2]
 2947 00ce D2E7     		b	.L132
 2948              	.LVL212:
 2949              	.L134:
1029:Drivers/STM32F0xx_HAL_Driver/Src/stm32f0xx_hal_pcd.c ****   }
 2950              		.loc 1 1029 5 is_stmt 0 view .LVU655
 2951              	.LBE33:
1019:Drivers/STM32F0xx_HAL_Driver/Src/stm32f0xx_hal_pcd.c ****   
 2952              		.loc 1 1019 3 view .LVU656
 2953 00d0 0220     		movs	r0, #2
 2954              	.LVL213:
1019:Drivers/STM32F0xx_HAL_Driver/Src/stm32f0xx_hal_pcd.c ****   
 2955              		.loc 1 1019 3 view .LVU657
 2956 00d2 D5E7     		b	.L129
 2957              	.L137:
 2958              		.align	2
 2959              	.L136:
 2960 00d4 0F0F0000 		.word	3855
 2961 00d8 C080FFFF 		.word	-32576
 2962 00dc BF8FFFFF 		.word	-28737
 2963 00e0 8080FFFF 		.word	-32640
ARM GAS  /tmp/ccwMzrYy.s 			page 76


 2964 00e4 80C0FFFF 		.word	-16256
 2965 00e8 8FBFFFFF 		.word	-16497
 2966              		.cfi_endproc
 2967              	.LFE64:
 2969              		.section	.text.HAL_PCD_EP_Flush,"ax",%progbits
 2970              		.align	1
 2971              		.global	HAL_PCD_EP_Flush
 2972              		.syntax unified
 2973              		.code	16
 2974              		.thumb_func
 2975              		.fpu softvfp
 2977              	HAL_PCD_EP_Flush:
 2978              	.LVL214:
 2979              	.LFB65:
1035:Drivers/STM32F0xx_HAL_Driver/Src/stm32f0xx_hal_pcd.c **** 
1036:Drivers/STM32F0xx_HAL_Driver/Src/stm32f0xx_hal_pcd.c **** /**
1037:Drivers/STM32F0xx_HAL_Driver/Src/stm32f0xx_hal_pcd.c ****   * @brief  Flush an endpoint
1038:Drivers/STM32F0xx_HAL_Driver/Src/stm32f0xx_hal_pcd.c ****   * @param  hpcd PCD handle
1039:Drivers/STM32F0xx_HAL_Driver/Src/stm32f0xx_hal_pcd.c ****   * @param  ep_addr endpoint address
1040:Drivers/STM32F0xx_HAL_Driver/Src/stm32f0xx_hal_pcd.c ****   * @retval HAL status
1041:Drivers/STM32F0xx_HAL_Driver/Src/stm32f0xx_hal_pcd.c ****   */
1042:Drivers/STM32F0xx_HAL_Driver/Src/stm32f0xx_hal_pcd.c **** HAL_StatusTypeDef HAL_PCD_EP_Flush(PCD_HandleTypeDef *hpcd, uint8_t ep_addr)
1043:Drivers/STM32F0xx_HAL_Driver/Src/stm32f0xx_hal_pcd.c **** { 
 2980              		.loc 1 1043 1 is_stmt 1 view -0
 2981              		.cfi_startproc
 2982              		@ args = 0, pretend = 0, frame = 0
 2983              		@ frame_needed = 0, uses_anonymous_args = 0
 2984              		@ link register save eliminated.
1044:Drivers/STM32F0xx_HAL_Driver/Src/stm32f0xx_hal_pcd.c ****   return HAL_OK;
 2985              		.loc 1 1044 3 view .LVU659
1045:Drivers/STM32F0xx_HAL_Driver/Src/stm32f0xx_hal_pcd.c **** }
 2986              		.loc 1 1045 1 is_stmt 0 view .LVU660
 2987 0000 0020     		movs	r0, #0
 2988              	.LVL215:
 2989              		.loc 1 1045 1 view .LVU661
 2990              		@ sp needed
 2991 0002 7047     		bx	lr
 2992              		.cfi_endproc
 2993              	.LFE65:
 2995              		.section	.text.HAL_PCD_ActivateRemoteWakeup,"ax",%progbits
 2996              		.align	1
 2997              		.global	HAL_PCD_ActivateRemoteWakeup
 2998              		.syntax unified
 2999              		.code	16
 3000              		.thumb_func
 3001              		.fpu softvfp
 3003              	HAL_PCD_ActivateRemoteWakeup:
 3004              	.LVL216:
 3005              	.LFB66:
1046:Drivers/STM32F0xx_HAL_Driver/Src/stm32f0xx_hal_pcd.c **** 
1047:Drivers/STM32F0xx_HAL_Driver/Src/stm32f0xx_hal_pcd.c **** /**
1048:Drivers/STM32F0xx_HAL_Driver/Src/stm32f0xx_hal_pcd.c ****   * @brief  HAL_PCD_ActivateRemoteWakeup : active remote wakeup signalling
1049:Drivers/STM32F0xx_HAL_Driver/Src/stm32f0xx_hal_pcd.c **** * @param  hpcd PCD handle
1050:Drivers/STM32F0xx_HAL_Driver/Src/stm32f0xx_hal_pcd.c **** * @retval HAL status
1051:Drivers/STM32F0xx_HAL_Driver/Src/stm32f0xx_hal_pcd.c **** */
1052:Drivers/STM32F0xx_HAL_Driver/Src/stm32f0xx_hal_pcd.c **** HAL_StatusTypeDef HAL_PCD_ActivateRemoteWakeup(PCD_HandleTypeDef *hpcd)
1053:Drivers/STM32F0xx_HAL_Driver/Src/stm32f0xx_hal_pcd.c **** {
ARM GAS  /tmp/ccwMzrYy.s 			page 77


 3006              		.loc 1 1053 1 is_stmt 1 view -0
 3007              		.cfi_startproc
 3008              		@ args = 0, pretend = 0, frame = 0
 3009              		@ frame_needed = 0, uses_anonymous_args = 0
 3010              		@ link register save eliminated.
1054:Drivers/STM32F0xx_HAL_Driver/Src/stm32f0xx_hal_pcd.c ****   if (hpcd->Init.lpm_enable ==1)
 3011              		.loc 1 1054 3 view .LVU663
 3012              		.loc 1 1054 6 is_stmt 0 view .LVU664
 3013 0000 C369     		ldr	r3, [r0, #28]
 3014 0002 012B     		cmp	r3, #1
 3015 0004 07D0     		beq	.L142
1055:Drivers/STM32F0xx_HAL_Driver/Src/stm32f0xx_hal_pcd.c ****   {
1056:Drivers/STM32F0xx_HAL_Driver/Src/stm32f0xx_hal_pcd.c ****     /* Apply L1 Resume */
1057:Drivers/STM32F0xx_HAL_Driver/Src/stm32f0xx_hal_pcd.c ****     hpcd->Instance->CNTR |= USB_CNTR_L1RESUME;
1058:Drivers/STM32F0xx_HAL_Driver/Src/stm32f0xx_hal_pcd.c ****   }
1059:Drivers/STM32F0xx_HAL_Driver/Src/stm32f0xx_hal_pcd.c ****   else
1060:Drivers/STM32F0xx_HAL_Driver/Src/stm32f0xx_hal_pcd.c ****   {
1061:Drivers/STM32F0xx_HAL_Driver/Src/stm32f0xx_hal_pcd.c ****     /* Apply L2 Resume */
1062:Drivers/STM32F0xx_HAL_Driver/Src/stm32f0xx_hal_pcd.c ****     hpcd->Instance->CNTR |= USB_CNTR_RESUME;
 3016              		.loc 1 1062 5 is_stmt 1 view .LVU665
 3017              		.loc 1 1062 9 is_stmt 0 view .LVU666
 3018 0006 0168     		ldr	r1, [r0]
 3019              		.loc 1 1062 26 view .LVU667
 3020 0008 4022     		movs	r2, #64
 3021 000a 8B5A     		ldrh	r3, [r1, r2]
 3022 000c 1020     		movs	r0, #16
 3023              	.LVL217:
 3024              		.loc 1 1062 26 view .LVU668
 3025 000e 0343     		orrs	r3, r0
 3026 0010 8B52     		strh	r3, [r1, r2]
 3027              	.L141:
1063:Drivers/STM32F0xx_HAL_Driver/Src/stm32f0xx_hal_pcd.c ****   }
1064:Drivers/STM32F0xx_HAL_Driver/Src/stm32f0xx_hal_pcd.c ****   
1065:Drivers/STM32F0xx_HAL_Driver/Src/stm32f0xx_hal_pcd.c ****   return (HAL_OK);
 3028              		.loc 1 1065 3 is_stmt 1 view .LVU669
1066:Drivers/STM32F0xx_HAL_Driver/Src/stm32f0xx_hal_pcd.c **** }
 3029              		.loc 1 1066 1 is_stmt 0 view .LVU670
 3030 0012 0020     		movs	r0, #0
 3031              		@ sp needed
 3032 0014 7047     		bx	lr
 3033              	.LVL218:
 3034              	.L142:
1057:Drivers/STM32F0xx_HAL_Driver/Src/stm32f0xx_hal_pcd.c ****   }
 3035              		.loc 1 1057 5 is_stmt 1 view .LVU671
1057:Drivers/STM32F0xx_HAL_Driver/Src/stm32f0xx_hal_pcd.c ****   }
 3036              		.loc 1 1057 9 is_stmt 0 view .LVU672
 3037 0016 0168     		ldr	r1, [r0]
1057:Drivers/STM32F0xx_HAL_Driver/Src/stm32f0xx_hal_pcd.c ****   }
 3038              		.loc 1 1057 26 view .LVU673
 3039 0018 4022     		movs	r2, #64
 3040 001a 8B5A     		ldrh	r3, [r1, r2]
 3041 001c 2020     		movs	r0, #32
 3042              	.LVL219:
1057:Drivers/STM32F0xx_HAL_Driver/Src/stm32f0xx_hal_pcd.c ****   }
 3043              		.loc 1 1057 26 view .LVU674
 3044 001e 0343     		orrs	r3, r0
 3045 0020 8B52     		strh	r3, [r1, r2]
ARM GAS  /tmp/ccwMzrYy.s 			page 78


 3046 0022 F6E7     		b	.L141
 3047              		.cfi_endproc
 3048              	.LFE66:
 3050              		.section	.text.HAL_PCD_DeActivateRemoteWakeup,"ax",%progbits
 3051              		.align	1
 3052              		.global	HAL_PCD_DeActivateRemoteWakeup
 3053              		.syntax unified
 3054              		.code	16
 3055              		.thumb_func
 3056              		.fpu softvfp
 3058              	HAL_PCD_DeActivateRemoteWakeup:
 3059              	.LVL220:
 3060              	.LFB67:
1067:Drivers/STM32F0xx_HAL_Driver/Src/stm32f0xx_hal_pcd.c **** 
1068:Drivers/STM32F0xx_HAL_Driver/Src/stm32f0xx_hal_pcd.c **** /**
1069:Drivers/STM32F0xx_HAL_Driver/Src/stm32f0xx_hal_pcd.c **** * @brief  HAL_PCD_DeActivateRemoteWakeup : de-active remote wakeup signalling
1070:Drivers/STM32F0xx_HAL_Driver/Src/stm32f0xx_hal_pcd.c **** * @param  hpcd PCD handle
1071:Drivers/STM32F0xx_HAL_Driver/Src/stm32f0xx_hal_pcd.c **** * @retval HAL status
1072:Drivers/STM32F0xx_HAL_Driver/Src/stm32f0xx_hal_pcd.c **** */
1073:Drivers/STM32F0xx_HAL_Driver/Src/stm32f0xx_hal_pcd.c **** HAL_StatusTypeDef HAL_PCD_DeActivateRemoteWakeup(PCD_HandleTypeDef *hpcd)
1074:Drivers/STM32F0xx_HAL_Driver/Src/stm32f0xx_hal_pcd.c **** {
 3061              		.loc 1 1074 1 is_stmt 1 view -0
 3062              		.cfi_startproc
 3063              		@ args = 0, pretend = 0, frame = 0
 3064              		@ frame_needed = 0, uses_anonymous_args = 0
 3065              		@ link register save eliminated.
1075:Drivers/STM32F0xx_HAL_Driver/Src/stm32f0xx_hal_pcd.c ****   if (hpcd->Init.lpm_enable ==1)
 3066              		.loc 1 1075 3 view .LVU676
 3067              		.loc 1 1075 6 is_stmt 0 view .LVU677
 3068 0000 C369     		ldr	r3, [r0, #28]
 3069 0002 012B     		cmp	r3, #1
 3070 0004 07D0     		beq	.L146
1076:Drivers/STM32F0xx_HAL_Driver/Src/stm32f0xx_hal_pcd.c ****   {
1077:Drivers/STM32F0xx_HAL_Driver/Src/stm32f0xx_hal_pcd.c ****     /* Release L1 Resume */
1078:Drivers/STM32F0xx_HAL_Driver/Src/stm32f0xx_hal_pcd.c ****     hpcd->Instance->CNTR &= ((uint16_t)(~ USB_CNTR_L1RESUME));
1079:Drivers/STM32F0xx_HAL_Driver/Src/stm32f0xx_hal_pcd.c ****   }
1080:Drivers/STM32F0xx_HAL_Driver/Src/stm32f0xx_hal_pcd.c ****   else
1081:Drivers/STM32F0xx_HAL_Driver/Src/stm32f0xx_hal_pcd.c ****   {
1082:Drivers/STM32F0xx_HAL_Driver/Src/stm32f0xx_hal_pcd.c ****     /* Release L2 Resume */
1083:Drivers/STM32F0xx_HAL_Driver/Src/stm32f0xx_hal_pcd.c ****     hpcd->Instance->CNTR &= ((uint16_t)(~ USB_CNTR_RESUME)) ;
 3071              		.loc 1 1083 5 is_stmt 1 view .LVU678
 3072              		.loc 1 1083 9 is_stmt 0 view .LVU679
 3073 0006 0168     		ldr	r1, [r0]
 3074              		.loc 1 1083 26 view .LVU680
 3075 0008 4022     		movs	r2, #64
 3076 000a 8B5A     		ldrh	r3, [r1, r2]
 3077 000c 1020     		movs	r0, #16
 3078              	.LVL221:
 3079              		.loc 1 1083 26 view .LVU681
 3080 000e 8343     		bics	r3, r0
 3081 0010 8B52     		strh	r3, [r1, r2]
 3082              	.L145:
1084:Drivers/STM32F0xx_HAL_Driver/Src/stm32f0xx_hal_pcd.c ****   }
1085:Drivers/STM32F0xx_HAL_Driver/Src/stm32f0xx_hal_pcd.c ****   
1086:Drivers/STM32F0xx_HAL_Driver/Src/stm32f0xx_hal_pcd.c ****   return (HAL_OK);
 3083              		.loc 1 1086 3 is_stmt 1 view .LVU682
1087:Drivers/STM32F0xx_HAL_Driver/Src/stm32f0xx_hal_pcd.c **** }
ARM GAS  /tmp/ccwMzrYy.s 			page 79


 3084              		.loc 1 1087 1 is_stmt 0 view .LVU683
 3085 0012 0020     		movs	r0, #0
 3086              		@ sp needed
 3087 0014 7047     		bx	lr
 3088              	.LVL222:
 3089              	.L146:
1078:Drivers/STM32F0xx_HAL_Driver/Src/stm32f0xx_hal_pcd.c ****   }
 3090              		.loc 1 1078 5 is_stmt 1 view .LVU684
1078:Drivers/STM32F0xx_HAL_Driver/Src/stm32f0xx_hal_pcd.c ****   }
 3091              		.loc 1 1078 9 is_stmt 0 view .LVU685
 3092 0016 0168     		ldr	r1, [r0]
1078:Drivers/STM32F0xx_HAL_Driver/Src/stm32f0xx_hal_pcd.c ****   }
 3093              		.loc 1 1078 26 view .LVU686
 3094 0018 4022     		movs	r2, #64
 3095 001a 8B5A     		ldrh	r3, [r1, r2]
 3096 001c 2020     		movs	r0, #32
 3097              	.LVL223:
1078:Drivers/STM32F0xx_HAL_Driver/Src/stm32f0xx_hal_pcd.c ****   }
 3098              		.loc 1 1078 26 view .LVU687
 3099 001e 8343     		bics	r3, r0
 3100 0020 8B52     		strh	r3, [r1, r2]
 3101 0022 F6E7     		b	.L145
 3102              		.cfi_endproc
 3103              	.LFE67:
 3105              		.section	.text.HAL_PCD_GetState,"ax",%progbits
 3106              		.align	1
 3107              		.global	HAL_PCD_GetState
 3108              		.syntax unified
 3109              		.code	16
 3110              		.thumb_func
 3111              		.fpu softvfp
 3113              	HAL_PCD_GetState:
 3114              	.LVL224:
 3115              	.LFB68:
1088:Drivers/STM32F0xx_HAL_Driver/Src/stm32f0xx_hal_pcd.c **** /**
1089:Drivers/STM32F0xx_HAL_Driver/Src/stm32f0xx_hal_pcd.c ****   * @}
1090:Drivers/STM32F0xx_HAL_Driver/Src/stm32f0xx_hal_pcd.c ****   */
1091:Drivers/STM32F0xx_HAL_Driver/Src/stm32f0xx_hal_pcd.c **** 
1092:Drivers/STM32F0xx_HAL_Driver/Src/stm32f0xx_hal_pcd.c **** /** @defgroup PCD_Exported_Functions_Group4 Peripheral State functions 
1093:Drivers/STM32F0xx_HAL_Driver/Src/stm32f0xx_hal_pcd.c ****  *  @brief   Peripheral State functions 
1094:Drivers/STM32F0xx_HAL_Driver/Src/stm32f0xx_hal_pcd.c ****  *
1095:Drivers/STM32F0xx_HAL_Driver/Src/stm32f0xx_hal_pcd.c **** @verbatim   
1096:Drivers/STM32F0xx_HAL_Driver/Src/stm32f0xx_hal_pcd.c ****  ===============================================================================
1097:Drivers/STM32F0xx_HAL_Driver/Src/stm32f0xx_hal_pcd.c ****                       ##### Peripheral State functions #####
1098:Drivers/STM32F0xx_HAL_Driver/Src/stm32f0xx_hal_pcd.c ****  ===============================================================================  
1099:Drivers/STM32F0xx_HAL_Driver/Src/stm32f0xx_hal_pcd.c ****     [..]
1100:Drivers/STM32F0xx_HAL_Driver/Src/stm32f0xx_hal_pcd.c ****     This subsection permits to get in run-time the status of the peripheral 
1101:Drivers/STM32F0xx_HAL_Driver/Src/stm32f0xx_hal_pcd.c ****     and the data flow.
1102:Drivers/STM32F0xx_HAL_Driver/Src/stm32f0xx_hal_pcd.c **** 
1103:Drivers/STM32F0xx_HAL_Driver/Src/stm32f0xx_hal_pcd.c **** @endverbatim
1104:Drivers/STM32F0xx_HAL_Driver/Src/stm32f0xx_hal_pcd.c ****   * @{
1105:Drivers/STM32F0xx_HAL_Driver/Src/stm32f0xx_hal_pcd.c ****   */
1106:Drivers/STM32F0xx_HAL_Driver/Src/stm32f0xx_hal_pcd.c **** 
1107:Drivers/STM32F0xx_HAL_Driver/Src/stm32f0xx_hal_pcd.c **** /**
1108:Drivers/STM32F0xx_HAL_Driver/Src/stm32f0xx_hal_pcd.c ****   * @brief  Return the PCD state
1109:Drivers/STM32F0xx_HAL_Driver/Src/stm32f0xx_hal_pcd.c ****   * @param  hpcd PCD handle
1110:Drivers/STM32F0xx_HAL_Driver/Src/stm32f0xx_hal_pcd.c ****   * @retval HAL state
ARM GAS  /tmp/ccwMzrYy.s 			page 80


1111:Drivers/STM32F0xx_HAL_Driver/Src/stm32f0xx_hal_pcd.c ****   */
1112:Drivers/STM32F0xx_HAL_Driver/Src/stm32f0xx_hal_pcd.c **** PCD_StateTypeDef HAL_PCD_GetState(PCD_HandleTypeDef *hpcd)
1113:Drivers/STM32F0xx_HAL_Driver/Src/stm32f0xx_hal_pcd.c **** {
 3116              		.loc 1 1113 1 is_stmt 1 view -0
 3117              		.cfi_startproc
 3118              		@ args = 0, pretend = 0, frame = 0
 3119              		@ frame_needed = 0, uses_anonymous_args = 0
 3120              		@ link register save eliminated.
1114:Drivers/STM32F0xx_HAL_Driver/Src/stm32f0xx_hal_pcd.c ****   return hpcd->State;
 3121              		.loc 1 1114 3 view .LVU689
 3122              		.loc 1 1114 14 is_stmt 0 view .LVU690
 3123 0000 EA23     		movs	r3, #234
 3124 0002 FF33     		adds	r3, r3, #255
 3125 0004 C05C     		ldrb	r0, [r0, r3]
 3126              	.LVL225:
 3127              		.loc 1 1114 14 view .LVU691
 3128 0006 C0B2     		uxtb	r0, r0
1115:Drivers/STM32F0xx_HAL_Driver/Src/stm32f0xx_hal_pcd.c **** }
 3129              		.loc 1 1115 1 view .LVU692
 3130              		@ sp needed
 3131 0008 7047     		bx	lr
 3132              		.cfi_endproc
 3133              	.LFE68:
 3135              		.section	.text.PCD_WritePMA,"ax",%progbits
 3136              		.align	1
 3137              		.global	PCD_WritePMA
 3138              		.syntax unified
 3139              		.code	16
 3140              		.thumb_func
 3141              		.fpu softvfp
 3143              	PCD_WritePMA:
 3144              	.LVL226:
 3145              	.LFB69:
1116:Drivers/STM32F0xx_HAL_Driver/Src/stm32f0xx_hal_pcd.c **** /**
1117:Drivers/STM32F0xx_HAL_Driver/Src/stm32f0xx_hal_pcd.c ****   * @}
1118:Drivers/STM32F0xx_HAL_Driver/Src/stm32f0xx_hal_pcd.c ****   */
1119:Drivers/STM32F0xx_HAL_Driver/Src/stm32f0xx_hal_pcd.c ****   
1120:Drivers/STM32F0xx_HAL_Driver/Src/stm32f0xx_hal_pcd.c **** /**
1121:Drivers/STM32F0xx_HAL_Driver/Src/stm32f0xx_hal_pcd.c ****   * @}
1122:Drivers/STM32F0xx_HAL_Driver/Src/stm32f0xx_hal_pcd.c ****   */
1123:Drivers/STM32F0xx_HAL_Driver/Src/stm32f0xx_hal_pcd.c **** 
1124:Drivers/STM32F0xx_HAL_Driver/Src/stm32f0xx_hal_pcd.c **** /** @addtogroup PCD_Private_Functions
1125:Drivers/STM32F0xx_HAL_Driver/Src/stm32f0xx_hal_pcd.c ****   * @{
1126:Drivers/STM32F0xx_HAL_Driver/Src/stm32f0xx_hal_pcd.c ****   */
1127:Drivers/STM32F0xx_HAL_Driver/Src/stm32f0xx_hal_pcd.c **** /**
1128:Drivers/STM32F0xx_HAL_Driver/Src/stm32f0xx_hal_pcd.c ****   * @brief Copy a buffer from user memory area to packet memory area (PMA)
1129:Drivers/STM32F0xx_HAL_Driver/Src/stm32f0xx_hal_pcd.c ****   * @param   USBx USB peripheral instance register address.
1130:Drivers/STM32F0xx_HAL_Driver/Src/stm32f0xx_hal_pcd.c ****   * @param   pbUsrBuf pointer to user memory area.
1131:Drivers/STM32F0xx_HAL_Driver/Src/stm32f0xx_hal_pcd.c ****   * @param   wPMABufAddr address into PMA.
1132:Drivers/STM32F0xx_HAL_Driver/Src/stm32f0xx_hal_pcd.c ****   * @param   wNBytes no. of bytes to be copied.
1133:Drivers/STM32F0xx_HAL_Driver/Src/stm32f0xx_hal_pcd.c ****   * @retval None
1134:Drivers/STM32F0xx_HAL_Driver/Src/stm32f0xx_hal_pcd.c ****   */
1135:Drivers/STM32F0xx_HAL_Driver/Src/stm32f0xx_hal_pcd.c **** void PCD_WritePMA(USB_TypeDef  *USBx, uint8_t *pbUsrBuf, uint16_t wPMABufAddr, uint16_t wNBytes)
1136:Drivers/STM32F0xx_HAL_Driver/Src/stm32f0xx_hal_pcd.c **** {
 3146              		.loc 1 1136 1 is_stmt 1 view -0
 3147              		.cfi_startproc
 3148              		@ args = 0, pretend = 0, frame = 0
ARM GAS  /tmp/ccwMzrYy.s 			page 81


 3149              		@ frame_needed = 0, uses_anonymous_args = 0
 3150              		.loc 1 1136 1 is_stmt 0 view .LVU694
 3151 0000 10B5     		push	{r4, lr}
 3152              	.LCFI10:
 3153              		.cfi_def_cfa_offset 8
 3154              		.cfi_offset 4, -8
 3155              		.cfi_offset 14, -4
1137:Drivers/STM32F0xx_HAL_Driver/Src/stm32f0xx_hal_pcd.c ****   uint32_t n =  ((uint32_t)((uint32_t)wNBytes + 1U)) >> 1U;
 3156              		.loc 1 1137 3 is_stmt 1 view .LVU695
 3157              		.loc 1 1137 18 is_stmt 0 view .LVU696
 3158 0002 0133     		adds	r3, r3, #1
 3159              	.LVL227:
 3160              		.loc 1 1137 12 view .LVU697
 3161 0004 5B08     		lsrs	r3, r3, #1
 3162              	.LVL228:
1138:Drivers/STM32F0xx_HAL_Driver/Src/stm32f0xx_hal_pcd.c ****   uint32_t i;
 3163              		.loc 1 1138 3 is_stmt 1 view .LVU698
1139:Drivers/STM32F0xx_HAL_Driver/Src/stm32f0xx_hal_pcd.c ****   uint16_t temp1, temp2;
 3164              		.loc 1 1139 3 view .LVU699
1140:Drivers/STM32F0xx_HAL_Driver/Src/stm32f0xx_hal_pcd.c ****   uint16_t *pdwVal;
 3165              		.loc 1 1140 3 view .LVU700
1141:Drivers/STM32F0xx_HAL_Driver/Src/stm32f0xx_hal_pcd.c ****   pdwVal = (uint16_t *)((uint32_t)(wPMABufAddr + (uint32_t)USBx + 0x400U));
 3166              		.loc 1 1141 3 view .LVU701
 3167              		.loc 1 1141 48 is_stmt 0 view .LVU702
 3168 0006 1018     		adds	r0, r2, r0
 3169              	.LVL229:
 3170              		.loc 1 1141 25 view .LVU703
 3171 0008 8022     		movs	r2, #128
 3172              	.LVL230:
 3173              		.loc 1 1141 25 view .LVU704
 3174 000a D200     		lsls	r2, r2, #3
 3175 000c 9446     		mov	ip, r2
 3176 000e 6044     		add	r0, r0, ip
 3177              	.LVL231:
1142:Drivers/STM32F0xx_HAL_Driver/Src/stm32f0xx_hal_pcd.c ****   
1143:Drivers/STM32F0xx_HAL_Driver/Src/stm32f0xx_hal_pcd.c ****   for (i = n; i != 0; i--)
 3178              		.loc 1 1143 3 is_stmt 1 view .LVU705
 3179              	.L149:
 3180              		.loc 1 1143 3 is_stmt 0 discriminator 1 view .LVU706
 3181 0010 002B     		cmp	r3, #0
 3182 0012 08D0     		beq	.L151
1144:Drivers/STM32F0xx_HAL_Driver/Src/stm32f0xx_hal_pcd.c ****   {
1145:Drivers/STM32F0xx_HAL_Driver/Src/stm32f0xx_hal_pcd.c ****     temp1 = (uint16_t) * pbUsrBuf;
 3183              		.loc 1 1145 5 is_stmt 1 discriminator 3 view .LVU707
 3184              		.loc 1 1145 11 is_stmt 0 discriminator 3 view .LVU708
 3185 0014 0C78     		ldrb	r4, [r1]
 3186              	.LVL232:
1146:Drivers/STM32F0xx_HAL_Driver/Src/stm32f0xx_hal_pcd.c ****     pbUsrBuf++;
 3187              		.loc 1 1146 5 is_stmt 1 discriminator 3 view .LVU709
1147:Drivers/STM32F0xx_HAL_Driver/Src/stm32f0xx_hal_pcd.c ****     temp2 = temp1 | ((uint16_t)((uint16_t)  * pbUsrBuf << 8U)) ;
 3188              		.loc 1 1147 5 discriminator 3 view .LVU710
 3189              		.loc 1 1147 45 is_stmt 0 discriminator 3 view .LVU711
 3190 0016 4A78     		ldrb	r2, [r1, #1]
 3191              		.loc 1 1147 22 discriminator 3 view .LVU712
 3192 0018 1202     		lsls	r2, r2, #8
 3193              		.loc 1 1147 11 discriminator 3 view .LVU713
 3194 001a 2243     		orrs	r2, r4
ARM GAS  /tmp/ccwMzrYy.s 			page 82


 3195              	.LVL233:
1148:Drivers/STM32F0xx_HAL_Driver/Src/stm32f0xx_hal_pcd.c ****     *pdwVal++ = temp2;
 3196              		.loc 1 1148 5 is_stmt 1 discriminator 3 view .LVU714
 3197              		.loc 1 1148 15 is_stmt 0 discriminator 3 view .LVU715
 3198 001c 0280     		strh	r2, [r0]
1149:Drivers/STM32F0xx_HAL_Driver/Src/stm32f0xx_hal_pcd.c ****     pbUsrBuf++;
 3199              		.loc 1 1149 5 is_stmt 1 discriminator 3 view .LVU716
 3200              		.loc 1 1149 13 is_stmt 0 discriminator 3 view .LVU717
 3201 001e 0231     		adds	r1, r1, #2
 3202              	.LVL234:
1143:Drivers/STM32F0xx_HAL_Driver/Src/stm32f0xx_hal_pcd.c ****   {
 3203              		.loc 1 1143 24 discriminator 3 view .LVU718
 3204 0020 013B     		subs	r3, r3, #1
 3205              	.LVL235:
1148:Drivers/STM32F0xx_HAL_Driver/Src/stm32f0xx_hal_pcd.c ****     *pdwVal++ = temp2;
 3206              		.loc 1 1148 12 discriminator 3 view .LVU719
 3207 0022 0230     		adds	r0, r0, #2
 3208              	.LVL236:
1148:Drivers/STM32F0xx_HAL_Driver/Src/stm32f0xx_hal_pcd.c ****     *pdwVal++ = temp2;
 3209              		.loc 1 1148 12 discriminator 3 view .LVU720
 3210 0024 F4E7     		b	.L149
 3211              	.LVL237:
 3212              	.L151:
1150:Drivers/STM32F0xx_HAL_Driver/Src/stm32f0xx_hal_pcd.c ****   }
1151:Drivers/STM32F0xx_HAL_Driver/Src/stm32f0xx_hal_pcd.c **** }
 3213              		.loc 1 1151 1 view .LVU721
 3214              		@ sp needed
 3215 0026 10BD     		pop	{r4, pc}
 3216              		.cfi_endproc
 3217              	.LFE69:
 3219              		.section	.text.HAL_PCD_EP_Transmit,"ax",%progbits
 3220              		.align	1
 3221              		.global	HAL_PCD_EP_Transmit
 3222              		.syntax unified
 3223              		.code	16
 3224              		.thumb_func
 3225              		.fpu softvfp
 3227              	HAL_PCD_EP_Transmit:
 3228              	.LVL238:
 3229              	.LFB62:
 894:Drivers/STM32F0xx_HAL_Driver/Src/stm32f0xx_hal_pcd.c ****   PCD_EPTypeDef *ep;
 3230              		.loc 1 894 1 is_stmt 1 view -0
 3231              		.cfi_startproc
 3232              		@ args = 0, pretend = 0, frame = 0
 3233              		@ frame_needed = 0, uses_anonymous_args = 0
 894:Drivers/STM32F0xx_HAL_Driver/Src/stm32f0xx_hal_pcd.c ****   PCD_EPTypeDef *ep;
 3234              		.loc 1 894 1 is_stmt 0 view .LVU723
 3235 0000 F8B5     		push	{r3, r4, r5, r6, r7, lr}
 3236              	.LCFI11:
 3237              		.cfi_def_cfa_offset 24
 3238              		.cfi_offset 3, -24
 3239              		.cfi_offset 4, -20
 3240              		.cfi_offset 5, -16
 3241              		.cfi_offset 6, -12
 3242              		.cfi_offset 7, -8
 3243              		.cfi_offset 14, -4
 3244 0002 0500     		movs	r5, r0
ARM GAS  /tmp/ccwMzrYy.s 			page 83


 895:Drivers/STM32F0xx_HAL_Driver/Src/stm32f0xx_hal_pcd.c ****   uint16_t pmabuffer = 0U;
 3245              		.loc 1 895 3 is_stmt 1 view .LVU724
 896:Drivers/STM32F0xx_HAL_Driver/Src/stm32f0xx_hal_pcd.c ****     
 3246              		.loc 1 896 3 view .LVU725
 3247              	.LVL239:
 898:Drivers/STM32F0xx_HAL_Driver/Src/stm32f0xx_hal_pcd.c ****   
 3248              		.loc 1 898 3 view .LVU726
 3249 0004 7F24     		movs	r4, #127
 3250 0006 0C40     		ands	r4, r1
 3251              	.LVL240:
 901:Drivers/STM32F0xx_HAL_Driver/Src/stm32f0xx_hal_pcd.c ****   ep->xfer_len = len;
 3252              		.loc 1 901 3 view .LVU727
 901:Drivers/STM32F0xx_HAL_Driver/Src/stm32f0xx_hal_pcd.c ****   ep->xfer_len = len;
 3253              		.loc 1 901 17 is_stmt 0 view .LVU728
 3254 0008 E100     		lsls	r1, r4, #3
 3255              	.LVL241:
 901:Drivers/STM32F0xx_HAL_Driver/Src/stm32f0xx_hal_pcd.c ****   ep->xfer_len = len;
 3256              		.loc 1 901 17 view .LVU729
 3257 000a 091B     		subs	r1, r1, r4
 3258 000c 8900     		lsls	r1, r1, #2
 3259 000e 4118     		adds	r1, r0, r1
 3260 0010 8A63     		str	r2, [r1, #56]
 902:Drivers/STM32F0xx_HAL_Driver/Src/stm32f0xx_hal_pcd.c ****   ep->xfer_count = 0U;
 3261              		.loc 1 902 3 is_stmt 1 view .LVU730
 902:Drivers/STM32F0xx_HAL_Driver/Src/stm32f0xx_hal_pcd.c ****   ep->xfer_count = 0U;
 3262              		.loc 1 902 16 is_stmt 0 view .LVU731
 3263 0012 CB63     		str	r3, [r1, #60]
 903:Drivers/STM32F0xx_HAL_Driver/Src/stm32f0xx_hal_pcd.c ****   ep->is_in = 1U;
 3264              		.loc 1 903 3 is_stmt 1 view .LVU732
 903:Drivers/STM32F0xx_HAL_Driver/Src/stm32f0xx_hal_pcd.c ****   ep->is_in = 1U;
 3265              		.loc 1 903 18 is_stmt 0 view .LVU733
 3266 0014 0022     		movs	r2, #0
 3267              	.LVL242:
 903:Drivers/STM32F0xx_HAL_Driver/Src/stm32f0xx_hal_pcd.c ****   ep->is_in = 1U;
 3268              		.loc 1 903 18 view .LVU734
 3269 0016 0A64     		str	r2, [r1, #64]
 904:Drivers/STM32F0xx_HAL_Driver/Src/stm32f0xx_hal_pcd.c ****   ep->num = ep_addr & 0x7FU;
 3270              		.loc 1 904 3 is_stmt 1 view .LVU735
 904:Drivers/STM32F0xx_HAL_Driver/Src/stm32f0xx_hal_pcd.c ****   ep->num = ep_addr & 0x7FU;
 3271              		.loc 1 904 13 is_stmt 0 view .LVU736
 3272 0018 0A00     		movs	r2, r1
 3273 001a 2932     		adds	r2, r2, #41
 3274 001c 0120     		movs	r0, #1
 3275              	.LVL243:
 904:Drivers/STM32F0xx_HAL_Driver/Src/stm32f0xx_hal_pcd.c ****   ep->num = ep_addr & 0x7FU;
 3276              		.loc 1 904 13 view .LVU737
 3277 001e 1070     		strb	r0, [r2]
 905:Drivers/STM32F0xx_HAL_Driver/Src/stm32f0xx_hal_pcd.c ****   
 3278              		.loc 1 905 3 is_stmt 1 view .LVU738
 905:Drivers/STM32F0xx_HAL_Driver/Src/stm32f0xx_hal_pcd.c ****   
 3279              		.loc 1 905 11 is_stmt 0 view .LVU739
 3280 0020 013A     		subs	r2, r2, #1
 3281 0022 1470     		strb	r4, [r2]
 908:Drivers/STM32F0xx_HAL_Driver/Src/stm32f0xx_hal_pcd.c ****   {
 3282              		.loc 1 908 3 is_stmt 1 view .LVU740
 908:Drivers/STM32F0xx_HAL_Driver/Src/stm32f0xx_hal_pcd.c ****   {
 3283              		.loc 1 908 24 is_stmt 0 view .LVU741
ARM GAS  /tmp/ccwMzrYy.s 			page 84


 3284 0024 4F6B     		ldr	r7, [r1, #52]
 908:Drivers/STM32F0xx_HAL_Driver/Src/stm32f0xx_hal_pcd.c ****   {
 3285              		.loc 1 908 6 view .LVU742
 3286 0026 BB42     		cmp	r3, r7
 3287 0028 34D9     		bls	.L153
 910:Drivers/STM32F0xx_HAL_Driver/Src/stm32f0xx_hal_pcd.c ****     ep->xfer_len-=len; 
 3288              		.loc 1 910 5 is_stmt 1 view .LVU743
 3289              	.LVL244:
 911:Drivers/STM32F0xx_HAL_Driver/Src/stm32f0xx_hal_pcd.c ****   }
 3290              		.loc 1 911 5 view .LVU744
 911:Drivers/STM32F0xx_HAL_Driver/Src/stm32f0xx_hal_pcd.c ****   }
 3291              		.loc 1 911 17 is_stmt 0 view .LVU745
 3292 002a DB1B     		subs	r3, r3, r7
 3293 002c CB63     		str	r3, [r1, #60]
 3294              	.LVL245:
 3295              	.L154:
 920:Drivers/STM32F0xx_HAL_Driver/Src/stm32f0xx_hal_pcd.c ****   {
 3296              		.loc 1 920 3 is_stmt 1 view .LVU746
 920:Drivers/STM32F0xx_HAL_Driver/Src/stm32f0xx_hal_pcd.c ****   {
 3297              		.loc 1 920 9 is_stmt 0 view .LVU747
 3298 002e E200     		lsls	r2, r4, #3
 3299 0030 121B     		subs	r2, r2, r4
 3300 0032 9200     		lsls	r2, r2, #2
 3301 0034 AA18     		adds	r2, r5, r2
 3302 0036 3232     		adds	r2, r2, #50
 3303 0038 1378     		ldrb	r3, [r2]
 920:Drivers/STM32F0xx_HAL_Driver/Src/stm32f0xx_hal_pcd.c ****   {
 3304              		.loc 1 920 6 view .LVU748
 3305 003a 002B     		cmp	r3, #0
 3306 003c 32D0     		beq	.L170
 928:Drivers/STM32F0xx_HAL_Driver/Src/stm32f0xx_hal_pcd.c ****     {
 3307              		.loc 1 928 5 is_stmt 1 view .LVU749
 928:Drivers/STM32F0xx_HAL_Driver/Src/stm32f0xx_hal_pcd.c ****     {
 3308              		.loc 1 928 10 is_stmt 0 view .LVU750
 3309 003e 2A68     		ldr	r2, [r5]
 3310 0040 E300     		lsls	r3, r4, #3
 3311 0042 1B1B     		subs	r3, r3, r4
 3312 0044 9B00     		lsls	r3, r3, #2
 3313 0046 EB18     		adds	r3, r5, r3
 3314 0048 2833     		adds	r3, r3, #40
 3315 004a 1878     		ldrb	r0, [r3]
 3316 004c 8300     		lsls	r3, r0, #2
 3317 004e D318     		adds	r3, r2, r3
 3318 0050 1B88     		ldrh	r3, [r3]
 928:Drivers/STM32F0xx_HAL_Driver/Src/stm32f0xx_hal_pcd.c ****     {
 3319              		.loc 1 928 8 view .LVU751
 3320 0052 5B06     		lsls	r3, r3, #25
 3321 0054 00D4     		bmi	.LCB3360
 3322 0056 8AE0     		b	.L157	@long jump
 3323              	.LCB3360:
 931:Drivers/STM32F0xx_HAL_Driver/Src/stm32f0xx_hal_pcd.c ****       pmabuffer = ep->pmaaddr1;
 3324              		.loc 1 931 7 is_stmt 1 view .LVU752
 3325 0058 E300     		lsls	r3, r4, #3
 3326 005a 1B1B     		subs	r3, r3, r4
 3327 005c 9B00     		lsls	r3, r3, #2
 3328 005e EB18     		adds	r3, r5, r3
 3329 0060 2933     		adds	r3, r3, #41
ARM GAS  /tmp/ccwMzrYy.s 			page 85


 3330 0062 1B78     		ldrb	r3, [r3]
 3331 0064 002B     		cmp	r3, #0
 3332 0066 3ED1     		bne	.L158
 3333              	.LBB34:
 931:Drivers/STM32F0xx_HAL_Driver/Src/stm32f0xx_hal_pcd.c ****       pmabuffer = ep->pmaaddr1;
 3334              		.loc 1 931 7 discriminator 1 view .LVU753
 3335 0068 5033     		adds	r3, r3, #80
 3336 006a D35A     		ldrh	r3, [r2, r3]
 3337 006c C000     		lsls	r0, r0, #3
 3338 006e 1818     		adds	r0, r3, r0
 3339 0070 8218     		adds	r2, r0, r2
 3340 0072 654B     		ldr	r3, .L173
 3341 0074 9C46     		mov	ip, r3
 3342 0076 6244     		add	r2, r2, ip
 3343              	.LVL246:
 3344              	.LBB35:
 931:Drivers/STM32F0xx_HAL_Driver/Src/stm32f0xx_hal_pcd.c ****       pmabuffer = ep->pmaaddr1;
 3345              		.loc 1 931 7 discriminator 1 view .LVU754
 931:Drivers/STM32F0xx_HAL_Driver/Src/stm32f0xx_hal_pcd.c ****       pmabuffer = ep->pmaaddr1;
 3346              		.loc 1 931 7 discriminator 1 view .LVU755
 3347 0078 3E2F     		cmp	r7, #62
 3348 007a 2BD9     		bls	.L159
 931:Drivers/STM32F0xx_HAL_Driver/Src/stm32f0xx_hal_pcd.c ****       pmabuffer = ep->pmaaddr1;
 3349              		.loc 1 931 7 discriminator 3 view .LVU756
 3350 007c 7B09     		lsrs	r3, r7, #5
 3351 007e 9BB2     		uxth	r3, r3
 3352              	.LVL247:
 931:Drivers/STM32F0xx_HAL_Driver/Src/stm32f0xx_hal_pcd.c ****       pmabuffer = ep->pmaaddr1;
 3353              		.loc 1 931 7 discriminator 3 view .LVU757
 3354 0080 F906     		lsls	r1, r7, #27
 3355 0082 01D1     		bne	.L160
 931:Drivers/STM32F0xx_HAL_Driver/Src/stm32f0xx_hal_pcd.c ****       pmabuffer = ep->pmaaddr1;
 3356              		.loc 1 931 7 discriminator 5 view .LVU758
 3357 0084 013B     		subs	r3, r3, #1
 3358              	.LVL248:
 931:Drivers/STM32F0xx_HAL_Driver/Src/stm32f0xx_hal_pcd.c ****       pmabuffer = ep->pmaaddr1;
 3359              		.loc 1 931 7 is_stmt 0 discriminator 5 view .LVU759
 3360 0086 9BB2     		uxth	r3, r3
 3361              	.LVL249:
 3362              	.L160:
 931:Drivers/STM32F0xx_HAL_Driver/Src/stm32f0xx_hal_pcd.c ****       pmabuffer = ep->pmaaddr1;
 3363              		.loc 1 931 7 is_stmt 1 discriminator 7 view .LVU760
 3364 0088 9B02     		lsls	r3, r3, #10
 3365              	.LVL250:
 931:Drivers/STM32F0xx_HAL_Driver/Src/stm32f0xx_hal_pcd.c ****       pmabuffer = ep->pmaaddr1;
 3366              		.loc 1 931 7 is_stmt 0 discriminator 7 view .LVU761
 3367 008a 9BB2     		uxth	r3, r3
 3368 008c 5F48     		ldr	r0, .L173+4
 3369 008e 0343     		orrs	r3, r0
 3370 0090 1380     		strh	r3, [r2]
 3371 0092 2AE0     		b	.L161
 3372              	.LVL251:
 3373              	.L153:
 931:Drivers/STM32F0xx_HAL_Driver/Src/stm32f0xx_hal_pcd.c ****       pmabuffer = ep->pmaaddr1;
 3374              		.loc 1 931 7 discriminator 7 view .LVU762
 3375              	.LBE35:
 3376              	.LBE34:
ARM GAS  /tmp/ccwMzrYy.s 			page 86


 915:Drivers/STM32F0xx_HAL_Driver/Src/stm32f0xx_hal_pcd.c ****     ep->xfer_len =0U;
 3377              		.loc 1 915 5 is_stmt 1 view .LVU763
 916:Drivers/STM32F0xx_HAL_Driver/Src/stm32f0xx_hal_pcd.c ****   }
 3378              		.loc 1 916 5 view .LVU764
 916:Drivers/STM32F0xx_HAL_Driver/Src/stm32f0xx_hal_pcd.c ****   }
 3379              		.loc 1 916 18 is_stmt 0 view .LVU765
 3380 0094 E200     		lsls	r2, r4, #3
 3381 0096 121B     		subs	r2, r2, r4
 3382 0098 9200     		lsls	r2, r2, #2
 3383 009a AA18     		adds	r2, r5, r2
 3384 009c 0021     		movs	r1, #0
 3385              	.LVL252:
 916:Drivers/STM32F0xx_HAL_Driver/Src/stm32f0xx_hal_pcd.c ****   }
 3386              		.loc 1 916 18 view .LVU766
 3387 009e D163     		str	r1, [r2, #60]
 3388              	.LVL253:
 915:Drivers/STM32F0xx_HAL_Driver/Src/stm32f0xx_hal_pcd.c ****     ep->xfer_len =0U;
 3389              		.loc 1 915 8 view .LVU767
 3390 00a0 1F00     		movs	r7, r3
 3391 00a2 C4E7     		b	.L154
 3392              	.LVL254:
 3393              	.L170:
 922:Drivers/STM32F0xx_HAL_Driver/Src/stm32f0xx_hal_pcd.c ****     PCD_SET_EP_TX_CNT(hpcd->Instance, ep->num, len);
 3394              		.loc 1 922 5 is_stmt 1 view .LVU768
 3395 00a4 BFB2     		uxth	r7, r7
 3396              	.LVL255:
 922:Drivers/STM32F0xx_HAL_Driver/Src/stm32f0xx_hal_pcd.c ****     PCD_SET_EP_TX_CNT(hpcd->Instance, ep->num, len);
 3397              		.loc 1 922 5 is_stmt 0 view .LVU769
 3398 00a6 E600     		lsls	r6, r4, #3
 3399 00a8 361B     		subs	r6, r6, r4
 3400 00aa B600     		lsls	r6, r6, #2
 3401 00ac AE19     		adds	r6, r5, r6
 3402 00ae B28D     		ldrh	r2, [r6, #44]
 3403 00b0 3B00     		movs	r3, r7
 3404 00b2 B16B     		ldr	r1, [r6, #56]
 3405 00b4 2868     		ldr	r0, [r5]
 3406 00b6 FFF7FEFF 		bl	PCD_WritePMA
 3407              	.LVL256:
 923:Drivers/STM32F0xx_HAL_Driver/Src/stm32f0xx_hal_pcd.c ****   }
 3408              		.loc 1 923 5 is_stmt 1 view .LVU770
 3409 00ba 2A68     		ldr	r2, [r5]
 3410 00bc 5023     		movs	r3, #80
 3411 00be D35A     		ldrh	r3, [r2, r3]
 3412 00c0 2836     		adds	r6, r6, #40
 3413 00c2 3178     		ldrb	r1, [r6]
 3414 00c4 C900     		lsls	r1, r1, #3
 3415 00c6 5B18     		adds	r3, r3, r1
 3416 00c8 9B18     		adds	r3, r3, r2
 3417 00ca 514A     		ldr	r2, .L173+8
 3418 00cc 9446     		mov	ip, r2
 3419 00ce 6344     		add	r3, r3, ip
 3420 00d0 1F80     		strh	r7, [r3]
 3421 00d2 2EE0     		b	.L156
 3422              	.LVL257:
 3423              	.L159:
 3424              	.LBB37:
 3425              	.LBB36:
ARM GAS  /tmp/ccwMzrYy.s 			page 87


 931:Drivers/STM32F0xx_HAL_Driver/Src/stm32f0xx_hal_pcd.c ****       pmabuffer = ep->pmaaddr1;
 3426              		.loc 1 931 7 discriminator 4 view .LVU771
 3427 00d4 7B08     		lsrs	r3, r7, #1
 3428 00d6 9BB2     		uxth	r3, r3
 3429              	.LVL258:
 931:Drivers/STM32F0xx_HAL_Driver/Src/stm32f0xx_hal_pcd.c ****       pmabuffer = ep->pmaaddr1;
 3430              		.loc 1 931 7 discriminator 4 view .LVU772
 3431 00d8 F907     		lsls	r1, r7, #31
 3432 00da 01D5     		bpl	.L162
 931:Drivers/STM32F0xx_HAL_Driver/Src/stm32f0xx_hal_pcd.c ****       pmabuffer = ep->pmaaddr1;
 3433              		.loc 1 931 7 discriminator 8 view .LVU773
 3434 00dc 0133     		adds	r3, r3, #1
 3435              	.LVL259:
 931:Drivers/STM32F0xx_HAL_Driver/Src/stm32f0xx_hal_pcd.c ****       pmabuffer = ep->pmaaddr1;
 3436              		.loc 1 931 7 is_stmt 0 discriminator 8 view .LVU774
 3437 00de 9BB2     		uxth	r3, r3
 3438              	.LVL260:
 3439              	.L162:
 931:Drivers/STM32F0xx_HAL_Driver/Src/stm32f0xx_hal_pcd.c ****       pmabuffer = ep->pmaaddr1;
 3440              		.loc 1 931 7 is_stmt 1 discriminator 10 view .LVU775
 3441 00e0 9B02     		lsls	r3, r3, #10
 3442              	.LVL261:
 931:Drivers/STM32F0xx_HAL_Driver/Src/stm32f0xx_hal_pcd.c ****       pmabuffer = ep->pmaaddr1;
 3443              		.loc 1 931 7 is_stmt 0 discriminator 10 view .LVU776
 3444 00e2 1380     		strh	r3, [r2]
 3445 00e4 01E0     		b	.L161
 3446              	.LVL262:
 3447              	.L158:
 931:Drivers/STM32F0xx_HAL_Driver/Src/stm32f0xx_hal_pcd.c ****       pmabuffer = ep->pmaaddr1;
 3448              		.loc 1 931 7 discriminator 10 view .LVU777
 3449              	.LBE36:
 3450              	.LBE37:
 931:Drivers/STM32F0xx_HAL_Driver/Src/stm32f0xx_hal_pcd.c ****       pmabuffer = ep->pmaaddr1;
 3451              		.loc 1 931 7 is_stmt 1 discriminator 2 view .LVU778
 3452 00e6 012B     		cmp	r3, #1
 3453 00e8 37D0     		beq	.L171
 3454              	.L161:
 932:Drivers/STM32F0xx_HAL_Driver/Src/stm32f0xx_hal_pcd.c ****     }
 3455              		.loc 1 932 7 view .LVU779
 932:Drivers/STM32F0xx_HAL_Driver/Src/stm32f0xx_hal_pcd.c ****     }
 3456              		.loc 1 932 17 is_stmt 0 view .LVU780
 3457 00ea E300     		lsls	r3, r4, #3
 3458 00ec 1B1B     		subs	r3, r3, r4
 3459 00ee 9B00     		lsls	r3, r3, #2
 3460 00f0 EB18     		adds	r3, r5, r3
 3461 00f2 1A8E     		ldrh	r2, [r3, #48]
 3462              	.LVL263:
 3463              	.L163:
 941:Drivers/STM32F0xx_HAL_Driver/Src/stm32f0xx_hal_pcd.c ****     PCD_FreeUserBuffer(hpcd->Instance, ep->num, ep->is_in)
 3464              		.loc 1 941 5 is_stmt 1 view .LVU781
 3465 00f4 BBB2     		uxth	r3, r7
 3466 00f6 E600     		lsls	r6, r4, #3
 3467 00f8 361B     		subs	r6, r6, r4
 3468 00fa B600     		lsls	r6, r6, #2
 3469 00fc AE19     		adds	r6, r5, r6
 3470 00fe B16B     		ldr	r1, [r6, #56]
 3471 0100 2868     		ldr	r0, [r5]
ARM GAS  /tmp/ccwMzrYy.s 			page 88


 3472 0102 FFF7FEFF 		bl	PCD_WritePMA
 3473              	.LVL264:
 942:Drivers/STM32F0xx_HAL_Driver/Src/stm32f0xx_hal_pcd.c ****   }
 3474              		.loc 1 942 5 view .LVU782
 3475 0106 2936     		adds	r6, r6, #41
 3476 0108 3378     		ldrb	r3, [r6]
 3477 010a 002B     		cmp	r3, #0
 3478 010c 00D0     		beq	.LCB3549
 3479 010e 67E0     		b	.L169	@long jump
 3480              	.LCB3549:
 942:Drivers/STM32F0xx_HAL_Driver/Src/stm32f0xx_hal_pcd.c ****   }
 3481              		.loc 1 942 5 discriminator 1 view .LVU783
 3482 0110 E300     		lsls	r3, r4, #3
 3483 0112 1B1B     		subs	r3, r3, r4
 3484 0114 9B00     		lsls	r3, r3, #2
 3485 0116 EB18     		adds	r3, r5, r3
 3486 0118 2833     		adds	r3, r3, #40
 3487 011a 1A78     		ldrb	r2, [r3]
 3488 011c 9200     		lsls	r2, r2, #2
 3489 011e 2B68     		ldr	r3, [r5]
 3490 0120 9C46     		mov	ip, r3
 3491 0122 6244     		add	r2, r2, ip
 3492 0124 1388     		ldrh	r3, [r2]
 3493 0126 3B49     		ldr	r1, .L173+12
 3494 0128 1940     		ands	r1, r3
 3495 012a 3B4B     		ldr	r3, .L173+16
 3496 012c 0B43     		orrs	r3, r1
 3497 012e 9BB2     		uxth	r3, r3
 3498 0130 1380     		strh	r3, [r2]
 3499              	.LVL265:
 3500              	.L156:
 3501              	.LBB38:
 945:Drivers/STM32F0xx_HAL_Driver/Src/stm32f0xx_hal_pcd.c ****      
 3502              		.loc 1 945 3 view .LVU784
 945:Drivers/STM32F0xx_HAL_Driver/Src/stm32f0xx_hal_pcd.c ****      
 3503              		.loc 1 945 3 view .LVU785
 3504 0132 2B68     		ldr	r3, [r5]
 3505 0134 E100     		lsls	r1, r4, #3
 3506 0136 0C1B     		subs	r4, r1, r4
 3507              	.LVL266:
 945:Drivers/STM32F0xx_HAL_Driver/Src/stm32f0xx_hal_pcd.c ****      
 3508              		.loc 1 945 3 is_stmt 0 view .LVU786
 3509 0138 A400     		lsls	r4, r4, #2
 3510 013a 2D19     		adds	r5, r5, r4
 3511              	.LVL267:
 945:Drivers/STM32F0xx_HAL_Driver/Src/stm32f0xx_hal_pcd.c ****      
 3512              		.loc 1 945 3 view .LVU787
 3513 013c 2835     		adds	r5, r5, #40
 3514 013e 2978     		ldrb	r1, [r5]
 3515 0140 8900     		lsls	r1, r1, #2
 3516 0142 5918     		adds	r1, r3, r1
 3517 0144 0B88     		ldrh	r3, [r1]
 3518 0146 354A     		ldr	r2, .L173+20
 3519 0148 1340     		ands	r3, r2
 3520              	.LVL268:
 945:Drivers/STM32F0xx_HAL_Driver/Src/stm32f0xx_hal_pcd.c ****      
 3521              		.loc 1 945 3 is_stmt 1 view .LVU788
ARM GAS  /tmp/ccwMzrYy.s 			page 89


 945:Drivers/STM32F0xx_HAL_Driver/Src/stm32f0xx_hal_pcd.c ****      
 3522              		.loc 1 945 3 view .LVU789
 945:Drivers/STM32F0xx_HAL_Driver/Src/stm32f0xx_hal_pcd.c ****      
 3523              		.loc 1 945 3 view .LVU790
 945:Drivers/STM32F0xx_HAL_Driver/Src/stm32f0xx_hal_pcd.c ****      
 3524              		.loc 1 945 3 view .LVU791
 3525 014a 3022     		movs	r2, #48
 3526 014c 5A40     		eors	r2, r3
 3527              	.LVL269:
 945:Drivers/STM32F0xx_HAL_Driver/Src/stm32f0xx_hal_pcd.c ****      
 3528              		.loc 1 945 3 view .LVU792
 3529 014e 344B     		ldr	r3, .L173+24
 3530 0150 1343     		orrs	r3, r2
 3531 0152 9BB2     		uxth	r3, r3
 3532 0154 0B80     		strh	r3, [r1]
 3533              	.LBE38:
 947:Drivers/STM32F0xx_HAL_Driver/Src/stm32f0xx_hal_pcd.c **** }
 3534              		.loc 1 947 3 view .LVU793
 948:Drivers/STM32F0xx_HAL_Driver/Src/stm32f0xx_hal_pcd.c **** 
 3535              		.loc 1 948 1 is_stmt 0 view .LVU794
 3536 0156 0020     		movs	r0, #0
 3537              		@ sp needed
 3538 0158 F8BD     		pop	{r3, r4, r5, r6, r7, pc}
 3539              	.LVL270:
 3540              	.L171:
 931:Drivers/STM32F0xx_HAL_Driver/Src/stm32f0xx_hal_pcd.c ****       pmabuffer = ep->pmaaddr1;
 3541              		.loc 1 931 7 is_stmt 1 discriminator 11 view .LVU795
 3542 015a 4F33     		adds	r3, r3, #79
 3543 015c D35A     		ldrh	r3, [r2, r3]
 3544 015e C000     		lsls	r0, r0, #3
 3545 0160 1818     		adds	r0, r3, r0
 3546 0162 8218     		adds	r2, r0, r2
 3547 0164 284B     		ldr	r3, .L173
 3548 0166 9C46     		mov	ip, r3
 3549 0168 6244     		add	r2, r2, ip
 3550 016a 1780     		strh	r7, [r2]
 3551 016c BDE7     		b	.L161
 3552              	.L157:
 937:Drivers/STM32F0xx_HAL_Driver/Src/stm32f0xx_hal_pcd.c ****       pmabuffer = ep->pmaaddr0;
 3553              		.loc 1 937 7 view .LVU796
 3554 016e E300     		lsls	r3, r4, #3
 3555 0170 1B1B     		subs	r3, r3, r4
 3556 0172 9B00     		lsls	r3, r3, #2
 3557 0174 EB18     		adds	r3, r5, r3
 3558 0176 2933     		adds	r3, r3, #41
 3559 0178 1B78     		ldrb	r3, [r3]
 3560 017a 002B     		cmp	r3, #0
 3561 017c 1ED1     		bne	.L164
 3562              	.LBB39:
 937:Drivers/STM32F0xx_HAL_Driver/Src/stm32f0xx_hal_pcd.c ****       pmabuffer = ep->pmaaddr0;
 3563              		.loc 1 937 7 discriminator 1 view .LVU797
 3564 017e 5033     		adds	r3, r3, #80
 3565 0180 D35A     		ldrh	r3, [r2, r3]
 3566 0182 C000     		lsls	r0, r0, #3
 3567 0184 1818     		adds	r0, r3, r0
 3568 0186 8218     		adds	r2, r0, r2
 3569 0188 214B     		ldr	r3, .L173+8
ARM GAS  /tmp/ccwMzrYy.s 			page 90


 3570 018a 9C46     		mov	ip, r3
 3571 018c 6244     		add	r2, r2, ip
 3572              	.LVL271:
 3573              	.LBB40:
 937:Drivers/STM32F0xx_HAL_Driver/Src/stm32f0xx_hal_pcd.c ****       pmabuffer = ep->pmaaddr0;
 3574              		.loc 1 937 7 discriminator 1 view .LVU798
 937:Drivers/STM32F0xx_HAL_Driver/Src/stm32f0xx_hal_pcd.c ****       pmabuffer = ep->pmaaddr0;
 3575              		.loc 1 937 7 discriminator 1 view .LVU799
 3576 018e 3E2F     		cmp	r7, #62
 3577 0190 0BD9     		bls	.L165
 937:Drivers/STM32F0xx_HAL_Driver/Src/stm32f0xx_hal_pcd.c ****       pmabuffer = ep->pmaaddr0;
 3578              		.loc 1 937 7 discriminator 3 view .LVU800
 3579 0192 7B09     		lsrs	r3, r7, #5
 3580 0194 9BB2     		uxth	r3, r3
 3581              	.LVL272:
 937:Drivers/STM32F0xx_HAL_Driver/Src/stm32f0xx_hal_pcd.c ****       pmabuffer = ep->pmaaddr0;
 3582              		.loc 1 937 7 discriminator 3 view .LVU801
 3583 0196 F906     		lsls	r1, r7, #27
 3584 0198 01D1     		bne	.L166
 937:Drivers/STM32F0xx_HAL_Driver/Src/stm32f0xx_hal_pcd.c ****       pmabuffer = ep->pmaaddr0;
 3585              		.loc 1 937 7 discriminator 5 view .LVU802
 3586 019a 013B     		subs	r3, r3, #1
 3587              	.LVL273:
 937:Drivers/STM32F0xx_HAL_Driver/Src/stm32f0xx_hal_pcd.c ****       pmabuffer = ep->pmaaddr0;
 3588              		.loc 1 937 7 is_stmt 0 discriminator 5 view .LVU803
 3589 019c 9BB2     		uxth	r3, r3
 3590              	.LVL274:
 3591              	.L166:
 937:Drivers/STM32F0xx_HAL_Driver/Src/stm32f0xx_hal_pcd.c ****       pmabuffer = ep->pmaaddr0;
 3592              		.loc 1 937 7 is_stmt 1 discriminator 7 view .LVU804
 3593 019e 9B02     		lsls	r3, r3, #10
 3594              	.LVL275:
 937:Drivers/STM32F0xx_HAL_Driver/Src/stm32f0xx_hal_pcd.c ****       pmabuffer = ep->pmaaddr0;
 3595              		.loc 1 937 7 is_stmt 0 discriminator 7 view .LVU805
 3596 01a0 9BB2     		uxth	r3, r3
 3597 01a2 1A48     		ldr	r0, .L173+4
 3598 01a4 0343     		orrs	r3, r0
 3599 01a6 1380     		strh	r3, [r2]
 3600 01a8 0AE0     		b	.L167
 3601              	.L165:
 937:Drivers/STM32F0xx_HAL_Driver/Src/stm32f0xx_hal_pcd.c ****       pmabuffer = ep->pmaaddr0;
 3602              		.loc 1 937 7 is_stmt 1 discriminator 4 view .LVU806
 3603 01aa 7B08     		lsrs	r3, r7, #1
 3604 01ac 9BB2     		uxth	r3, r3
 3605              	.LVL276:
 937:Drivers/STM32F0xx_HAL_Driver/Src/stm32f0xx_hal_pcd.c ****       pmabuffer = ep->pmaaddr0;
 3606              		.loc 1 937 7 discriminator 4 view .LVU807
 3607 01ae F907     		lsls	r1, r7, #31
 3608 01b0 01D5     		bpl	.L168
 937:Drivers/STM32F0xx_HAL_Driver/Src/stm32f0xx_hal_pcd.c ****       pmabuffer = ep->pmaaddr0;
 3609              		.loc 1 937 7 discriminator 8 view .LVU808
 3610 01b2 0133     		adds	r3, r3, #1
 3611              	.LVL277:
 937:Drivers/STM32F0xx_HAL_Driver/Src/stm32f0xx_hal_pcd.c ****       pmabuffer = ep->pmaaddr0;
 3612              		.loc 1 937 7 is_stmt 0 discriminator 8 view .LVU809
 3613 01b4 9BB2     		uxth	r3, r3
 3614              	.LVL278:
ARM GAS  /tmp/ccwMzrYy.s 			page 91


 3615              	.L168:
 937:Drivers/STM32F0xx_HAL_Driver/Src/stm32f0xx_hal_pcd.c ****       pmabuffer = ep->pmaaddr0;
 3616              		.loc 1 937 7 is_stmt 1 discriminator 10 view .LVU810
 3617 01b6 9B02     		lsls	r3, r3, #10
 3618              	.LVL279:
 937:Drivers/STM32F0xx_HAL_Driver/Src/stm32f0xx_hal_pcd.c ****       pmabuffer = ep->pmaaddr0;
 3619              		.loc 1 937 7 is_stmt 0 discriminator 10 view .LVU811
 3620 01b8 1380     		strh	r3, [r2]
 3621 01ba 01E0     		b	.L167
 3622              	.LVL280:
 3623              	.L164:
 937:Drivers/STM32F0xx_HAL_Driver/Src/stm32f0xx_hal_pcd.c ****       pmabuffer = ep->pmaaddr0;
 3624              		.loc 1 937 7 discriminator 10 view .LVU812
 3625              	.LBE40:
 3626              	.LBE39:
 937:Drivers/STM32F0xx_HAL_Driver/Src/stm32f0xx_hal_pcd.c ****       pmabuffer = ep->pmaaddr0;
 3627              		.loc 1 937 7 is_stmt 1 discriminator 2 view .LVU813
 3628 01bc 012B     		cmp	r3, #1
 3629 01be 05D0     		beq	.L172
 3630              	.L167:
 938:Drivers/STM32F0xx_HAL_Driver/Src/stm32f0xx_hal_pcd.c ****     }
 3631              		.loc 1 938 7 view .LVU814
 938:Drivers/STM32F0xx_HAL_Driver/Src/stm32f0xx_hal_pcd.c ****     }
 3632              		.loc 1 938 17 is_stmt 0 view .LVU815
 3633 01c0 E300     		lsls	r3, r4, #3
 3634 01c2 1B1B     		subs	r3, r3, r4
 3635 01c4 9B00     		lsls	r3, r3, #2
 3636 01c6 EB18     		adds	r3, r5, r3
 3637 01c8 DA8D     		ldrh	r2, [r3, #46]
 3638              	.LVL281:
 938:Drivers/STM32F0xx_HAL_Driver/Src/stm32f0xx_hal_pcd.c ****     }
 3639              		.loc 1 938 17 view .LVU816
 3640 01ca 93E7     		b	.L163
 3641              	.LVL282:
 3642              	.L172:
 937:Drivers/STM32F0xx_HAL_Driver/Src/stm32f0xx_hal_pcd.c ****       pmabuffer = ep->pmaaddr0;
 3643              		.loc 1 937 7 is_stmt 1 discriminator 11 view .LVU817
 3644 01cc 4F33     		adds	r3, r3, #79
 3645 01ce D35A     		ldrh	r3, [r2, r3]
 3646 01d0 C000     		lsls	r0, r0, #3
 3647 01d2 1818     		adds	r0, r3, r0
 3648 01d4 8218     		adds	r2, r0, r2
 3649 01d6 0E4B     		ldr	r3, .L173+8
 3650 01d8 9C46     		mov	ip, r3
 3651 01da 6244     		add	r2, r2, ip
 3652 01dc 1780     		strh	r7, [r2]
 3653 01de EFE7     		b	.L167
 3654              	.LVL283:
 3655              	.L169:
 942:Drivers/STM32F0xx_HAL_Driver/Src/stm32f0xx_hal_pcd.c ****   }
 3656              		.loc 1 942 5 discriminator 2 view .LVU818
 3657 01e0 012B     		cmp	r3, #1
 3658 01e2 A6D1     		bne	.L156
 942:Drivers/STM32F0xx_HAL_Driver/Src/stm32f0xx_hal_pcd.c ****   }
 3659              		.loc 1 942 5 discriminator 3 view .LVU819
 3660 01e4 E300     		lsls	r3, r4, #3
 3661 01e6 1B1B     		subs	r3, r3, r4
ARM GAS  /tmp/ccwMzrYy.s 			page 92


 3662 01e8 9B00     		lsls	r3, r3, #2
 3663 01ea EB18     		adds	r3, r5, r3
 3664 01ec 2833     		adds	r3, r3, #40
 3665 01ee 1A78     		ldrb	r2, [r3]
 3666 01f0 9200     		lsls	r2, r2, #2
 3667 01f2 2B68     		ldr	r3, [r5]
 3668 01f4 9C46     		mov	ip, r3
 3669 01f6 6244     		add	r2, r2, ip
 3670 01f8 1388     		ldrh	r3, [r2]
 3671 01fa 0649     		ldr	r1, .L173+12
 3672 01fc 1940     		ands	r1, r3
 3673 01fe 094B     		ldr	r3, .L173+28
 3674 0200 0B43     		orrs	r3, r1
 3675 0202 9BB2     		uxth	r3, r3
 3676 0204 1380     		strh	r3, [r2]
 3677 0206 94E7     		b	.L156
 3678              	.L174:
 3679              		.align	2
 3680              	.L173:
 3681 0208 06040000 		.word	1030
 3682 020c 0080FFFF 		.word	-32768
 3683 0210 02040000 		.word	1026
 3684 0214 0F0F0000 		.word	3855
 3685 0218 C080FFFF 		.word	-32576
 3686 021c BF8FFFFF 		.word	-28737
 3687 0220 8080FFFF 		.word	-32640
 3688 0224 80C0FFFF 		.word	-16256
 3689              		.cfi_endproc
 3690              	.LFE62:
 3692              		.section	.text.PCD_ReadPMA,"ax",%progbits
 3693              		.align	1
 3694              		.global	PCD_ReadPMA
 3695              		.syntax unified
 3696              		.code	16
 3697              		.thumb_func
 3698              		.fpu softvfp
 3700              	PCD_ReadPMA:
 3701              	.LVL284:
 3702              	.LFB70:
1152:Drivers/STM32F0xx_HAL_Driver/Src/stm32f0xx_hal_pcd.c **** 
1153:Drivers/STM32F0xx_HAL_Driver/Src/stm32f0xx_hal_pcd.c **** /**
1154:Drivers/STM32F0xx_HAL_Driver/Src/stm32f0xx_hal_pcd.c ****   * @brief Copy a buffer from user memory area to packet memory area (PMA)
1155:Drivers/STM32F0xx_HAL_Driver/Src/stm32f0xx_hal_pcd.c ****   * @param   USBx USB peripheral instance register address.
1156:Drivers/STM32F0xx_HAL_Driver/Src/stm32f0xx_hal_pcd.c ****   * @param   pbUsrBuf    = pointer to user memory area.
1157:Drivers/STM32F0xx_HAL_Driver/Src/stm32f0xx_hal_pcd.c ****   * @param   wPMABufAddr address into PMA.
1158:Drivers/STM32F0xx_HAL_Driver/Src/stm32f0xx_hal_pcd.c ****   * @param   wNBytes no. of bytes to be copied.
1159:Drivers/STM32F0xx_HAL_Driver/Src/stm32f0xx_hal_pcd.c ****   * @retval None
1160:Drivers/STM32F0xx_HAL_Driver/Src/stm32f0xx_hal_pcd.c ****   */
1161:Drivers/STM32F0xx_HAL_Driver/Src/stm32f0xx_hal_pcd.c **** void PCD_ReadPMA(USB_TypeDef  *USBx, uint8_t *pbUsrBuf, uint16_t wPMABufAddr, uint16_t wNBytes)
1162:Drivers/STM32F0xx_HAL_Driver/Src/stm32f0xx_hal_pcd.c **** {
 3703              		.loc 1 1162 1 view -0
 3704              		.cfi_startproc
 3705              		@ args = 0, pretend = 0, frame = 0
 3706              		@ frame_needed = 0, uses_anonymous_args = 0
 3707              		.loc 1 1162 1 is_stmt 0 view .LVU821
 3708 0000 10B5     		push	{r4, lr}
 3709              	.LCFI12:
ARM GAS  /tmp/ccwMzrYy.s 			page 93


 3710              		.cfi_def_cfa_offset 8
 3711              		.cfi_offset 4, -8
 3712              		.cfi_offset 14, -4
1163:Drivers/STM32F0xx_HAL_Driver/Src/stm32f0xx_hal_pcd.c ****   uint32_t n = (uint32_t)wNBytes >> 1U;
 3713              		.loc 1 1163 3 is_stmt 1 view .LVU822
 3714              		.loc 1 1163 34 is_stmt 0 view .LVU823
 3715 0002 5C08     		lsrs	r4, r3, #1
 3716              	.LVL285:
1164:Drivers/STM32F0xx_HAL_Driver/Src/stm32f0xx_hal_pcd.c ****   uint32_t i;
 3717              		.loc 1 1164 3 is_stmt 1 view .LVU824
1165:Drivers/STM32F0xx_HAL_Driver/Src/stm32f0xx_hal_pcd.c ****   uint16_t *pdwVal;
 3718              		.loc 1 1165 3 view .LVU825
1166:Drivers/STM32F0xx_HAL_Driver/Src/stm32f0xx_hal_pcd.c ****   uint32_t temp;
 3719              		.loc 1 1166 3 view .LVU826
1167:Drivers/STM32F0xx_HAL_Driver/Src/stm32f0xx_hal_pcd.c ****   pdwVal = (uint16_t *)((uint32_t)(wPMABufAddr + (uint32_t)USBx + 0x400U));
 3720              		.loc 1 1167 3 view .LVU827
 3721              		.loc 1 1167 48 is_stmt 0 view .LVU828
 3722 0004 1018     		adds	r0, r2, r0
 3723              	.LVL286:
 3724              		.loc 1 1167 25 view .LVU829
 3725 0006 8022     		movs	r2, #128
 3726              	.LVL287:
 3727              		.loc 1 1167 25 view .LVU830
 3728 0008 D200     		lsls	r2, r2, #3
 3729 000a 9446     		mov	ip, r2
 3730 000c 6044     		add	r0, r0, ip
 3731              	.LVL288:
1168:Drivers/STM32F0xx_HAL_Driver/Src/stm32f0xx_hal_pcd.c ****   
1169:Drivers/STM32F0xx_HAL_Driver/Src/stm32f0xx_hal_pcd.c ****   for (i = n; i != 0U; i--)
 3732              		.loc 1 1169 3 is_stmt 1 view .LVU831
 3733              	.L176:
 3734              		.loc 1 1169 3 is_stmt 0 discriminator 1 view .LVU832
 3735 000e 002C     		cmp	r4, #0
 3736 0010 07D0     		beq	.L179
1170:Drivers/STM32F0xx_HAL_Driver/Src/stm32f0xx_hal_pcd.c ****   {
1171:Drivers/STM32F0xx_HAL_Driver/Src/stm32f0xx_hal_pcd.c ****     temp = *pdwVal++;
 3737              		.loc 1 1171 5 is_stmt 1 discriminator 3 view .LVU833
 3738              	.LVL289:
 3739              		.loc 1 1171 12 is_stmt 0 discriminator 3 view .LVU834
 3740 0012 0288     		ldrh	r2, [r0]
 3741              	.LVL290:
1172:Drivers/STM32F0xx_HAL_Driver/Src/stm32f0xx_hal_pcd.c ****     *pbUsrBuf++ = ((temp >> 0) & 0xFF);
 3742              		.loc 1 1172 5 is_stmt 1 discriminator 3 view .LVU835
 3743              		.loc 1 1172 17 is_stmt 0 discriminator 3 view .LVU836
 3744 0014 0A70     		strb	r2, [r1]
1173:Drivers/STM32F0xx_HAL_Driver/Src/stm32f0xx_hal_pcd.c ****     *pbUsrBuf++ = ((temp >> 8) & 0xFF);
 3745              		.loc 1 1173 5 is_stmt 1 discriminator 3 view .LVU837
 3746              		.loc 1 1173 26 is_stmt 0 discriminator 3 view .LVU838
 3747 0016 120A     		lsrs	r2, r2, #8
 3748              	.LVL291:
 3749              		.loc 1 1173 17 discriminator 3 view .LVU839
 3750 0018 4A70     		strb	r2, [r1, #1]
1169:Drivers/STM32F0xx_HAL_Driver/Src/stm32f0xx_hal_pcd.c ****   {
 3751              		.loc 1 1169 25 discriminator 3 view .LVU840
 3752 001a 013C     		subs	r4, r4, #1
 3753              	.LVL292:
1171:Drivers/STM32F0xx_HAL_Driver/Src/stm32f0xx_hal_pcd.c ****     *pbUsrBuf++ = ((temp >> 0) & 0xFF);
ARM GAS  /tmp/ccwMzrYy.s 			page 94


 3754              		.loc 1 1171 19 discriminator 3 view .LVU841
 3755 001c 0230     		adds	r0, r0, #2
 3756              	.LVL293:
 3757              		.loc 1 1173 14 discriminator 3 view .LVU842
 3758 001e 0231     		adds	r1, r1, #2
 3759              	.LVL294:
 3760              		.loc 1 1173 14 discriminator 3 view .LVU843
 3761 0020 F5E7     		b	.L176
 3762              	.L179:
1174:Drivers/STM32F0xx_HAL_Driver/Src/stm32f0xx_hal_pcd.c ****   }
1175:Drivers/STM32F0xx_HAL_Driver/Src/stm32f0xx_hal_pcd.c ****   
1176:Drivers/STM32F0xx_HAL_Driver/Src/stm32f0xx_hal_pcd.c ****   if (wNBytes % 2)
 3763              		.loc 1 1176 3 is_stmt 1 view .LVU844
 3764              		.loc 1 1176 6 is_stmt 0 view .LVU845
 3765 0022 DB07     		lsls	r3, r3, #31
 3766 0024 01D5     		bpl	.L175
 3767              	.LVL295:
1177:Drivers/STM32F0xx_HAL_Driver/Src/stm32f0xx_hal_pcd.c ****   {
1178:Drivers/STM32F0xx_HAL_Driver/Src/stm32f0xx_hal_pcd.c ****     temp = *pdwVal++;
 3768              		.loc 1 1178 5 is_stmt 1 view .LVU846
 3769              		.loc 1 1178 12 is_stmt 0 view .LVU847
 3770 0026 0388     		ldrh	r3, [r0]
 3771              	.LVL296:
1179:Drivers/STM32F0xx_HAL_Driver/Src/stm32f0xx_hal_pcd.c ****     *pbUsrBuf++ = ((temp >> 0) & 0xFF);
 3772              		.loc 1 1179 5 is_stmt 1 view .LVU848
 3773              		.loc 1 1179 17 is_stmt 0 view .LVU849
 3774 0028 0B70     		strb	r3, [r1]
 3775              	.LVL297:
 3776              	.L175:
1180:Drivers/STM32F0xx_HAL_Driver/Src/stm32f0xx_hal_pcd.c ****   }
1181:Drivers/STM32F0xx_HAL_Driver/Src/stm32f0xx_hal_pcd.c **** }
 3777              		.loc 1 1181 1 view .LVU850
 3778              		@ sp needed
 3779              	.LVL298:
 3780              		.loc 1 1181 1 view .LVU851
 3781 002a 10BD     		pop	{r4, pc}
 3782              		.cfi_endproc
 3783              	.LFE70:
 3785              		.section	.text.PCD_EP_ISR_Handler,"ax",%progbits
 3786              		.align	1
 3787              		.syntax unified
 3788              		.code	16
 3789              		.thumb_func
 3790              		.fpu softvfp
 3792              	PCD_EP_ISR_Handler:
 3793              	.LVL299:
 3794              	.LFB71:
1182:Drivers/STM32F0xx_HAL_Driver/Src/stm32f0xx_hal_pcd.c **** 
1183:Drivers/STM32F0xx_HAL_Driver/Src/stm32f0xx_hal_pcd.c **** /**
1184:Drivers/STM32F0xx_HAL_Driver/Src/stm32f0xx_hal_pcd.c ****   * @brief  This function handles PCD Endpoint interrupt request.
1185:Drivers/STM32F0xx_HAL_Driver/Src/stm32f0xx_hal_pcd.c ****   * @param  hpcd PCD handle
1186:Drivers/STM32F0xx_HAL_Driver/Src/stm32f0xx_hal_pcd.c ****   * @retval HAL status
1187:Drivers/STM32F0xx_HAL_Driver/Src/stm32f0xx_hal_pcd.c ****   */
1188:Drivers/STM32F0xx_HAL_Driver/Src/stm32f0xx_hal_pcd.c **** static HAL_StatusTypeDef PCD_EP_ISR_Handler(PCD_HandleTypeDef *hpcd)
1189:Drivers/STM32F0xx_HAL_Driver/Src/stm32f0xx_hal_pcd.c **** {
 3795              		.loc 1 1189 1 is_stmt 1 view -0
 3796              		.cfi_startproc
ARM GAS  /tmp/ccwMzrYy.s 			page 95


 3797              		@ args = 0, pretend = 0, frame = 8
 3798              		@ frame_needed = 0, uses_anonymous_args = 0
 3799              		.loc 1 1189 1 is_stmt 0 view .LVU853
 3800 0000 F0B5     		push	{r4, r5, r6, r7, lr}
 3801              	.LCFI13:
 3802              		.cfi_def_cfa_offset 20
 3803              		.cfi_offset 4, -20
 3804              		.cfi_offset 5, -16
 3805              		.cfi_offset 6, -12
 3806              		.cfi_offset 7, -8
 3807              		.cfi_offset 14, -4
 3808 0002 83B0     		sub	sp, sp, #12
 3809              	.LCFI14:
 3810              		.cfi_def_cfa_offset 32
 3811 0004 0400     		movs	r4, r0
1190:Drivers/STM32F0xx_HAL_Driver/Src/stm32f0xx_hal_pcd.c ****   PCD_EPTypeDef *ep;
 3812              		.loc 1 1190 3 is_stmt 1 view .LVU854
1191:Drivers/STM32F0xx_HAL_Driver/Src/stm32f0xx_hal_pcd.c ****   uint16_t count=0U;
 3813              		.loc 1 1191 3 view .LVU855
 3814              	.LVL300:
1192:Drivers/STM32F0xx_HAL_Driver/Src/stm32f0xx_hal_pcd.c ****   uint8_t EPindex;
 3815              		.loc 1 1192 3 view .LVU856
1193:Drivers/STM32F0xx_HAL_Driver/Src/stm32f0xx_hal_pcd.c ****   __IO uint16_t wIstr;  
 3816              		.loc 1 1193 3 view .LVU857
1194:Drivers/STM32F0xx_HAL_Driver/Src/stm32f0xx_hal_pcd.c ****   __IO uint16_t wEPVal = 0U;
 3817              		.loc 1 1194 3 view .LVU858
 3818              		.loc 1 1194 17 is_stmt 0 view .LVU859
 3819 0006 01AB     		add	r3, sp, #4
 3820 0008 0022     		movs	r2, #0
 3821 000a 1A80     		strh	r2, [r3]
1195:Drivers/STM32F0xx_HAL_Driver/Src/stm32f0xx_hal_pcd.c ****   
1196:Drivers/STM32F0xx_HAL_Driver/Src/stm32f0xx_hal_pcd.c ****   /* stay in loop while pending interrupts */
1197:Drivers/STM32F0xx_HAL_Driver/Src/stm32f0xx_hal_pcd.c ****   while (((wIstr = hpcd->Instance->ISTR) & USB_ISTR_CTR) != 0U)
 3822              		.loc 1 1197 3 is_stmt 1 view .LVU860
 3823              		.loc 1 1197 9 is_stmt 0 view .LVU861
 3824 000c C0E1     		b	.L181
 3825              	.LVL301:
 3826              	.L208:
1198:Drivers/STM32F0xx_HAL_Driver/Src/stm32f0xx_hal_pcd.c ****   {
1199:Drivers/STM32F0xx_HAL_Driver/Src/stm32f0xx_hal_pcd.c ****     /* extract highest priority endpoint number */
1200:Drivers/STM32F0xx_HAL_Driver/Src/stm32f0xx_hal_pcd.c ****     EPindex = (uint8_t)(wIstr & USB_ISTR_EP_ID);
1201:Drivers/STM32F0xx_HAL_Driver/Src/stm32f0xx_hal_pcd.c ****     
1202:Drivers/STM32F0xx_HAL_Driver/Src/stm32f0xx_hal_pcd.c ****     if (EPindex == 0U)
1203:Drivers/STM32F0xx_HAL_Driver/Src/stm32f0xx_hal_pcd.c ****     {
1204:Drivers/STM32F0xx_HAL_Driver/Src/stm32f0xx_hal_pcd.c ****       /* Decode and service control endpoint interrupt */
1205:Drivers/STM32F0xx_HAL_Driver/Src/stm32f0xx_hal_pcd.c ****       
1206:Drivers/STM32F0xx_HAL_Driver/Src/stm32f0xx_hal_pcd.c ****       /* DIR bit = origin of the interrupt */   
1207:Drivers/STM32F0xx_HAL_Driver/Src/stm32f0xx_hal_pcd.c ****       if ((wIstr & USB_ISTR_DIR) == 0U)
1208:Drivers/STM32F0xx_HAL_Driver/Src/stm32f0xx_hal_pcd.c ****       {
1209:Drivers/STM32F0xx_HAL_Driver/Src/stm32f0xx_hal_pcd.c ****         /* DIR = 0 */
1210:Drivers/STM32F0xx_HAL_Driver/Src/stm32f0xx_hal_pcd.c ****         
1211:Drivers/STM32F0xx_HAL_Driver/Src/stm32f0xx_hal_pcd.c ****         /* DIR = 0      => IN  int */
1212:Drivers/STM32F0xx_HAL_Driver/Src/stm32f0xx_hal_pcd.c ****         /* DIR = 0 implies that (EP_CTR_TX = 1) always  */
1213:Drivers/STM32F0xx_HAL_Driver/Src/stm32f0xx_hal_pcd.c ****         PCD_CLEAR_TX_EP_CTR(hpcd->Instance, PCD_ENDP0);
 3827              		.loc 1 1213 9 is_stmt 1 view .LVU862
 3828 000e 0388     		ldrh	r3, [r0]
 3829 0010 AE4A     		ldr	r2, .L211
ARM GAS  /tmp/ccwMzrYy.s 			page 96


 3830 0012 1340     		ands	r3, r2
 3831 0014 0380     		strh	r3, [r0]
1214:Drivers/STM32F0xx_HAL_Driver/Src/stm32f0xx_hal_pcd.c ****         ep = &hpcd->IN_ep[0];
 3832              		.loc 1 1214 9 view .LVU863
 3833              	.LVL302:
1215:Drivers/STM32F0xx_HAL_Driver/Src/stm32f0xx_hal_pcd.c ****         
1216:Drivers/STM32F0xx_HAL_Driver/Src/stm32f0xx_hal_pcd.c ****         ep->xfer_count = PCD_GET_EP_TX_CNT(hpcd->Instance, ep->num);
 3834              		.loc 1 1216 9 view .LVU864
 3835              		.loc 1 1216 26 is_stmt 0 view .LVU865
 3836 0016 2168     		ldr	r1, [r4]
 3837 0018 5023     		movs	r3, #80
 3838 001a CB5A     		ldrh	r3, [r1, r3]
 3839 001c 2822     		movs	r2, #40
 3840 001e A25C     		ldrb	r2, [r4, r2]
 3841 0020 D200     		lsls	r2, r2, #3
 3842 0022 9B18     		adds	r3, r3, r2
 3843 0024 5B18     		adds	r3, r3, r1
 3844 0026 AA4A     		ldr	r2, .L211+4
 3845 0028 9446     		mov	ip, r2
 3846 002a 6344     		add	r3, r3, ip
 3847 002c 1B88     		ldrh	r3, [r3]
 3848 002e 9B05     		lsls	r3, r3, #22
 3849 0030 9B0D     		lsrs	r3, r3, #22
 3850              		.loc 1 1216 24 view .LVU866
 3851 0032 2364     		str	r3, [r4, #64]
1217:Drivers/STM32F0xx_HAL_Driver/Src/stm32f0xx_hal_pcd.c ****         ep->xfer_buff += ep->xfer_count;
 3852              		.loc 1 1217 9 is_stmt 1 view .LVU867
 3853              		.loc 1 1217 23 is_stmt 0 view .LVU868
 3854 0034 A26B     		ldr	r2, [r4, #56]
 3855 0036 9446     		mov	ip, r2
 3856 0038 6344     		add	r3, r3, ip
 3857 003a A363     		str	r3, [r4, #56]
1218:Drivers/STM32F0xx_HAL_Driver/Src/stm32f0xx_hal_pcd.c ****  
1219:Drivers/STM32F0xx_HAL_Driver/Src/stm32f0xx_hal_pcd.c ****         /* TX COMPLETE */
1220:Drivers/STM32F0xx_HAL_Driver/Src/stm32f0xx_hal_pcd.c ****         HAL_PCD_DataInStageCallback(hpcd, 0U);
 3858              		.loc 1 1220 9 is_stmt 1 view .LVU869
 3859 003c 0021     		movs	r1, #0
 3860 003e 2000     		movs	r0, r4
 3861 0040 FFF7FEFF 		bl	HAL_PCD_DataInStageCallback
 3862              	.LVL303:
1221:Drivers/STM32F0xx_HAL_Driver/Src/stm32f0xx_hal_pcd.c ****         
1222:Drivers/STM32F0xx_HAL_Driver/Src/stm32f0xx_hal_pcd.c ****         
1223:Drivers/STM32F0xx_HAL_Driver/Src/stm32f0xx_hal_pcd.c ****         if((hpcd->USB_Address > 0U)&& ( ep->xfer_len == 0U))
 3863              		.loc 1 1223 9 view .LVU870
 3864              		.loc 1 1223 17 is_stmt 0 view .LVU871
 3865 0044 2423     		movs	r3, #36
 3866 0046 E35C     		ldrb	r3, [r4, r3]
 3867              		.loc 1 1223 11 view .LVU872
 3868 0048 002B     		cmp	r3, #0
 3869 004a 00D1     		bne	.LCB3994
 3870 004c A0E1     		b	.L181	@long jump
 3871              	.LCB3994:
 3872              		.loc 1 1223 36 discriminator 1 view .LVU873
 3873 004e E36B     		ldr	r3, [r4, #60]
 3874 0050 002B     		cmp	r3, #0
 3875 0052 00D0     		beq	.LCB3998
 3876 0054 9CE1     		b	.L181	@long jump
ARM GAS  /tmp/ccwMzrYy.s 			page 97


 3877              	.LCB3998:
1224:Drivers/STM32F0xx_HAL_Driver/Src/stm32f0xx_hal_pcd.c ****         {
1225:Drivers/STM32F0xx_HAL_Driver/Src/stm32f0xx_hal_pcd.c ****           hpcd->Instance->DADDR = (hpcd->USB_Address | USB_DADDR_EF);
 3878              		.loc 1 1225 11 is_stmt 1 view .LVU874
 3879              		.loc 1 1225 40 is_stmt 0 view .LVU875
 3880 0056 2422     		movs	r2, #36
 3881 0058 A35C     		ldrb	r3, [r4, r2]
 3882              		.loc 1 1225 33 view .LVU876
 3883 005a 8021     		movs	r1, #128
 3884 005c 4942     		rsbs	r1, r1, #0
 3885 005e 0B43     		orrs	r3, r1
 3886 0060 DBB2     		uxtb	r3, r3
 3887 0062 CC31     		adds	r1, r1, #204
 3888 0064 2068     		ldr	r0, [r4]
 3889 0066 4352     		strh	r3, [r0, r1]
1226:Drivers/STM32F0xx_HAL_Driver/Src/stm32f0xx_hal_pcd.c ****           hpcd->USB_Address = 0U;
 3890              		.loc 1 1226 11 is_stmt 1 view .LVU877
 3891              		.loc 1 1226 29 is_stmt 0 view .LVU878
 3892 0068 0023     		movs	r3, #0
 3893 006a A354     		strb	r3, [r4, r2]
 3894 006c 90E1     		b	.L181
 3895              	.LVL304:
 3896              	.L209:
1227:Drivers/STM32F0xx_HAL_Driver/Src/stm32f0xx_hal_pcd.c ****         }
1228:Drivers/STM32F0xx_HAL_Driver/Src/stm32f0xx_hal_pcd.c ****         
1229:Drivers/STM32F0xx_HAL_Driver/Src/stm32f0xx_hal_pcd.c ****       }
1230:Drivers/STM32F0xx_HAL_Driver/Src/stm32f0xx_hal_pcd.c ****       else
1231:Drivers/STM32F0xx_HAL_Driver/Src/stm32f0xx_hal_pcd.c ****       {
1232:Drivers/STM32F0xx_HAL_Driver/Src/stm32f0xx_hal_pcd.c ****         /* DIR = 1 */
1233:Drivers/STM32F0xx_HAL_Driver/Src/stm32f0xx_hal_pcd.c ****         
1234:Drivers/STM32F0xx_HAL_Driver/Src/stm32f0xx_hal_pcd.c ****         /* DIR = 1 & CTR_RX       => SETUP or OUT int */
1235:Drivers/STM32F0xx_HAL_Driver/Src/stm32f0xx_hal_pcd.c ****         /* DIR = 1 & (CTR_TX | CTR_RX) => 2 int pending */
1236:Drivers/STM32F0xx_HAL_Driver/Src/stm32f0xx_hal_pcd.c ****         ep = &hpcd->OUT_ep[0];
1237:Drivers/STM32F0xx_HAL_Driver/Src/stm32f0xx_hal_pcd.c ****         wEPVal = PCD_GET_ENDPOINT(hpcd->Instance, PCD_ENDP0);
1238:Drivers/STM32F0xx_HAL_Driver/Src/stm32f0xx_hal_pcd.c ****         
1239:Drivers/STM32F0xx_HAL_Driver/Src/stm32f0xx_hal_pcd.c ****         if ((wEPVal & USB_EP_SETUP) != 0U)
1240:Drivers/STM32F0xx_HAL_Driver/Src/stm32f0xx_hal_pcd.c ****         {
1241:Drivers/STM32F0xx_HAL_Driver/Src/stm32f0xx_hal_pcd.c ****           /* Get SETUP Packet*/
1242:Drivers/STM32F0xx_HAL_Driver/Src/stm32f0xx_hal_pcd.c ****           ep->xfer_count = PCD_GET_EP_RX_CNT(hpcd->Instance, ep->num);
 3897              		.loc 1 1242 11 is_stmt 1 view .LVU879
 3898              		.loc 1 1242 28 is_stmt 0 view .LVU880
 3899 006e 5023     		movs	r3, #80
 3900 0070 C35A     		ldrh	r3, [r0, r3]
 3901 0072 8422     		movs	r2, #132
 3902 0074 5200     		lsls	r2, r2, #1
 3903 0076 A25C     		ldrb	r2, [r4, r2]
 3904 0078 D200     		lsls	r2, r2, #3
 3905 007a 9B18     		adds	r3, r3, r2
 3906 007c 1B18     		adds	r3, r3, r0
 3907 007e 954A     		ldr	r2, .L211+8
 3908 0080 9446     		mov	ip, r2
 3909 0082 6344     		add	r3, r3, ip
 3910 0084 1B88     		ldrh	r3, [r3]
 3911 0086 9B05     		lsls	r3, r3, #22
 3912 0088 9B0D     		lsrs	r3, r3, #22
 3913              		.loc 1 1242 26 view .LVU881
 3914 008a 2200     		movs	r2, r4
ARM GAS  /tmp/ccwMzrYy.s 			page 98


 3915 008c 0932     		adds	r2, r2, #9
 3916 008e FF32     		adds	r2, r2, #255
 3917 0090 9361     		str	r3, [r2, #24]
1243:Drivers/STM32F0xx_HAL_Driver/Src/stm32f0xx_hal_pcd.c ****           PCD_ReadPMA(hpcd->Instance, (uint8_t*)(void*)hpcd->Setup ,ep->pmaadress , ep->xfer_count)
 3918              		.loc 1 1243 11 is_stmt 1 view .LVU882
 3919              		.loc 1 1243 56 is_stmt 0 view .LVU883
 3920 0092 2100     		movs	r1, r4
 3921 0094 ED31     		adds	r1, r1, #237
 3922 0096 FF31     		adds	r1, r1, #255
 3923              		.loc 1 1243 11 view .LVU884
 3924 0098 9288     		ldrh	r2, [r2, #4]
 3925 009a FFF7FEFF 		bl	PCD_ReadPMA
 3926              	.LVL305:
1244:Drivers/STM32F0xx_HAL_Driver/Src/stm32f0xx_hal_pcd.c ****           /* SETUP bit kept frozen while CTR_RX = 1*/ 
1245:Drivers/STM32F0xx_HAL_Driver/Src/stm32f0xx_hal_pcd.c ****           PCD_CLEAR_RX_EP_CTR(hpcd->Instance, PCD_ENDP0); 
 3927              		.loc 1 1245 11 is_stmt 1 view .LVU885
 3928 009e 2268     		ldr	r2, [r4]
 3929 00a0 1388     		ldrh	r3, [r2]
 3930 00a2 8D49     		ldr	r1, .L211+12
 3931 00a4 0B40     		ands	r3, r1
 3932 00a6 1380     		strh	r3, [r2]
1246:Drivers/STM32F0xx_HAL_Driver/Src/stm32f0xx_hal_pcd.c ****           
1247:Drivers/STM32F0xx_HAL_Driver/Src/stm32f0xx_hal_pcd.c ****           /* Process SETUP Packet*/
1248:Drivers/STM32F0xx_HAL_Driver/Src/stm32f0xx_hal_pcd.c ****           HAL_PCD_SetupStageCallback(hpcd);
 3933              		.loc 1 1248 11 view .LVU886
 3934 00a8 2000     		movs	r0, r4
 3935 00aa FFF7FEFF 		bl	HAL_PCD_SetupStageCallback
 3936              	.LVL306:
 3937 00ae 6FE1     		b	.L181
 3938              	.L210:
1249:Drivers/STM32F0xx_HAL_Driver/Src/stm32f0xx_hal_pcd.c ****         }
1250:Drivers/STM32F0xx_HAL_Driver/Src/stm32f0xx_hal_pcd.c ****         
1251:Drivers/STM32F0xx_HAL_Driver/Src/stm32f0xx_hal_pcd.c ****         else if ((wEPVal & USB_EP_CTR_RX) != 0U)
1252:Drivers/STM32F0xx_HAL_Driver/Src/stm32f0xx_hal_pcd.c ****         {
1253:Drivers/STM32F0xx_HAL_Driver/Src/stm32f0xx_hal_pcd.c ****           PCD_CLEAR_RX_EP_CTR(hpcd->Instance, PCD_ENDP0);
1254:Drivers/STM32F0xx_HAL_Driver/Src/stm32f0xx_hal_pcd.c ****           /* Get Control Data OUT Packet*/
1255:Drivers/STM32F0xx_HAL_Driver/Src/stm32f0xx_hal_pcd.c ****           ep->xfer_count = PCD_GET_EP_RX_CNT(hpcd->Instance, ep->num);
1256:Drivers/STM32F0xx_HAL_Driver/Src/stm32f0xx_hal_pcd.c ****           
1257:Drivers/STM32F0xx_HAL_Driver/Src/stm32f0xx_hal_pcd.c ****           if (ep->xfer_count != 0U)
1258:Drivers/STM32F0xx_HAL_Driver/Src/stm32f0xx_hal_pcd.c ****           {
1259:Drivers/STM32F0xx_HAL_Driver/Src/stm32f0xx_hal_pcd.c ****             PCD_ReadPMA(hpcd->Instance, ep->xfer_buff, ep->pmaadress, ep->xfer_count);
 3939              		.loc 1 1259 13 view .LVU887
 3940 00b0 1500     		movs	r5, r2
 3941              	.LVL307:
 3942              		.loc 1 1259 13 is_stmt 0 view .LVU888
 3943 00b2 9288     		ldrh	r2, [r2, #4]
 3944 00b4 2969     		ldr	r1, [r5, #16]
 3945 00b6 FFF7FEFF 		bl	PCD_ReadPMA
 3946              	.LVL308:
1260:Drivers/STM32F0xx_HAL_Driver/Src/stm32f0xx_hal_pcd.c ****             ep->xfer_buff+=ep->xfer_count;
 3947              		.loc 1 1260 13 is_stmt 1 view .LVU889
 3948              		.loc 1 1260 26 is_stmt 0 view .LVU890
 3949 00ba 2B69     		ldr	r3, [r5, #16]
 3950 00bc AA69     		ldr	r2, [r5, #24]
 3951 00be 9446     		mov	ip, r2
 3952 00c0 6344     		add	r3, r3, ip
 3953 00c2 2B61     		str	r3, [r5, #16]
ARM GAS  /tmp/ccwMzrYy.s 			page 99


 3954 00c4 A3E1     		b	.L186
 3955              	.LVL309:
 3956              	.L187:
 3957              	.LBB41:
 3958              	.LBB42:
1261:Drivers/STM32F0xx_HAL_Driver/Src/stm32f0xx_hal_pcd.c ****           }
1262:Drivers/STM32F0xx_HAL_Driver/Src/stm32f0xx_hal_pcd.c ****           
1263:Drivers/STM32F0xx_HAL_Driver/Src/stm32f0xx_hal_pcd.c ****           /* Process Control Data OUT Packet*/
1264:Drivers/STM32F0xx_HAL_Driver/Src/stm32f0xx_hal_pcd.c ****            HAL_PCD_DataOutStageCallback(hpcd, 0U);
1265:Drivers/STM32F0xx_HAL_Driver/Src/stm32f0xx_hal_pcd.c ****           
1266:Drivers/STM32F0xx_HAL_Driver/Src/stm32f0xx_hal_pcd.c ****           PCD_SET_EP_RX_CNT(hpcd->Instance, PCD_ENDP0, ep->maxpacket)
 3959              		.loc 1 1266 11 is_stmt 1 discriminator 2 view .LVU891
 3960 00c6 4B08     		lsrs	r3, r1, #1
 3961 00c8 9BB2     		uxth	r3, r3
 3962              	.LVL310:
 3963              		.loc 1 1266 11 discriminator 2 view .LVU892
 3964 00ca C907     		lsls	r1, r1, #31
 3965 00cc 01D5     		bpl	.L190
 3966              		.loc 1 1266 11 discriminator 6 view .LVU893
 3967 00ce 0133     		adds	r3, r3, #1
 3968              	.LVL311:
 3969              		.loc 1 1266 11 is_stmt 0 discriminator 6 view .LVU894
 3970 00d0 9BB2     		uxth	r3, r3
 3971              	.LVL312:
 3972              	.L190:
 3973              		.loc 1 1266 11 is_stmt 1 discriminator 8 view .LVU895
 3974 00d2 9B02     		lsls	r3, r3, #10
 3975              	.LVL313:
 3976              		.loc 1 1266 11 is_stmt 0 discriminator 8 view .LVU896
 3977 00d4 1380     		strh	r3, [r2]
 3978 00d6 B7E1     		b	.L189
 3979              	.LVL314:
 3980              	.L182:
 3981              		.loc 1 1266 11 discriminator 8 view .LVU897
 3982              	.LBE42:
 3983              	.LBE41:
1267:Drivers/STM32F0xx_HAL_Driver/Src/stm32f0xx_hal_pcd.c ****           PCD_SET_EP_RX_STATUS(hpcd->Instance, PCD_ENDP0, USB_EP_RX_VALID)
1268:Drivers/STM32F0xx_HAL_Driver/Src/stm32f0xx_hal_pcd.c ****         }
1269:Drivers/STM32F0xx_HAL_Driver/Src/stm32f0xx_hal_pcd.c ****       }
1270:Drivers/STM32F0xx_HAL_Driver/Src/stm32f0xx_hal_pcd.c ****     }
1271:Drivers/STM32F0xx_HAL_Driver/Src/stm32f0xx_hal_pcd.c ****     else
1272:Drivers/STM32F0xx_HAL_Driver/Src/stm32f0xx_hal_pcd.c ****     {
1273:Drivers/STM32F0xx_HAL_Driver/Src/stm32f0xx_hal_pcd.c ****       
1274:Drivers/STM32F0xx_HAL_Driver/Src/stm32f0xx_hal_pcd.c ****       /* Decode and service non control endpoints interrupt  */
1275:Drivers/STM32F0xx_HAL_Driver/Src/stm32f0xx_hal_pcd.c ****       
1276:Drivers/STM32F0xx_HAL_Driver/Src/stm32f0xx_hal_pcd.c ****       /* process related endpoint register */
1277:Drivers/STM32F0xx_HAL_Driver/Src/stm32f0xx_hal_pcd.c ****       wEPVal = PCD_GET_ENDPOINT(hpcd->Instance, EPindex);
 3984              		.loc 1 1277 7 is_stmt 1 view .LVU898
 3985              		.loc 1 1277 16 is_stmt 0 view .LVU899
 3986 00d8 AE00     		lsls	r6, r5, #2
 3987 00da 8019     		adds	r0, r0, r6
 3988 00dc 0388     		ldrh	r3, [r0]
 3989 00de 9BB2     		uxth	r3, r3
 3990              		.loc 1 1277 14 view .LVU900
 3991 00e0 01AA     		add	r2, sp, #4
 3992 00e2 1380     		strh	r3, [r2]
1278:Drivers/STM32F0xx_HAL_Driver/Src/stm32f0xx_hal_pcd.c ****       if ((wEPVal & USB_EP_CTR_RX) != 0U)
ARM GAS  /tmp/ccwMzrYy.s 			page 100


 3993              		.loc 1 1278 7 is_stmt 1 view .LVU901
 3994              		.loc 1 1278 36 is_stmt 0 view .LVU902
 3995 00e4 1388     		ldrh	r3, [r2]
 3996 00e6 1BB2     		sxth	r3, r3
 3997              		.loc 1 1278 10 view .LVU903
 3998 00e8 002B     		cmp	r3, #0
 3999 00ea 30DB     		blt	.L204
 4000              	.L191:
1279:Drivers/STM32F0xx_HAL_Driver/Src/stm32f0xx_hal_pcd.c ****       {  
1280:Drivers/STM32F0xx_HAL_Driver/Src/stm32f0xx_hal_pcd.c ****         /* clear int flag */
1281:Drivers/STM32F0xx_HAL_Driver/Src/stm32f0xx_hal_pcd.c ****         PCD_CLEAR_RX_EP_CTR(hpcd->Instance, EPindex);
1282:Drivers/STM32F0xx_HAL_Driver/Src/stm32f0xx_hal_pcd.c ****         ep = &hpcd->OUT_ep[EPindex];
1283:Drivers/STM32F0xx_HAL_Driver/Src/stm32f0xx_hal_pcd.c ****         
1284:Drivers/STM32F0xx_HAL_Driver/Src/stm32f0xx_hal_pcd.c ****         /* OUT double Buffering*/
1285:Drivers/STM32F0xx_HAL_Driver/Src/stm32f0xx_hal_pcd.c ****         if (ep->doublebuffer == 0U)
1286:Drivers/STM32F0xx_HAL_Driver/Src/stm32f0xx_hal_pcd.c ****         {
1287:Drivers/STM32F0xx_HAL_Driver/Src/stm32f0xx_hal_pcd.c ****           count = PCD_GET_EP_RX_CNT(hpcd->Instance, ep->num);
1288:Drivers/STM32F0xx_HAL_Driver/Src/stm32f0xx_hal_pcd.c ****           if (count != 0U)
1289:Drivers/STM32F0xx_HAL_Driver/Src/stm32f0xx_hal_pcd.c ****           {
1290:Drivers/STM32F0xx_HAL_Driver/Src/stm32f0xx_hal_pcd.c ****             PCD_ReadPMA(hpcd->Instance, ep->xfer_buff, ep->pmaadress, count);
1291:Drivers/STM32F0xx_HAL_Driver/Src/stm32f0xx_hal_pcd.c ****           }
1292:Drivers/STM32F0xx_HAL_Driver/Src/stm32f0xx_hal_pcd.c ****         }
1293:Drivers/STM32F0xx_HAL_Driver/Src/stm32f0xx_hal_pcd.c ****         else
1294:Drivers/STM32F0xx_HAL_Driver/Src/stm32f0xx_hal_pcd.c ****         {
1295:Drivers/STM32F0xx_HAL_Driver/Src/stm32f0xx_hal_pcd.c ****           
1296:Drivers/STM32F0xx_HAL_Driver/Src/stm32f0xx_hal_pcd.c ****           if ((PCD_GET_ENDPOINT(hpcd->Instance, ep->num)& USB_EP_DTOG_RX) == USB_EP_DTOG_RX)
1297:Drivers/STM32F0xx_HAL_Driver/Src/stm32f0xx_hal_pcd.c ****           {
1298:Drivers/STM32F0xx_HAL_Driver/Src/stm32f0xx_hal_pcd.c ****             /*read from endpoint BUF0Addr buffer*/
1299:Drivers/STM32F0xx_HAL_Driver/Src/stm32f0xx_hal_pcd.c ****             count = PCD_GET_EP_DBUF0_CNT(hpcd->Instance, ep->num);
1300:Drivers/STM32F0xx_HAL_Driver/Src/stm32f0xx_hal_pcd.c ****             if (count != 0U)
1301:Drivers/STM32F0xx_HAL_Driver/Src/stm32f0xx_hal_pcd.c ****             {
1302:Drivers/STM32F0xx_HAL_Driver/Src/stm32f0xx_hal_pcd.c ****               PCD_ReadPMA(hpcd->Instance, ep->xfer_buff, ep->pmaaddr0, count);
1303:Drivers/STM32F0xx_HAL_Driver/Src/stm32f0xx_hal_pcd.c ****             }
1304:Drivers/STM32F0xx_HAL_Driver/Src/stm32f0xx_hal_pcd.c ****           }
1305:Drivers/STM32F0xx_HAL_Driver/Src/stm32f0xx_hal_pcd.c ****           else
1306:Drivers/STM32F0xx_HAL_Driver/Src/stm32f0xx_hal_pcd.c ****           {
1307:Drivers/STM32F0xx_HAL_Driver/Src/stm32f0xx_hal_pcd.c ****             /*read from endpoint BUF1Addr buffer*/
1308:Drivers/STM32F0xx_HAL_Driver/Src/stm32f0xx_hal_pcd.c ****             count = PCD_GET_EP_DBUF1_CNT(hpcd->Instance, ep->num);
1309:Drivers/STM32F0xx_HAL_Driver/Src/stm32f0xx_hal_pcd.c ****             if (count != 0U)
1310:Drivers/STM32F0xx_HAL_Driver/Src/stm32f0xx_hal_pcd.c ****             {
1311:Drivers/STM32F0xx_HAL_Driver/Src/stm32f0xx_hal_pcd.c ****               PCD_ReadPMA(hpcd->Instance, ep->xfer_buff, ep->pmaaddr1, count);
1312:Drivers/STM32F0xx_HAL_Driver/Src/stm32f0xx_hal_pcd.c ****             }
1313:Drivers/STM32F0xx_HAL_Driver/Src/stm32f0xx_hal_pcd.c ****           }
1314:Drivers/STM32F0xx_HAL_Driver/Src/stm32f0xx_hal_pcd.c ****           PCD_FreeUserBuffer(hpcd->Instance, ep->num, PCD_EP_DBUF_OUT)  
1315:Drivers/STM32F0xx_HAL_Driver/Src/stm32f0xx_hal_pcd.c ****         }
1316:Drivers/STM32F0xx_HAL_Driver/Src/stm32f0xx_hal_pcd.c ****         /*multi-packet on the NON control OUT endpoint*/
1317:Drivers/STM32F0xx_HAL_Driver/Src/stm32f0xx_hal_pcd.c ****         ep->xfer_count+=count;
1318:Drivers/STM32F0xx_HAL_Driver/Src/stm32f0xx_hal_pcd.c ****         ep->xfer_buff+=count;
1319:Drivers/STM32F0xx_HAL_Driver/Src/stm32f0xx_hal_pcd.c ****        
1320:Drivers/STM32F0xx_HAL_Driver/Src/stm32f0xx_hal_pcd.c ****         if ((ep->xfer_len == 0U) || (count < ep->maxpacket))
1321:Drivers/STM32F0xx_HAL_Driver/Src/stm32f0xx_hal_pcd.c ****         {
1322:Drivers/STM32F0xx_HAL_Driver/Src/stm32f0xx_hal_pcd.c ****           /* RX COMPLETE */
1323:Drivers/STM32F0xx_HAL_Driver/Src/stm32f0xx_hal_pcd.c ****           HAL_PCD_DataOutStageCallback(hpcd, ep->num);
1324:Drivers/STM32F0xx_HAL_Driver/Src/stm32f0xx_hal_pcd.c ****         }
1325:Drivers/STM32F0xx_HAL_Driver/Src/stm32f0xx_hal_pcd.c ****         else
1326:Drivers/STM32F0xx_HAL_Driver/Src/stm32f0xx_hal_pcd.c ****         {
1327:Drivers/STM32F0xx_HAL_Driver/Src/stm32f0xx_hal_pcd.c ****           HAL_PCD_EP_Receive(hpcd, ep->num, ep->xfer_buff, ep->xfer_len);
ARM GAS  /tmp/ccwMzrYy.s 			page 101


1328:Drivers/STM32F0xx_HAL_Driver/Src/stm32f0xx_hal_pcd.c ****         }
1329:Drivers/STM32F0xx_HAL_Driver/Src/stm32f0xx_hal_pcd.c ****         
1330:Drivers/STM32F0xx_HAL_Driver/Src/stm32f0xx_hal_pcd.c ****       } /* if((wEPVal & EP_CTR_RX) */
1331:Drivers/STM32F0xx_HAL_Driver/Src/stm32f0xx_hal_pcd.c ****       
1332:Drivers/STM32F0xx_HAL_Driver/Src/stm32f0xx_hal_pcd.c ****       if ((wEPVal & USB_EP_CTR_TX) != 0U)
 4001              		.loc 1 1332 7 is_stmt 1 view .LVU904
 4002              		.loc 1 1332 19 is_stmt 0 view .LVU905
 4003 00ec 01AB     		add	r3, sp, #4
 4004 00ee 1B88     		ldrh	r3, [r3]
 4005              		.loc 1 1332 10 view .LVU906
 4006 00f0 1B06     		lsls	r3, r3, #24
 4007 00f2 00D4     		bmi	.LCB4146
 4008 00f4 4CE1     		b	.L181	@long jump
 4009              	.LCB4146:
1333:Drivers/STM32F0xx_HAL_Driver/Src/stm32f0xx_hal_pcd.c ****       {
1334:Drivers/STM32F0xx_HAL_Driver/Src/stm32f0xx_hal_pcd.c ****         ep = &hpcd->IN_ep[EPindex];
 4010              		.loc 1 1334 9 is_stmt 1 view .LVU907
 4011              	.LVL315:
1335:Drivers/STM32F0xx_HAL_Driver/Src/stm32f0xx_hal_pcd.c ****         
1336:Drivers/STM32F0xx_HAL_Driver/Src/stm32f0xx_hal_pcd.c ****         /* clear int flag */
1337:Drivers/STM32F0xx_HAL_Driver/Src/stm32f0xx_hal_pcd.c ****         PCD_CLEAR_TX_EP_CTR(hpcd->Instance, EPindex);
 4012              		.loc 1 1337 9 view .LVU908
 4013 00f6 2368     		ldr	r3, [r4]
 4014 00f8 9C46     		mov	ip, r3
 4015 00fa 6644     		add	r6, r6, ip
 4016 00fc 3388     		ldrh	r3, [r6]
 4017 00fe 734A     		ldr	r2, .L211
 4018 0100 1340     		ands	r3, r2
 4019 0102 3380     		strh	r3, [r6]
1338:Drivers/STM32F0xx_HAL_Driver/Src/stm32f0xx_hal_pcd.c ****         
1339:Drivers/STM32F0xx_HAL_Driver/Src/stm32f0xx_hal_pcd.c ****         /* IN double Buffering*/
1340:Drivers/STM32F0xx_HAL_Driver/Src/stm32f0xx_hal_pcd.c ****         if (ep->doublebuffer == 0U)
 4020              		.loc 1 1340 9 view .LVU909
 4021              		.loc 1 1340 15 is_stmt 0 view .LVU910
 4022 0104 EB00     		lsls	r3, r5, #3
 4023 0106 5B1B     		subs	r3, r3, r5
 4024 0108 9B00     		lsls	r3, r3, #2
 4025 010a E318     		adds	r3, r4, r3
 4026 010c 3233     		adds	r3, r3, #50
 4027 010e 1B78     		ldrb	r3, [r3]
 4028              		.loc 1 1340 12 view .LVU911
 4029 0110 002B     		cmp	r3, #0
 4030 0112 00D0     		beq	.LCB4168
 4031 0114 E6E0     		b	.L198	@long jump
 4032              	.LCB4168:
1341:Drivers/STM32F0xx_HAL_Driver/Src/stm32f0xx_hal_pcd.c ****         {
1342:Drivers/STM32F0xx_HAL_Driver/Src/stm32f0xx_hal_pcd.c ****           ep->xfer_count = PCD_GET_EP_TX_CNT(hpcd->Instance, ep->num);
 4033              		.loc 1 1342 11 is_stmt 1 view .LVU912
 4034              		.loc 1 1342 28 is_stmt 0 view .LVU913
 4035 0116 2068     		ldr	r0, [r4]
 4036 0118 5033     		adds	r3, r3, #80
 4037 011a C35A     		ldrh	r3, [r0, r3]
 4038 011c EA00     		lsls	r2, r5, #3
 4039 011e 521B     		subs	r2, r2, r5
 4040 0120 9200     		lsls	r2, r2, #2
 4041 0122 A218     		adds	r2, r4, r2
 4042 0124 1100     		movs	r1, r2
ARM GAS  /tmp/ccwMzrYy.s 			page 102


 4043 0126 2831     		adds	r1, r1, #40
 4044 0128 0978     		ldrb	r1, [r1]
 4045 012a C900     		lsls	r1, r1, #3
 4046 012c 5B18     		adds	r3, r3, r1
 4047 012e 1B18     		adds	r3, r3, r0
 4048 0130 6749     		ldr	r1, .L211+4
 4049 0132 8C46     		mov	ip, r1
 4050 0134 6344     		add	r3, r3, ip
 4051 0136 1B88     		ldrh	r3, [r3]
 4052 0138 9B05     		lsls	r3, r3, #22
 4053 013a 9B0D     		lsrs	r3, r3, #22
 4054              		.loc 1 1342 26 view .LVU914
 4055 013c 1364     		str	r3, [r2, #64]
1343:Drivers/STM32F0xx_HAL_Driver/Src/stm32f0xx_hal_pcd.c ****           if (ep->xfer_count != 0)
 4056              		.loc 1 1343 11 is_stmt 1 view .LVU915
 4057              		.loc 1 1343 14 is_stmt 0 view .LVU916
 4058 013e 00D1     		bne	.LCB4194
 4059 0140 01E1     		b	.L199	@long jump
 4060              	.LCB4194:
1344:Drivers/STM32F0xx_HAL_Driver/Src/stm32f0xx_hal_pcd.c ****           {
1345:Drivers/STM32F0xx_HAL_Driver/Src/stm32f0xx_hal_pcd.c ****             PCD_WritePMA(hpcd->Instance, ep->xfer_buff, ep->pmaadress, ep->xfer_count);
 4061              		.loc 1 1345 13 is_stmt 1 view .LVU917
 4062 0142 1100     		movs	r1, r2
 4063 0144 928D     		ldrh	r2, [r2, #44]
 4064 0146 896B     		ldr	r1, [r1, #56]
 4065 0148 FFF7FEFF 		bl	PCD_WritePMA
 4066              	.LVL316:
 4067 014c FBE0     		b	.L199
 4068              	.LVL317:
 4069              	.L204:
1281:Drivers/STM32F0xx_HAL_Driver/Src/stm32f0xx_hal_pcd.c ****         ep = &hpcd->OUT_ep[EPindex];
 4070              		.loc 1 1281 9 view .LVU918
 4071 014e 0388     		ldrh	r3, [r0]
 4072 0150 614A     		ldr	r2, .L211+12
 4073 0152 1340     		ands	r3, r2
 4074 0154 0380     		strh	r3, [r0]
1282:Drivers/STM32F0xx_HAL_Driver/Src/stm32f0xx_hal_pcd.c ****         
 4075              		.loc 1 1282 9 view .LVU919
 4076              	.LVL318:
1285:Drivers/STM32F0xx_HAL_Driver/Src/stm32f0xx_hal_pcd.c ****         {
 4077              		.loc 1 1285 9 view .LVU920
1285:Drivers/STM32F0xx_HAL_Driver/Src/stm32f0xx_hal_pcd.c ****         {
 4078              		.loc 1 1285 15 is_stmt 0 view .LVU921
 4079 0156 EB00     		lsls	r3, r5, #3
 4080 0158 5B1B     		subs	r3, r3, r5
 4081 015a 9B00     		lsls	r3, r3, #2
 4082 015c E318     		adds	r3, r4, r3
 4083 015e 1333     		adds	r3, r3, #19
 4084 0160 FF33     		adds	r3, r3, #255
 4085 0162 1B78     		ldrb	r3, [r3]
1285:Drivers/STM32F0xx_HAL_Driver/Src/stm32f0xx_hal_pcd.c ****         {
 4086              		.loc 1 1285 12 view .LVU922
 4087 0164 002B     		cmp	r3, #0
 4088 0166 23D1     		bne	.L192
1287:Drivers/STM32F0xx_HAL_Driver/Src/stm32f0xx_hal_pcd.c ****           if (count != 0U)
 4089              		.loc 1 1287 11 is_stmt 1 view .LVU923
1287:Drivers/STM32F0xx_HAL_Driver/Src/stm32f0xx_hal_pcd.c ****           if (count != 0U)
ARM GAS  /tmp/ccwMzrYy.s 			page 103


 4090              		.loc 1 1287 19 is_stmt 0 view .LVU924
 4091 0168 2068     		ldr	r0, [r4]
 4092 016a 5033     		adds	r3, r3, #80
 4093 016c C25A     		ldrh	r2, [r0, r3]
 4094 016e EB00     		lsls	r3, r5, #3
 4095 0170 5B1B     		subs	r3, r3, r5
 4096 0172 9B00     		lsls	r3, r3, #2
 4097 0174 E318     		adds	r3, r4, r3
 4098 0176 0933     		adds	r3, r3, #9
 4099 0178 FF33     		adds	r3, r3, #255
 4100 017a 1B78     		ldrb	r3, [r3]
 4101 017c DB00     		lsls	r3, r3, #3
 4102 017e D318     		adds	r3, r2, r3
 4103 0180 1B18     		adds	r3, r3, r0
 4104 0182 544A     		ldr	r2, .L211+8
 4105 0184 9446     		mov	ip, r2
 4106 0186 6344     		add	r3, r3, ip
 4107 0188 1B88     		ldrh	r3, [r3]
1287:Drivers/STM32F0xx_HAL_Driver/Src/stm32f0xx_hal_pcd.c ****           if (count != 0U)
 4108              		.loc 1 1287 17 view .LVU925
 4109 018a 9B05     		lsls	r3, r3, #22
 4110 018c 9F0D     		lsrs	r7, r3, #22
 4111              	.LVL319:
1288:Drivers/STM32F0xx_HAL_Driver/Src/stm32f0xx_hal_pcd.c ****           {
 4112              		.loc 1 1288 11 is_stmt 1 view .LVU926
1288:Drivers/STM32F0xx_HAL_Driver/Src/stm32f0xx_hal_pcd.c ****           {
 4113              		.loc 1 1288 14 is_stmt 0 view .LVU927
 4114 018e 002B     		cmp	r3, #0
 4115 0190 3AD0     		beq	.L193
1290:Drivers/STM32F0xx_HAL_Driver/Src/stm32f0xx_hal_pcd.c ****           }
 4116              		.loc 1 1290 13 is_stmt 1 view .LVU928
 4117 0192 EB00     		lsls	r3, r5, #3
 4118 0194 5B1B     		subs	r3, r3, r5
 4119 0196 9B00     		lsls	r3, r3, #2
 4120 0198 E318     		adds	r3, r4, r3
 4121 019a 1A00     		movs	r2, r3
 4122 019c 0D32     		adds	r2, r2, #13
 4123 019e FF32     		adds	r2, r2, #255
 4124 01a0 1288     		ldrh	r2, [r2]
 4125 01a2 1933     		adds	r3, r3, #25
 4126 01a4 FF33     		adds	r3, r3, #255
 4127 01a6 1968     		ldr	r1, [r3]
 4128 01a8 3B00     		movs	r3, r7
 4129 01aa FFF7FEFF 		bl	PCD_ReadPMA
 4130              	.LVL320:
 4131 01ae 2BE0     		b	.L193
 4132              	.LVL321:
 4133              	.L192:
1296:Drivers/STM32F0xx_HAL_Driver/Src/stm32f0xx_hal_pcd.c ****           {
 4134              		.loc 1 1296 11 view .LVU929
1296:Drivers/STM32F0xx_HAL_Driver/Src/stm32f0xx_hal_pcd.c ****           {
 4135              		.loc 1 1296 16 is_stmt 0 view .LVU930
 4136 01b0 2068     		ldr	r0, [r4]
 4137 01b2 EB00     		lsls	r3, r5, #3
 4138 01b4 5B1B     		subs	r3, r3, r5
 4139 01b6 9B00     		lsls	r3, r3, #2
 4140 01b8 E318     		adds	r3, r4, r3
ARM GAS  /tmp/ccwMzrYy.s 			page 104


 4141 01ba 0933     		adds	r3, r3, #9
 4142 01bc FF33     		adds	r3, r3, #255
 4143 01be 1B78     		ldrb	r3, [r3]
 4144 01c0 9A00     		lsls	r2, r3, #2
 4145 01c2 8218     		adds	r2, r0, r2
 4146 01c4 1288     		ldrh	r2, [r2]
1296:Drivers/STM32F0xx_HAL_Driver/Src/stm32f0xx_hal_pcd.c ****           {
 4147              		.loc 1 1296 14 view .LVU931
 4148 01c6 5204     		lsls	r2, r2, #17
 4149 01c8 58D5     		bpl	.L194
1299:Drivers/STM32F0xx_HAL_Driver/Src/stm32f0xx_hal_pcd.c ****             if (count != 0U)
 4150              		.loc 1 1299 13 is_stmt 1 view .LVU932
1299:Drivers/STM32F0xx_HAL_Driver/Src/stm32f0xx_hal_pcd.c ****             if (count != 0U)
 4151              		.loc 1 1299 21 is_stmt 0 view .LVU933
 4152 01ca 5022     		movs	r2, #80
 4153 01cc 825A     		ldrh	r2, [r0, r2]
 4154 01ce DB00     		lsls	r3, r3, #3
 4155 01d0 D318     		adds	r3, r2, r3
 4156 01d2 1B18     		adds	r3, r3, r0
 4157 01d4 3E4A     		ldr	r2, .L211+4
 4158 01d6 9446     		mov	ip, r2
 4159 01d8 6344     		add	r3, r3, ip
 4160 01da 1B88     		ldrh	r3, [r3]
1299:Drivers/STM32F0xx_HAL_Driver/Src/stm32f0xx_hal_pcd.c ****             if (count != 0U)
 4161              		.loc 1 1299 19 view .LVU934
 4162 01dc 9B05     		lsls	r3, r3, #22
 4163 01de 9F0D     		lsrs	r7, r3, #22
 4164              	.LVL322:
1300:Drivers/STM32F0xx_HAL_Driver/Src/stm32f0xx_hal_pcd.c ****             {
 4165              		.loc 1 1300 13 is_stmt 1 view .LVU935
1300:Drivers/STM32F0xx_HAL_Driver/Src/stm32f0xx_hal_pcd.c ****             {
 4166              		.loc 1 1300 16 is_stmt 0 view .LVU936
 4167 01e0 002B     		cmp	r3, #0
 4168 01e2 3CD1     		bne	.L205
 4169              	.L195:
1314:Drivers/STM32F0xx_HAL_Driver/Src/stm32f0xx_hal_pcd.c ****         }
 4170              		.loc 1 1314 11 is_stmt 1 discriminator 1 view .LVU937
1314:Drivers/STM32F0xx_HAL_Driver/Src/stm32f0xx_hal_pcd.c ****         }
 4171              		.loc 1 1314 11 discriminator 1 view .LVU938
 4172 01e4 EB00     		lsls	r3, r5, #3
 4173 01e6 5B1B     		subs	r3, r3, r5
 4174 01e8 9B00     		lsls	r3, r3, #2
 4175 01ea E318     		adds	r3, r4, r3
 4176 01ec 0933     		adds	r3, r3, #9
 4177 01ee FF33     		adds	r3, r3, #255
 4178 01f0 1A78     		ldrb	r2, [r3]
 4179 01f2 9200     		lsls	r2, r2, #2
 4180 01f4 2368     		ldr	r3, [r4]
 4181 01f6 9C46     		mov	ip, r3
 4182 01f8 6244     		add	r2, r2, ip
 4183 01fa 1388     		ldrh	r3, [r2]
 4184 01fc 3749     		ldr	r1, .L211+16
 4185 01fe 1940     		ands	r1, r3
 4186 0200 374B     		ldr	r3, .L211+20
 4187 0202 0B43     		orrs	r3, r1
 4188 0204 9BB2     		uxth	r3, r3
 4189 0206 1380     		strh	r3, [r2]
ARM GAS  /tmp/ccwMzrYy.s 			page 105


 4190              	.L193:
1317:Drivers/STM32F0xx_HAL_Driver/Src/stm32f0xx_hal_pcd.c ****         ep->xfer_buff+=count;
 4191              		.loc 1 1317 9 view .LVU939
1317:Drivers/STM32F0xx_HAL_Driver/Src/stm32f0xx_hal_pcd.c ****         ep->xfer_buff+=count;
 4192              		.loc 1 1317 23 is_stmt 0 view .LVU940
 4193 0208 3800     		movs	r0, r7
 4194 020a E900     		lsls	r1, r5, #3
 4195 020c 491B     		subs	r1, r1, r5
 4196 020e 8900     		lsls	r1, r1, #2
 4197 0210 6118     		adds	r1, r4, r1
 4198 0212 0A00     		movs	r2, r1
 4199 0214 2132     		adds	r2, r2, #33
 4200 0216 FF32     		adds	r2, r2, #255
 4201 0218 1368     		ldr	r3, [r2]
 4202 021a DB19     		adds	r3, r3, r7
 4203 021c 1360     		str	r3, [r2]
1318:Drivers/STM32F0xx_HAL_Driver/Src/stm32f0xx_hal_pcd.c ****        
 4204              		.loc 1 1318 9 is_stmt 1 view .LVU941
1318:Drivers/STM32F0xx_HAL_Driver/Src/stm32f0xx_hal_pcd.c ****        
 4205              		.loc 1 1318 22 is_stmt 0 view .LVU942
 4206 021e 0B00     		movs	r3, r1
 4207 0220 1933     		adds	r3, r3, #25
 4208 0222 FF33     		adds	r3, r3, #255
 4209 0224 1A68     		ldr	r2, [r3]
 4210 0226 9446     		mov	ip, r2
 4211 0228 6744     		add	r7, r7, ip
 4212              	.LVL323:
1318:Drivers/STM32F0xx_HAL_Driver/Src/stm32f0xx_hal_pcd.c ****        
 4213              		.loc 1 1318 22 view .LVU943
 4214 022a 1F60     		str	r7, [r3]
1320:Drivers/STM32F0xx_HAL_Driver/Src/stm32f0xx_hal_pcd.c ****         {
 4215              		.loc 1 1320 9 is_stmt 1 view .LVU944
1320:Drivers/STM32F0xx_HAL_Driver/Src/stm32f0xx_hal_pcd.c ****         {
 4216              		.loc 1 1320 16 is_stmt 0 view .LVU945
 4217 022c 1D31     		adds	r1, r1, #29
 4218 022e FF31     		adds	r1, r1, #255
 4219 0230 0B68     		ldr	r3, [r1]
1320:Drivers/STM32F0xx_HAL_Driver/Src/stm32f0xx_hal_pcd.c ****         {
 4220              		.loc 1 1320 12 view .LVU946
 4221 0232 002B     		cmp	r3, #0
 4222 0234 08D0     		beq	.L196
1320:Drivers/STM32F0xx_HAL_Driver/Src/stm32f0xx_hal_pcd.c ****         {
 4223              		.loc 1 1320 48 discriminator 1 view .LVU947
 4224 0236 E900     		lsls	r1, r5, #3
 4225 0238 491B     		subs	r1, r1, r5
 4226 023a 8900     		lsls	r1, r1, #2
 4227 023c 6118     		adds	r1, r4, r1
 4228 023e 1531     		adds	r1, r1, #21
 4229 0240 FF31     		adds	r1, r1, #255
 4230 0242 0A68     		ldr	r2, [r1]
1320:Drivers/STM32F0xx_HAL_Driver/Src/stm32f0xx_hal_pcd.c ****         {
 4231              		.loc 1 1320 34 discriminator 1 view .LVU948
 4232 0244 9042     		cmp	r0, r2
 4233 0246 35D2     		bcs	.L197
 4234              	.L196:
1323:Drivers/STM32F0xx_HAL_Driver/Src/stm32f0xx_hal_pcd.c ****         }
 4235              		.loc 1 1323 11 is_stmt 1 view .LVU949
ARM GAS  /tmp/ccwMzrYy.s 			page 106


 4236 0248 EB00     		lsls	r3, r5, #3
 4237 024a 5B1B     		subs	r3, r3, r5
 4238 024c 9B00     		lsls	r3, r3, #2
 4239 024e E318     		adds	r3, r4, r3
 4240 0250 0933     		adds	r3, r3, #9
 4241 0252 FF33     		adds	r3, r3, #255
 4242 0254 1978     		ldrb	r1, [r3]
 4243 0256 2000     		movs	r0, r4
 4244 0258 FFF7FEFF 		bl	HAL_PCD_DataOutStageCallback
 4245              	.LVL324:
 4246 025c 46E7     		b	.L191
 4247              	.LVL325:
 4248              	.L205:
1302:Drivers/STM32F0xx_HAL_Driver/Src/stm32f0xx_hal_pcd.c ****             }
 4249              		.loc 1 1302 15 view .LVU950
 4250 025e EB00     		lsls	r3, r5, #3
 4251 0260 5B1B     		subs	r3, r3, r5
 4252 0262 9B00     		lsls	r3, r3, #2
 4253 0264 E318     		adds	r3, r4, r3
 4254 0266 1A00     		movs	r2, r3
 4255 0268 0F32     		adds	r2, r2, #15
 4256 026a FF32     		adds	r2, r2, #255
 4257 026c 1288     		ldrh	r2, [r2]
 4258 026e 1933     		adds	r3, r3, #25
 4259 0270 FF33     		adds	r3, r3, #255
 4260 0272 1968     		ldr	r1, [r3]
 4261 0274 3B00     		movs	r3, r7
 4262 0276 FFF7FEFF 		bl	PCD_ReadPMA
 4263              	.LVL326:
 4264 027a B3E7     		b	.L195
 4265              	.LVL327:
 4266              	.L194:
1308:Drivers/STM32F0xx_HAL_Driver/Src/stm32f0xx_hal_pcd.c ****             if (count != 0U)
 4267              		.loc 1 1308 13 view .LVU951
1308:Drivers/STM32F0xx_HAL_Driver/Src/stm32f0xx_hal_pcd.c ****             if (count != 0U)
 4268              		.loc 1 1308 21 is_stmt 0 view .LVU952
 4269 027c 5022     		movs	r2, #80
 4270 027e 825A     		ldrh	r2, [r0, r2]
 4271 0280 DB00     		lsls	r3, r3, #3
 4272 0282 D318     		adds	r3, r2, r3
 4273 0284 1B18     		adds	r3, r3, r0
 4274 0286 134A     		ldr	r2, .L211+8
 4275 0288 9446     		mov	ip, r2
 4276 028a 6344     		add	r3, r3, ip
 4277 028c 1B88     		ldrh	r3, [r3]
1308:Drivers/STM32F0xx_HAL_Driver/Src/stm32f0xx_hal_pcd.c ****             if (count != 0U)
 4278              		.loc 1 1308 19 view .LVU953
 4279 028e 9B05     		lsls	r3, r3, #22
 4280 0290 9F0D     		lsrs	r7, r3, #22
 4281              	.LVL328:
1309:Drivers/STM32F0xx_HAL_Driver/Src/stm32f0xx_hal_pcd.c ****             {
 4282              		.loc 1 1309 13 is_stmt 1 view .LVU954
1309:Drivers/STM32F0xx_HAL_Driver/Src/stm32f0xx_hal_pcd.c ****             {
 4283              		.loc 1 1309 16 is_stmt 0 view .LVU955
 4284 0292 002B     		cmp	r3, #0
 4285 0294 A6D0     		beq	.L195
1311:Drivers/STM32F0xx_HAL_Driver/Src/stm32f0xx_hal_pcd.c ****             }
ARM GAS  /tmp/ccwMzrYy.s 			page 107


 4286              		.loc 1 1311 15 is_stmt 1 view .LVU956
 4287 0296 EB00     		lsls	r3, r5, #3
 4288 0298 5B1B     		subs	r3, r3, r5
 4289 029a 9B00     		lsls	r3, r3, #2
 4290 029c E318     		adds	r3, r4, r3
 4291 029e 1A00     		movs	r2, r3
 4292 02a0 1132     		adds	r2, r2, #17
 4293 02a2 FF32     		adds	r2, r2, #255
 4294 02a4 1288     		ldrh	r2, [r2]
 4295 02a6 1933     		adds	r3, r3, #25
 4296 02a8 FF33     		adds	r3, r3, #255
 4297 02aa 1968     		ldr	r1, [r3]
 4298 02ac 3B00     		movs	r3, r7
 4299 02ae FFF7FEFF 		bl	PCD_ReadPMA
 4300              	.LVL329:
 4301 02b2 97E7     		b	.L195
 4302              	.LVL330:
 4303              	.L197:
1327:Drivers/STM32F0xx_HAL_Driver/Src/stm32f0xx_hal_pcd.c ****         }
 4304              		.loc 1 1327 11 view .LVU957
 4305 02b4 EA00     		lsls	r2, r5, #3
 4306 02b6 521B     		subs	r2, r2, r5
 4307 02b8 9200     		lsls	r2, r2, #2
 4308 02ba A218     		adds	r2, r4, r2
 4309 02bc 0932     		adds	r2, r2, #9
 4310 02be FF32     		adds	r2, r2, #255
 4311 02c0 1178     		ldrb	r1, [r2]
 4312 02c2 3A00     		movs	r2, r7
 4313 02c4 2000     		movs	r0, r4
 4314 02c6 FFF7FEFF 		bl	HAL_PCD_EP_Receive
 4315              	.LVL331:
 4316 02ca 0FE7     		b	.L191
 4317              	.L212:
 4318              		.align	2
 4319              	.L211:
 4320 02cc 0F8FFFFF 		.word	-28913
 4321 02d0 02040000 		.word	1026
 4322 02d4 06040000 		.word	1030
 4323 02d8 8F0F0000 		.word	3983
 4324 02dc 0F0F0000 		.word	3855
 4325 02e0 C080FFFF 		.word	-32576
 4326              	.LVL332:
 4327              	.L198:
1346:Drivers/STM32F0xx_HAL_Driver/Src/stm32f0xx_hal_pcd.c ****           }
1347:Drivers/STM32F0xx_HAL_Driver/Src/stm32f0xx_hal_pcd.c ****         }
1348:Drivers/STM32F0xx_HAL_Driver/Src/stm32f0xx_hal_pcd.c ****         else
1349:Drivers/STM32F0xx_HAL_Driver/Src/stm32f0xx_hal_pcd.c ****         {
1350:Drivers/STM32F0xx_HAL_Driver/Src/stm32f0xx_hal_pcd.c ****           if ((PCD_GET_ENDPOINT(hpcd->Instance, ep->num)& USB_EP_DTOG_TX) == USB_EP_DTOG_TX)
 4328              		.loc 1 1350 11 view .LVU958
 4329              		.loc 1 1350 16 is_stmt 0 view .LVU959
 4330 02e4 2068     		ldr	r0, [r4]
 4331 02e6 EB00     		lsls	r3, r5, #3
 4332 02e8 5B1B     		subs	r3, r3, r5
 4333 02ea 9B00     		lsls	r3, r3, #2
 4334 02ec E318     		adds	r3, r4, r3
 4335 02ee 2833     		adds	r3, r3, #40
 4336 02f0 1B78     		ldrb	r3, [r3]
ARM GAS  /tmp/ccwMzrYy.s 			page 108


 4337 02f2 9A00     		lsls	r2, r3, #2
 4338 02f4 8218     		adds	r2, r0, r2
 4339 02f6 1288     		ldrh	r2, [r2]
 4340              		.loc 1 1350 14 view .LVU960
 4341 02f8 5206     		lsls	r2, r2, #25
 4342 02fa 00D4     		bmi	.LCB4499
 4343 02fc B6E0     		b	.L200	@long jump
 4344              	.LCB4499:
1351:Drivers/STM32F0xx_HAL_Driver/Src/stm32f0xx_hal_pcd.c ****           {
1352:Drivers/STM32F0xx_HAL_Driver/Src/stm32f0xx_hal_pcd.c ****             /*read from endpoint BUF0Addr buffer*/
1353:Drivers/STM32F0xx_HAL_Driver/Src/stm32f0xx_hal_pcd.c ****             ep->xfer_count = PCD_GET_EP_DBUF0_CNT(hpcd->Instance, ep->num);
 4345              		.loc 1 1353 13 is_stmt 1 view .LVU961
 4346              		.loc 1 1353 30 is_stmt 0 view .LVU962
 4347 02fe 5022     		movs	r2, #80
 4348 0300 825A     		ldrh	r2, [r0, r2]
 4349 0302 DB00     		lsls	r3, r3, #3
 4350 0304 D318     		adds	r3, r2, r3
 4351 0306 1B18     		adds	r3, r3, r0
 4352 0308 6B4A     		ldr	r2, .L213
 4353 030a 9446     		mov	ip, r2
 4354 030c 6344     		add	r3, r3, ip
 4355 030e 1B88     		ldrh	r3, [r3]
 4356 0310 9B05     		lsls	r3, r3, #22
 4357 0312 9B0D     		lsrs	r3, r3, #22
 4358              		.loc 1 1353 28 view .LVU963
 4359 0314 EA00     		lsls	r2, r5, #3
 4360 0316 521B     		subs	r2, r2, r5
 4361 0318 9200     		lsls	r2, r2, #2
 4362 031a A218     		adds	r2, r4, r2
 4363 031c 1364     		str	r3, [r2, #64]
1354:Drivers/STM32F0xx_HAL_Driver/Src/stm32f0xx_hal_pcd.c ****             if (ep->xfer_count != 0U)
 4364              		.loc 1 1354 13 is_stmt 1 view .LVU964
 4365              		.loc 1 1354 16 is_stmt 0 view .LVU965
 4366 031e 002B     		cmp	r3, #0
 4367 0320 00D0     		beq	.LCB4521
 4368 0322 9DE0     		b	.L206	@long jump
 4369              	.LCB4521:
 4370              	.L201:
1355:Drivers/STM32F0xx_HAL_Driver/Src/stm32f0xx_hal_pcd.c ****             {
1356:Drivers/STM32F0xx_HAL_Driver/Src/stm32f0xx_hal_pcd.c ****               PCD_WritePMA(hpcd->Instance, ep->xfer_buff, ep->pmaaddr0, ep->xfer_count);
1357:Drivers/STM32F0xx_HAL_Driver/Src/stm32f0xx_hal_pcd.c ****             }
1358:Drivers/STM32F0xx_HAL_Driver/Src/stm32f0xx_hal_pcd.c ****           }
1359:Drivers/STM32F0xx_HAL_Driver/Src/stm32f0xx_hal_pcd.c ****           else
1360:Drivers/STM32F0xx_HAL_Driver/Src/stm32f0xx_hal_pcd.c ****           {
1361:Drivers/STM32F0xx_HAL_Driver/Src/stm32f0xx_hal_pcd.c ****             /*read from endpoint BUF1Addr buffer*/
1362:Drivers/STM32F0xx_HAL_Driver/Src/stm32f0xx_hal_pcd.c ****             ep->xfer_count = PCD_GET_EP_DBUF1_CNT(hpcd->Instance, ep->num);
1363:Drivers/STM32F0xx_HAL_Driver/Src/stm32f0xx_hal_pcd.c ****             if (ep->xfer_count != 0U)
1364:Drivers/STM32F0xx_HAL_Driver/Src/stm32f0xx_hal_pcd.c ****             {
1365:Drivers/STM32F0xx_HAL_Driver/Src/stm32f0xx_hal_pcd.c ****               PCD_WritePMA(hpcd->Instance, ep->xfer_buff, ep->pmaaddr1, ep->xfer_count);
1366:Drivers/STM32F0xx_HAL_Driver/Src/stm32f0xx_hal_pcd.c ****             }
1367:Drivers/STM32F0xx_HAL_Driver/Src/stm32f0xx_hal_pcd.c ****           }
1368:Drivers/STM32F0xx_HAL_Driver/Src/stm32f0xx_hal_pcd.c ****           PCD_FreeUserBuffer(hpcd->Instance, ep->num, PCD_EP_DBUF_IN) 
 4371              		.loc 1 1368 11 is_stmt 1 discriminator 3 view .LVU966
 4372              		.loc 1 1368 11 discriminator 3 view .LVU967
 4373              		.loc 1 1368 11 discriminator 3 view .LVU968
 4374 0324 EB00     		lsls	r3, r5, #3
 4375 0326 5B1B     		subs	r3, r3, r5
ARM GAS  /tmp/ccwMzrYy.s 			page 109


 4376 0328 9B00     		lsls	r3, r3, #2
 4377 032a E318     		adds	r3, r4, r3
 4378 032c 2833     		adds	r3, r3, #40
 4379 032e 1A78     		ldrb	r2, [r3]
 4380 0330 9200     		lsls	r2, r2, #2
 4381 0332 2368     		ldr	r3, [r4]
 4382 0334 9C46     		mov	ip, r3
 4383 0336 6244     		add	r2, r2, ip
 4384 0338 1388     		ldrh	r3, [r2]
 4385 033a 6049     		ldr	r1, .L213+4
 4386 033c 1940     		ands	r1, r3
 4387 033e 604B     		ldr	r3, .L213+8
 4388 0340 0B43     		orrs	r3, r1
 4389 0342 9BB2     		uxth	r3, r3
 4390 0344 1380     		strh	r3, [r2]
 4391              	.L199:
1369:Drivers/STM32F0xx_HAL_Driver/Src/stm32f0xx_hal_pcd.c ****         }
1370:Drivers/STM32F0xx_HAL_Driver/Src/stm32f0xx_hal_pcd.c ****         /*multi-packet on the NON control IN endpoint*/
1371:Drivers/STM32F0xx_HAL_Driver/Src/stm32f0xx_hal_pcd.c ****         ep->xfer_count = PCD_GET_EP_TX_CNT(hpcd->Instance, ep->num);
 4392              		.loc 1 1371 9 view .LVU969
 4393              		.loc 1 1371 26 is_stmt 0 view .LVU970
 4394 0346 2168     		ldr	r1, [r4]
 4395 0348 5023     		movs	r3, #80
 4396 034a CA5A     		ldrh	r2, [r1, r3]
 4397 034c EB00     		lsls	r3, r5, #3
 4398 034e 5B1B     		subs	r3, r3, r5
 4399 0350 9B00     		lsls	r3, r3, #2
 4400 0352 E318     		adds	r3, r4, r3
 4401 0354 1800     		movs	r0, r3
 4402 0356 2830     		adds	r0, r0, #40
 4403 0358 0078     		ldrb	r0, [r0]
 4404 035a C000     		lsls	r0, r0, #3
 4405 035c 1218     		adds	r2, r2, r0
 4406 035e 5218     		adds	r2, r2, r1
 4407 0360 5549     		ldr	r1, .L213
 4408 0362 8C46     		mov	ip, r1
 4409 0364 6244     		add	r2, r2, ip
 4410 0366 1288     		ldrh	r2, [r2]
 4411 0368 9205     		lsls	r2, r2, #22
 4412 036a 920D     		lsrs	r2, r2, #22
 4413              		.loc 1 1371 24 view .LVU971
 4414 036c 1A64     		str	r2, [r3, #64]
1372:Drivers/STM32F0xx_HAL_Driver/Src/stm32f0xx_hal_pcd.c ****         ep->xfer_buff+=ep->xfer_count;
 4415              		.loc 1 1372 9 is_stmt 1 view .LVU972
 4416              		.loc 1 1372 22 is_stmt 0 view .LVU973
 4417 036e 996B     		ldr	r1, [r3, #56]
 4418 0370 8C46     		mov	ip, r1
 4419 0372 6244     		add	r2, r2, ip
 4420 0374 9A63     		str	r2, [r3, #56]
1373:Drivers/STM32F0xx_HAL_Driver/Src/stm32f0xx_hal_pcd.c ****        
1374:Drivers/STM32F0xx_HAL_Driver/Src/stm32f0xx_hal_pcd.c ****         /* Zero Length Packet? */
1375:Drivers/STM32F0xx_HAL_Driver/Src/stm32f0xx_hal_pcd.c ****         if (ep->xfer_len == 0U)
 4421              		.loc 1 1375 9 is_stmt 1 view .LVU974
 4422              		.loc 1 1375 15 is_stmt 0 view .LVU975
 4423 0376 DB6B     		ldr	r3, [r3, #60]
 4424              		.loc 1 1375 12 view .LVU976
 4425 0378 002B     		cmp	r3, #0
ARM GAS  /tmp/ccwMzrYy.s 			page 110


 4426 037a 00D0     		beq	.LCB4582
 4427 037c 8FE0     		b	.L202	@long jump
 4428              	.LCB4582:
1376:Drivers/STM32F0xx_HAL_Driver/Src/stm32f0xx_hal_pcd.c ****         {
1377:Drivers/STM32F0xx_HAL_Driver/Src/stm32f0xx_hal_pcd.c ****           /* TX COMPLETE */
1378:Drivers/STM32F0xx_HAL_Driver/Src/stm32f0xx_hal_pcd.c ****           HAL_PCD_DataInStageCallback(hpcd, ep->num);
 4429              		.loc 1 1378 11 is_stmt 1 view .LVU977
 4430 037e EB00     		lsls	r3, r5, #3
 4431 0380 5B1B     		subs	r3, r3, r5
 4432 0382 9B00     		lsls	r3, r3, #2
 4433 0384 E318     		adds	r3, r4, r3
 4434 0386 2833     		adds	r3, r3, #40
 4435 0388 1978     		ldrb	r1, [r3]
 4436 038a 2000     		movs	r0, r4
 4437 038c FFF7FEFF 		bl	HAL_PCD_DataInStageCallback
 4438              	.LVL333:
 4439              	.L181:
1197:Drivers/STM32F0xx_HAL_Driver/Src/stm32f0xx_hal_pcd.c ****   {
 4440              		.loc 1 1197 24 is_stmt 0 view .LVU978
 4441 0390 2068     		ldr	r0, [r4]
1197:Drivers/STM32F0xx_HAL_Driver/Src/stm32f0xx_hal_pcd.c ****   {
 4442              		.loc 1 1197 34 view .LVU979
 4443 0392 4423     		movs	r3, #68
 4444 0394 C35A     		ldrh	r3, [r0, r3]
 4445 0396 9BB2     		uxth	r3, r3
1197:Drivers/STM32F0xx_HAL_Driver/Src/stm32f0xx_hal_pcd.c ****   {
 4446              		.loc 1 1197 18 view .LVU980
 4447 0398 6A46     		mov	r2, sp
 4448 039a D380     		strh	r3, [r2, #6]
1197:Drivers/STM32F0xx_HAL_Driver/Src/stm32f0xx_hal_pcd.c ****   {
 4449              		.loc 1 1197 58 view .LVU981
 4450 039c 1BB2     		sxth	r3, r3
1197:Drivers/STM32F0xx_HAL_Driver/Src/stm32f0xx_hal_pcd.c ****   {
 4451              		.loc 1 1197 9 view .LVU982
 4452 039e 002B     		cmp	r3, #0
 4453 03a0 00DB     		blt	.LCB4605
 4454 03a2 86E0     		b	.L207	@long jump
 4455              	.LCB4605:
1200:Drivers/STM32F0xx_HAL_Driver/Src/stm32f0xx_hal_pcd.c ****     
 4456              		.loc 1 1200 5 is_stmt 1 view .LVU983
1200:Drivers/STM32F0xx_HAL_Driver/Src/stm32f0xx_hal_pcd.c ****     
 4457              		.loc 1 1200 31 is_stmt 0 view .LVU984
 4458 03a4 6B46     		mov	r3, sp
 4459 03a6 DA88     		ldrh	r2, [r3, #6]
1200:Drivers/STM32F0xx_HAL_Driver/Src/stm32f0xx_hal_pcd.c ****     
 4460              		.loc 1 1200 13 view .LVU985
 4461 03a8 0F23     		movs	r3, #15
 4462 03aa 1500     		movs	r5, r2
 4463 03ac 1D40     		ands	r5, r3
 4464              	.LVL334:
1202:Drivers/STM32F0xx_HAL_Driver/Src/stm32f0xx_hal_pcd.c ****     {
 4465              		.loc 1 1202 5 is_stmt 1 view .LVU986
1202:Drivers/STM32F0xx_HAL_Driver/Src/stm32f0xx_hal_pcd.c ****     {
 4466              		.loc 1 1202 8 is_stmt 0 view .LVU987
 4467 03ae 1A42     		tst	r2, r3
 4468 03b0 00D0     		beq	.LCB4618
 4469 03b2 91E6     		b	.L182	@long jump
ARM GAS  /tmp/ccwMzrYy.s 			page 111


 4470              	.LCB4618:
1207:Drivers/STM32F0xx_HAL_Driver/Src/stm32f0xx_hal_pcd.c ****       {
 4471              		.loc 1 1207 7 is_stmt 1 view .LVU988
1207:Drivers/STM32F0xx_HAL_Driver/Src/stm32f0xx_hal_pcd.c ****       {
 4472              		.loc 1 1207 18 is_stmt 0 view .LVU989
 4473 03b4 6B46     		mov	r3, sp
 4474 03b6 0633     		adds	r3, r3, #6
 4475 03b8 1B88     		ldrh	r3, [r3]
1207:Drivers/STM32F0xx_HAL_Driver/Src/stm32f0xx_hal_pcd.c ****       {
 4476              		.loc 1 1207 10 view .LVU990
 4477 03ba DB06     		lsls	r3, r3, #27
 4478 03bc 00D4     		bmi	.LCB4628
 4479 03be 26E6     		b	.L208	@long jump
 4480              	.LCB4628:
1236:Drivers/STM32F0xx_HAL_Driver/Src/stm32f0xx_hal_pcd.c ****         wEPVal = PCD_GET_ENDPOINT(hpcd->Instance, PCD_ENDP0);
 4481              		.loc 1 1236 9 is_stmt 1 view .LVU991
 4482              	.LVL335:
1237:Drivers/STM32F0xx_HAL_Driver/Src/stm32f0xx_hal_pcd.c ****         
 4483              		.loc 1 1237 9 view .LVU992
1237:Drivers/STM32F0xx_HAL_Driver/Src/stm32f0xx_hal_pcd.c ****         
 4484              		.loc 1 1237 18 is_stmt 0 view .LVU993
 4485 03c0 0388     		ldrh	r3, [r0]
 4486 03c2 9BB2     		uxth	r3, r3
1237:Drivers/STM32F0xx_HAL_Driver/Src/stm32f0xx_hal_pcd.c ****         
 4487              		.loc 1 1237 16 view .LVU994
 4488 03c4 01AA     		add	r2, sp, #4
 4489 03c6 1380     		strh	r3, [r2]
1239:Drivers/STM32F0xx_HAL_Driver/Src/stm32f0xx_hal_pcd.c ****         {
 4490              		.loc 1 1239 9 is_stmt 1 view .LVU995
1239:Drivers/STM32F0xx_HAL_Driver/Src/stm32f0xx_hal_pcd.c ****         {
 4491              		.loc 1 1239 21 is_stmt 0 view .LVU996
 4492 03c8 1388     		ldrh	r3, [r2]
1239:Drivers/STM32F0xx_HAL_Driver/Src/stm32f0xx_hal_pcd.c ****         {
 4493              		.loc 1 1239 12 view .LVU997
 4494 03ca 1B05     		lsls	r3, r3, #20
 4495 03cc 00D5     		bpl	.LCB4643
 4496 03ce 4EE6     		b	.L209	@long jump
 4497              	.LCB4643:
1251:Drivers/STM32F0xx_HAL_Driver/Src/stm32f0xx_hal_pcd.c ****         {
 4498              		.loc 1 1251 14 is_stmt 1 view .LVU998
1251:Drivers/STM32F0xx_HAL_Driver/Src/stm32f0xx_hal_pcd.c ****         {
 4499              		.loc 1 1251 43 is_stmt 0 view .LVU999
 4500 03d0 01AB     		add	r3, sp, #4
 4501 03d2 1B88     		ldrh	r3, [r3]
 4502 03d4 1BB2     		sxth	r3, r3
1251:Drivers/STM32F0xx_HAL_Driver/Src/stm32f0xx_hal_pcd.c ****         {
 4503              		.loc 1 1251 17 view .LVU1000
 4504 03d6 002B     		cmp	r3, #0
 4505 03d8 DADA     		bge	.L181
1253:Drivers/STM32F0xx_HAL_Driver/Src/stm32f0xx_hal_pcd.c ****           /* Get Control Data OUT Packet*/
 4506              		.loc 1 1253 11 is_stmt 1 view .LVU1001
 4507 03da 0388     		ldrh	r3, [r0]
 4508 03dc 394A     		ldr	r2, .L213+12
 4509 03de 1340     		ands	r3, r2
 4510 03e0 0380     		strh	r3, [r0]
1255:Drivers/STM32F0xx_HAL_Driver/Src/stm32f0xx_hal_pcd.c ****           
 4511              		.loc 1 1255 11 view .LVU1002
ARM GAS  /tmp/ccwMzrYy.s 			page 112


1255:Drivers/STM32F0xx_HAL_Driver/Src/stm32f0xx_hal_pcd.c ****           
 4512              		.loc 1 1255 28 is_stmt 0 view .LVU1003
 4513 03e2 2068     		ldr	r0, [r4]
 4514 03e4 5023     		movs	r3, #80
 4515 03e6 C35A     		ldrh	r3, [r0, r3]
 4516 03e8 8422     		movs	r2, #132
 4517 03ea 5200     		lsls	r2, r2, #1
 4518 03ec A25C     		ldrb	r2, [r4, r2]
 4519 03ee D200     		lsls	r2, r2, #3
 4520 03f0 9B18     		adds	r3, r3, r2
 4521 03f2 1B18     		adds	r3, r3, r0
 4522 03f4 344A     		ldr	r2, .L213+16
 4523 03f6 9446     		mov	ip, r2
 4524 03f8 6344     		add	r3, r3, ip
 4525 03fa 1B88     		ldrh	r3, [r3]
 4526 03fc 9B05     		lsls	r3, r3, #22
 4527 03fe 9B0D     		lsrs	r3, r3, #22
1255:Drivers/STM32F0xx_HAL_Driver/Src/stm32f0xx_hal_pcd.c ****           
 4528              		.loc 1 1255 26 view .LVU1004
 4529 0400 2200     		movs	r2, r4
 4530 0402 0932     		adds	r2, r2, #9
 4531 0404 FF32     		adds	r2, r2, #255
 4532 0406 9361     		str	r3, [r2, #24]
1257:Drivers/STM32F0xx_HAL_Driver/Src/stm32f0xx_hal_pcd.c ****           {
 4533              		.loc 1 1257 11 is_stmt 1 view .LVU1005
1257:Drivers/STM32F0xx_HAL_Driver/Src/stm32f0xx_hal_pcd.c ****           {
 4534              		.loc 1 1257 14 is_stmt 0 view .LVU1006
 4535 0408 002B     		cmp	r3, #0
 4536 040a 00D0     		beq	.LCB4682
 4537 040c 50E6     		b	.L210	@long jump
 4538              	.LCB4682:
 4539              	.LVL336:
 4540              	.L186:
1264:Drivers/STM32F0xx_HAL_Driver/Src/stm32f0xx_hal_pcd.c ****           
 4541              		.loc 1 1264 12 is_stmt 1 view .LVU1007
 4542 040e 0021     		movs	r1, #0
 4543 0410 2000     		movs	r0, r4
 4544 0412 FFF7FEFF 		bl	HAL_PCD_DataOutStageCallback
 4545              	.LVL337:
 4546              	.LBB44:
1266:Drivers/STM32F0xx_HAL_Driver/Src/stm32f0xx_hal_pcd.c ****           PCD_SET_EP_RX_STATUS(hpcd->Instance, PCD_ENDP0, USB_EP_RX_VALID)
 4547              		.loc 1 1266 11 view .LVU1008
 4548 0416 2368     		ldr	r3, [r4]
 4549 0418 5022     		movs	r2, #80
 4550 041a 9A5A     		ldrh	r2, [r3, r2]
 4551 041c 9A18     		adds	r2, r3, r2
 4552 041e 2A4B     		ldr	r3, .L213+16
 4553 0420 9C46     		mov	ip, r3
 4554 0422 6244     		add	r2, r2, ip
 4555              	.LVL338:
 4556              	.LBB43:
1266:Drivers/STM32F0xx_HAL_Driver/Src/stm32f0xx_hal_pcd.c ****           PCD_SET_EP_RX_STATUS(hpcd->Instance, PCD_ENDP0, USB_EP_RX_VALID)
 4557              		.loc 1 1266 11 view .LVU1009
1266:Drivers/STM32F0xx_HAL_Driver/Src/stm32f0xx_hal_pcd.c ****           PCD_SET_EP_RX_STATUS(hpcd->Instance, PCD_ENDP0, USB_EP_RX_VALID)
 4558              		.loc 1 1266 11 view .LVU1010
 4559 0424 2300     		movs	r3, r4
 4560 0426 0933     		adds	r3, r3, #9
ARM GAS  /tmp/ccwMzrYy.s 			page 113


 4561 0428 FF33     		adds	r3, r3, #255
 4562 042a D968     		ldr	r1, [r3, #12]
 4563 042c 3E29     		cmp	r1, #62
 4564 042e 00D8     		bhi	.LCB4708
 4565 0430 49E6     		b	.L187	@long jump
 4566              	.LCB4708:
1266:Drivers/STM32F0xx_HAL_Driver/Src/stm32f0xx_hal_pcd.c ****           PCD_SET_EP_RX_STATUS(hpcd->Instance, PCD_ENDP0, USB_EP_RX_VALID)
 4567              		.loc 1 1266 11 discriminator 1 view .LVU1011
 4568 0432 4B09     		lsrs	r3, r1, #5
 4569 0434 9BB2     		uxth	r3, r3
 4570              	.LVL339:
1266:Drivers/STM32F0xx_HAL_Driver/Src/stm32f0xx_hal_pcd.c ****           PCD_SET_EP_RX_STATUS(hpcd->Instance, PCD_ENDP0, USB_EP_RX_VALID)
 4571              		.loc 1 1266 11 discriminator 1 view .LVU1012
 4572 0436 C906     		lsls	r1, r1, #27
 4573 0438 01D1     		bne	.L188
1266:Drivers/STM32F0xx_HAL_Driver/Src/stm32f0xx_hal_pcd.c ****           PCD_SET_EP_RX_STATUS(hpcd->Instance, PCD_ENDP0, USB_EP_RX_VALID)
 4574              		.loc 1 1266 11 discriminator 3 view .LVU1013
 4575 043a 013B     		subs	r3, r3, #1
 4576              	.LVL340:
1266:Drivers/STM32F0xx_HAL_Driver/Src/stm32f0xx_hal_pcd.c ****           PCD_SET_EP_RX_STATUS(hpcd->Instance, PCD_ENDP0, USB_EP_RX_VALID)
 4577              		.loc 1 1266 11 is_stmt 0 discriminator 3 view .LVU1014
 4578 043c 9BB2     		uxth	r3, r3
 4579              	.LVL341:
 4580              	.L188:
1266:Drivers/STM32F0xx_HAL_Driver/Src/stm32f0xx_hal_pcd.c ****           PCD_SET_EP_RX_STATUS(hpcd->Instance, PCD_ENDP0, USB_EP_RX_VALID)
 4581              		.loc 1 1266 11 is_stmt 1 discriminator 5 view .LVU1015
 4582 043e 9B02     		lsls	r3, r3, #10
 4583              	.LVL342:
1266:Drivers/STM32F0xx_HAL_Driver/Src/stm32f0xx_hal_pcd.c ****           PCD_SET_EP_RX_STATUS(hpcd->Instance, PCD_ENDP0, USB_EP_RX_VALID)
 4584              		.loc 1 1266 11 is_stmt 0 discriminator 5 view .LVU1016
 4585 0440 9BB2     		uxth	r3, r3
 4586 0442 2249     		ldr	r1, .L213+20
 4587 0444 0B43     		orrs	r3, r1
 4588 0446 1380     		strh	r3, [r2]
 4589              	.L189:
1266:Drivers/STM32F0xx_HAL_Driver/Src/stm32f0xx_hal_pcd.c ****           PCD_SET_EP_RX_STATUS(hpcd->Instance, PCD_ENDP0, USB_EP_RX_VALID)
 4590              		.loc 1 1266 11 discriminator 5 view .LVU1017
 4591              	.LBE43:
 4592              	.LBE44:
 4593              	.LBB45:
1267:Drivers/STM32F0xx_HAL_Driver/Src/stm32f0xx_hal_pcd.c ****         }
 4594              		.loc 1 1267 11 is_stmt 1 view .LVU1018
1267:Drivers/STM32F0xx_HAL_Driver/Src/stm32f0xx_hal_pcd.c ****         }
 4595              		.loc 1 1267 11 view .LVU1019
 4596 0448 2168     		ldr	r1, [r4]
 4597 044a 0A88     		ldrh	r2, [r1]
 4598              	.LVL343:
1267:Drivers/STM32F0xx_HAL_Driver/Src/stm32f0xx_hal_pcd.c ****         }
 4599              		.loc 1 1267 11 is_stmt 0 view .LVU1020
 4600 044c 204B     		ldr	r3, .L213+24
 4601 044e 1A40     		ands	r2, r3
 4602              	.LVL344:
1267:Drivers/STM32F0xx_HAL_Driver/Src/stm32f0xx_hal_pcd.c ****         }
 4603              		.loc 1 1267 11 is_stmt 1 view .LVU1021
1267:Drivers/STM32F0xx_HAL_Driver/Src/stm32f0xx_hal_pcd.c ****         }
 4604              		.loc 1 1267 11 view .LVU1022
1267:Drivers/STM32F0xx_HAL_Driver/Src/stm32f0xx_hal_pcd.c ****         }
ARM GAS  /tmp/ccwMzrYy.s 			page 114


 4605              		.loc 1 1267 11 view .LVU1023
1267:Drivers/STM32F0xx_HAL_Driver/Src/stm32f0xx_hal_pcd.c ****         }
 4606              		.loc 1 1267 11 view .LVU1024
 4607 0450 C023     		movs	r3, #192
 4608 0452 9B01     		lsls	r3, r3, #6
 4609 0454 5A40     		eors	r2, r3
 4610              	.LVL345:
1267:Drivers/STM32F0xx_HAL_Driver/Src/stm32f0xx_hal_pcd.c ****         }
 4611              		.loc 1 1267 11 view .LVU1025
 4612 0456 1F4B     		ldr	r3, .L213+28
 4613 0458 1343     		orrs	r3, r2
 4614 045a 9BB2     		uxth	r3, r3
 4615 045c 0B80     		strh	r3, [r1]
 4616 045e 97E7     		b	.L181
 4617              	.LVL346:
 4618              	.L206:
1267:Drivers/STM32F0xx_HAL_Driver/Src/stm32f0xx_hal_pcd.c ****         }
 4619              		.loc 1 1267 11 is_stmt 0 view .LVU1026
 4620              	.LBE45:
1356:Drivers/STM32F0xx_HAL_Driver/Src/stm32f0xx_hal_pcd.c ****             }
 4621              		.loc 1 1356 15 is_stmt 1 view .LVU1027
 4622 0460 1100     		movs	r1, r2
 4623 0462 D28D     		ldrh	r2, [r2, #46]
 4624 0464 896B     		ldr	r1, [r1, #56]
 4625 0466 FFF7FEFF 		bl	PCD_WritePMA
 4626              	.LVL347:
 4627 046a 5BE7     		b	.L201
 4628              	.L200:
1362:Drivers/STM32F0xx_HAL_Driver/Src/stm32f0xx_hal_pcd.c ****             if (ep->xfer_count != 0U)
 4629              		.loc 1 1362 13 view .LVU1028
1362:Drivers/STM32F0xx_HAL_Driver/Src/stm32f0xx_hal_pcd.c ****             if (ep->xfer_count != 0U)
 4630              		.loc 1 1362 30 is_stmt 0 view .LVU1029
 4631 046c 5022     		movs	r2, #80
 4632 046e 825A     		ldrh	r2, [r0, r2]
 4633 0470 DB00     		lsls	r3, r3, #3
 4634 0472 D318     		adds	r3, r2, r3
 4635 0474 1B18     		adds	r3, r3, r0
 4636 0476 144A     		ldr	r2, .L213+16
 4637 0478 9446     		mov	ip, r2
 4638 047a 6344     		add	r3, r3, ip
 4639 047c 1B88     		ldrh	r3, [r3]
 4640 047e 9B05     		lsls	r3, r3, #22
 4641 0480 9B0D     		lsrs	r3, r3, #22
1362:Drivers/STM32F0xx_HAL_Driver/Src/stm32f0xx_hal_pcd.c ****             if (ep->xfer_count != 0U)
 4642              		.loc 1 1362 28 view .LVU1030
 4643 0482 EA00     		lsls	r2, r5, #3
 4644 0484 521B     		subs	r2, r2, r5
 4645 0486 9200     		lsls	r2, r2, #2
 4646 0488 A218     		adds	r2, r4, r2
 4647 048a 1364     		str	r3, [r2, #64]
1363:Drivers/STM32F0xx_HAL_Driver/Src/stm32f0xx_hal_pcd.c ****             {
 4648              		.loc 1 1363 13 is_stmt 1 view .LVU1031
1363:Drivers/STM32F0xx_HAL_Driver/Src/stm32f0xx_hal_pcd.c ****             {
 4649              		.loc 1 1363 16 is_stmt 0 view .LVU1032
 4650 048c 002B     		cmp	r3, #0
 4651 048e 00D1     		bne	.LCB4809
 4652 0490 48E7     		b	.L201	@long jump
ARM GAS  /tmp/ccwMzrYy.s 			page 115


 4653              	.LCB4809:
1365:Drivers/STM32F0xx_HAL_Driver/Src/stm32f0xx_hal_pcd.c ****             }
 4654              		.loc 1 1365 15 is_stmt 1 view .LVU1033
 4655 0492 1100     		movs	r1, r2
 4656 0494 128E     		ldrh	r2, [r2, #48]
 4657 0496 896B     		ldr	r1, [r1, #56]
 4658 0498 FFF7FEFF 		bl	PCD_WritePMA
 4659              	.LVL348:
 4660 049c 42E7     		b	.L201
 4661              	.L202:
1379:Drivers/STM32F0xx_HAL_Driver/Src/stm32f0xx_hal_pcd.c ****         }
1380:Drivers/STM32F0xx_HAL_Driver/Src/stm32f0xx_hal_pcd.c ****         else
1381:Drivers/STM32F0xx_HAL_Driver/Src/stm32f0xx_hal_pcd.c ****         {
1382:Drivers/STM32F0xx_HAL_Driver/Src/stm32f0xx_hal_pcd.c ****           HAL_PCD_EP_Transmit(hpcd, ep->num, ep->xfer_buff, ep->xfer_len);
 4662              		.loc 1 1382 11 view .LVU1034
 4663 049e E900     		lsls	r1, r5, #3
 4664 04a0 491B     		subs	r1, r1, r5
 4665 04a2 8900     		lsls	r1, r1, #2
 4666 04a4 6118     		adds	r1, r4, r1
 4667 04a6 2831     		adds	r1, r1, #40
 4668 04a8 0978     		ldrb	r1, [r1]
 4669 04aa 2000     		movs	r0, r4
 4670 04ac FFF7FEFF 		bl	HAL_PCD_EP_Transmit
 4671              	.LVL349:
 4672 04b0 6EE7     		b	.L181
 4673              	.LVL350:
 4674              	.L207:
1383:Drivers/STM32F0xx_HAL_Driver/Src/stm32f0xx_hal_pcd.c ****         }
1384:Drivers/STM32F0xx_HAL_Driver/Src/stm32f0xx_hal_pcd.c ****       } 
1385:Drivers/STM32F0xx_HAL_Driver/Src/stm32f0xx_hal_pcd.c ****     }
1386:Drivers/STM32F0xx_HAL_Driver/Src/stm32f0xx_hal_pcd.c ****   }
1387:Drivers/STM32F0xx_HAL_Driver/Src/stm32f0xx_hal_pcd.c ****   return HAL_OK;
 4675              		.loc 1 1387 3 view .LVU1035
1388:Drivers/STM32F0xx_HAL_Driver/Src/stm32f0xx_hal_pcd.c **** }
 4676              		.loc 1 1388 1 is_stmt 0 view .LVU1036
 4677 04b2 0020     		movs	r0, #0
 4678 04b4 03B0     		add	sp, sp, #12
 4679              		@ sp needed
 4680              	.LVL351:
 4681              		.loc 1 1388 1 view .LVU1037
 4682 04b6 F0BD     		pop	{r4, r5, r6, r7, pc}
 4683              	.L214:
 4684              		.align	2
 4685              	.L213:
 4686 04b8 02040000 		.word	1026
 4687 04bc 0F0F0000 		.word	3855
 4688 04c0 80C0FFFF 		.word	-16256
 4689 04c4 8F0F0000 		.word	3983
 4690 04c8 06040000 		.word	1030
 4691 04cc 0080FFFF 		.word	-32768
 4692 04d0 8FBFFFFF 		.word	-16497
 4693 04d4 8080FFFF 		.word	-32640
 4694              		.cfi_endproc
 4695              	.LFE71:
 4697              		.section	.text.HAL_PCD_IRQHandler,"ax",%progbits
 4698              		.align	1
 4699              		.global	HAL_PCD_IRQHandler
ARM GAS  /tmp/ccwMzrYy.s 			page 116


 4700              		.syntax unified
 4701              		.code	16
 4702              		.thumb_func
 4703              		.fpu softvfp
 4705              	HAL_PCD_IRQHandler:
 4706              	.LVL352:
 4707              	.LFB43:
 328:Drivers/STM32F0xx_HAL_Driver/Src/stm32f0xx_hal_pcd.c ****   uint32_t wInterrupt_Mask = 0U;
 4708              		.loc 1 328 1 is_stmt 1 view -0
 4709              		.cfi_startproc
 4710              		@ args = 0, pretend = 0, frame = 0
 4711              		@ frame_needed = 0, uses_anonymous_args = 0
 328:Drivers/STM32F0xx_HAL_Driver/Src/stm32f0xx_hal_pcd.c ****   uint32_t wInterrupt_Mask = 0U;
 4712              		.loc 1 328 1 is_stmt 0 view .LVU1039
 4713 0000 70B5     		push	{r4, r5, r6, lr}
 4714              	.LCFI15:
 4715              		.cfi_def_cfa_offset 16
 4716              		.cfi_offset 4, -16
 4717              		.cfi_offset 5, -12
 4718              		.cfi_offset 6, -8
 4719              		.cfi_offset 14, -4
 4720 0002 0400     		movs	r4, r0
 329:Drivers/STM32F0xx_HAL_Driver/Src/stm32f0xx_hal_pcd.c ****   
 4721              		.loc 1 329 3 is_stmt 1 view .LVU1040
 4722              	.LVL353:
 331:Drivers/STM32F0xx_HAL_Driver/Src/stm32f0xx_hal_pcd.c ****   {
 4723              		.loc 1 331 3 view .LVU1041
 331:Drivers/STM32F0xx_HAL_Driver/Src/stm32f0xx_hal_pcd.c ****   {
 4724              		.loc 1 331 7 is_stmt 0 view .LVU1042
 4725 0004 4423     		movs	r3, #68
 4726 0006 0268     		ldr	r2, [r0]
 4727 0008 D35A     		ldrh	r3, [r2, r3]
 331:Drivers/STM32F0xx_HAL_Driver/Src/stm32f0xx_hal_pcd.c ****   {
 4728              		.loc 1 331 6 view .LVU1043
 4729 000a 1BB2     		sxth	r3, r3
 4730 000c 002B     		cmp	r3, #0
 4731 000e 46DB     		blt	.L224
 4732              	.LVL354:
 4733              	.L216:
 338:Drivers/STM32F0xx_HAL_Driver/Src/stm32f0xx_hal_pcd.c ****   {
 4734              		.loc 1 338 3 is_stmt 1 view .LVU1044
 338:Drivers/STM32F0xx_HAL_Driver/Src/stm32f0xx_hal_pcd.c ****   {
 4735              		.loc 1 338 7 is_stmt 0 view .LVU1045
 4736 0010 2368     		ldr	r3, [r4]
 4737 0012 4422     		movs	r2, #68
 4738 0014 9A5A     		ldrh	r2, [r3, r2]
 338:Drivers/STM32F0xx_HAL_Driver/Src/stm32f0xx_hal_pcd.c ****   {
 4739              		.loc 1 338 6 view .LVU1046
 4740 0016 5205     		lsls	r2, r2, #21
 4741 0018 44D4     		bmi	.L225
 4742              	.L217:
 345:Drivers/STM32F0xx_HAL_Driver/Src/stm32f0xx_hal_pcd.c ****   {
 4743              		.loc 1 345 3 is_stmt 1 view .LVU1047
 345:Drivers/STM32F0xx_HAL_Driver/Src/stm32f0xx_hal_pcd.c ****   {
 4744              		.loc 1 345 7 is_stmt 0 view .LVU1048
 4745 001a 2368     		ldr	r3, [r4]
 4746 001c 4422     		movs	r2, #68
ARM GAS  /tmp/ccwMzrYy.s 			page 117


 4747 001e 9A5A     		ldrh	r2, [r3, r2]
 345:Drivers/STM32F0xx_HAL_Driver/Src/stm32f0xx_hal_pcd.c ****   {
 4748              		.loc 1 345 6 view .LVU1049
 4749 0020 5204     		lsls	r2, r2, #17
 4750 0022 04D5     		bpl	.L218
 347:Drivers/STM32F0xx_HAL_Driver/Src/stm32f0xx_hal_pcd.c ****   }
 4751              		.loc 1 347 5 is_stmt 1 view .LVU1050
 4752 0024 4421     		movs	r1, #68
 4753 0026 5A5A     		ldrh	r2, [r3, r1]
 4754 0028 3448     		ldr	r0, .L229
 4755 002a 0240     		ands	r2, r0
 4756 002c 5A52     		strh	r2, [r3, r1]
 4757              	.L218:
 350:Drivers/STM32F0xx_HAL_Driver/Src/stm32f0xx_hal_pcd.c ****   {
 4758              		.loc 1 350 3 view .LVU1051
 350:Drivers/STM32F0xx_HAL_Driver/Src/stm32f0xx_hal_pcd.c ****   {
 4759              		.loc 1 350 7 is_stmt 0 view .LVU1052
 4760 002e 2368     		ldr	r3, [r4]
 4761 0030 4422     		movs	r2, #68
 4762 0032 9A5A     		ldrh	r2, [r3, r2]
 350:Drivers/STM32F0xx_HAL_Driver/Src/stm32f0xx_hal_pcd.c ****   {
 4763              		.loc 1 350 6 view .LVU1053
 4764 0034 9204     		lsls	r2, r2, #18
 4765 0036 04D5     		bpl	.L219
 352:Drivers/STM32F0xx_HAL_Driver/Src/stm32f0xx_hal_pcd.c ****   }
 4766              		.loc 1 352 5 is_stmt 1 view .LVU1054
 4767 0038 4421     		movs	r1, #68
 4768 003a 5A5A     		ldrh	r2, [r3, r1]
 4769 003c 3048     		ldr	r0, .L229+4
 4770 003e 0240     		ands	r2, r0
 4771 0040 5A52     		strh	r2, [r3, r1]
 4772              	.L219:
 355:Drivers/STM32F0xx_HAL_Driver/Src/stm32f0xx_hal_pcd.c ****   {
 4773              		.loc 1 355 3 view .LVU1055
 355:Drivers/STM32F0xx_HAL_Driver/Src/stm32f0xx_hal_pcd.c ****   {
 4774              		.loc 1 355 7 is_stmt 0 view .LVU1056
 4775 0042 2368     		ldr	r3, [r4]
 4776 0044 4422     		movs	r2, #68
 4777 0046 9A5A     		ldrh	r2, [r3, r2]
 355:Drivers/STM32F0xx_HAL_Driver/Src/stm32f0xx_hal_pcd.c ****   {
 4778              		.loc 1 355 6 view .LVU1057
 4779 0048 D204     		lsls	r2, r2, #19
 4780 004a 38D4     		bmi	.L226
 4781              	.LVL355:
 4782              	.L220:
 372:Drivers/STM32F0xx_HAL_Driver/Src/stm32f0xx_hal_pcd.c ****   {    
 4783              		.loc 1 372 3 is_stmt 1 view .LVU1058
 372:Drivers/STM32F0xx_HAL_Driver/Src/stm32f0xx_hal_pcd.c ****   {    
 4784              		.loc 1 372 7 is_stmt 0 view .LVU1059
 4785 004c 2368     		ldr	r3, [r4]
 4786 004e 4422     		movs	r2, #68
 4787 0050 9A5A     		ldrh	r2, [r3, r2]
 372:Drivers/STM32F0xx_HAL_Driver/Src/stm32f0xx_hal_pcd.c ****   {    
 4788              		.loc 1 372 6 view .LVU1060
 4789 0052 1205     		lsls	r2, r2, #20
 4790 0054 13D5     		bpl	.L221
 375:Drivers/STM32F0xx_HAL_Driver/Src/stm32f0xx_hal_pcd.c ****     
ARM GAS  /tmp/ccwMzrYy.s 			page 118


 4791              		.loc 1 375 5 is_stmt 1 view .LVU1061
 4792 0056 4422     		movs	r2, #68
 4793 0058 995A     		ldrh	r1, [r3, r2]
 4794 005a 2A48     		ldr	r0, .L229+8
 4795 005c 0140     		ands	r1, r0
 4796 005e 9952     		strh	r1, [r3, r2]
 378:Drivers/STM32F0xx_HAL_Driver/Src/stm32f0xx_hal_pcd.c ****     hpcd->Instance->CNTR |= USB_CNTR_LPMODE;
 4797              		.loc 1 378 5 view .LVU1062
 378:Drivers/STM32F0xx_HAL_Driver/Src/stm32f0xx_hal_pcd.c ****     hpcd->Instance->CNTR |= USB_CNTR_LPMODE;
 4798              		.loc 1 378 9 is_stmt 0 view .LVU1063
 4799 0060 2068     		ldr	r0, [r4]
 378:Drivers/STM32F0xx_HAL_Driver/Src/stm32f0xx_hal_pcd.c ****     hpcd->Instance->CNTR |= USB_CNTR_LPMODE;
 4800              		.loc 1 378 26 view .LVU1064
 4801 0062 4023     		movs	r3, #64
 4802 0064 C15A     		ldrh	r1, [r0, r3]
 4803 0066 0825     		movs	r5, #8
 4804 0068 2943     		orrs	r1, r5
 4805 006a C152     		strh	r1, [r0, r3]
 379:Drivers/STM32F0xx_HAL_Driver/Src/stm32f0xx_hal_pcd.c **** 
 4806              		.loc 1 379 5 is_stmt 1 view .LVU1065
 379:Drivers/STM32F0xx_HAL_Driver/Src/stm32f0xx_hal_pcd.c **** 
 4807              		.loc 1 379 9 is_stmt 0 view .LVU1066
 4808 006c 2068     		ldr	r0, [r4]
 379:Drivers/STM32F0xx_HAL_Driver/Src/stm32f0xx_hal_pcd.c **** 
 4809              		.loc 1 379 26 view .LVU1067
 4810 006e C15A     		ldrh	r1, [r0, r3]
 4811 0070 0425     		movs	r5, #4
 4812 0072 2943     		orrs	r1, r5
 4813 0074 C152     		strh	r1, [r0, r3]
 381:Drivers/STM32F0xx_HAL_Driver/Src/stm32f0xx_hal_pcd.c ****     {
 4814              		.loc 1 381 5 is_stmt 1 view .LVU1068
 381:Drivers/STM32F0xx_HAL_Driver/Src/stm32f0xx_hal_pcd.c ****     {
 4815              		.loc 1 381 9 is_stmt 0 view .LVU1069
 4816 0076 2368     		ldr	r3, [r4]
 4817 0078 9B5A     		ldrh	r3, [r3, r2]
 381:Drivers/STM32F0xx_HAL_Driver/Src/stm32f0xx_hal_pcd.c ****     {
 4818              		.loc 1 381 8 view .LVU1070
 4819 007a DB04     		lsls	r3, r3, #19
 4820 007c 31D5     		bpl	.L227
 4821              	.L221:
 387:Drivers/STM32F0xx_HAL_Driver/Src/stm32f0xx_hal_pcd.c ****   {
 4822              		.loc 1 387 3 is_stmt 1 view .LVU1071
 387:Drivers/STM32F0xx_HAL_Driver/Src/stm32f0xx_hal_pcd.c ****   {
 4823              		.loc 1 387 7 is_stmt 0 view .LVU1072
 4824 007e 2368     		ldr	r3, [r4]
 4825 0080 4422     		movs	r2, #68
 4826 0082 9A5A     		ldrh	r2, [r3, r2]
 387:Drivers/STM32F0xx_HAL_Driver/Src/stm32f0xx_hal_pcd.c ****   {
 4827              		.loc 1 387 6 view .LVU1073
 4828 0084 9205     		lsls	r2, r2, #22
 4829 0086 30D4     		bmi	.L228
 4830              	.L222:
 393:Drivers/STM32F0xx_HAL_Driver/Src/stm32f0xx_hal_pcd.c ****   {
 4831              		.loc 1 393 3 is_stmt 1 view .LVU1074
 393:Drivers/STM32F0xx_HAL_Driver/Src/stm32f0xx_hal_pcd.c ****   {
 4832              		.loc 1 393 7 is_stmt 0 view .LVU1075
 4833 0088 2368     		ldr	r3, [r4]
ARM GAS  /tmp/ccwMzrYy.s 			page 119


 4834 008a 4422     		movs	r2, #68
 4835 008c 9A5A     		ldrh	r2, [r3, r2]
 393:Drivers/STM32F0xx_HAL_Driver/Src/stm32f0xx_hal_pcd.c ****   {
 4836              		.loc 1 393 6 view .LVU1076
 4837 008e D205     		lsls	r2, r2, #23
 4838 0090 04D5     		bpl	.L215
 396:Drivers/STM32F0xx_HAL_Driver/Src/stm32f0xx_hal_pcd.c ****   }
 4839              		.loc 1 396 5 is_stmt 1 view .LVU1077
 4840 0092 4421     		movs	r1, #68
 4841 0094 5A5A     		ldrh	r2, [r3, r1]
 4842 0096 1C48     		ldr	r0, .L229+12
 4843 0098 0240     		ands	r2, r0
 4844 009a 5A52     		strh	r2, [r3, r1]
 4845              	.L215:
 398:Drivers/STM32F0xx_HAL_Driver/Src/stm32f0xx_hal_pcd.c **** 
 4846              		.loc 1 398 1 is_stmt 0 view .LVU1078
 4847              		@ sp needed
 4848              	.LVL356:
 398:Drivers/STM32F0xx_HAL_Driver/Src/stm32f0xx_hal_pcd.c **** 
 4849              		.loc 1 398 1 view .LVU1079
 4850 009c 70BD     		pop	{r4, r5, r6, pc}
 4851              	.LVL357:
 4852              	.L224:
 335:Drivers/STM32F0xx_HAL_Driver/Src/stm32f0xx_hal_pcd.c ****   }
 4853              		.loc 1 335 5 is_stmt 1 view .LVU1080
 4854 009e FFF7FEFF 		bl	PCD_EP_ISR_Handler
 4855              	.LVL358:
 335:Drivers/STM32F0xx_HAL_Driver/Src/stm32f0xx_hal_pcd.c ****   }
 4856              		.loc 1 335 5 is_stmt 0 view .LVU1081
 4857 00a2 B5E7     		b	.L216
 4858              	.L225:
 340:Drivers/STM32F0xx_HAL_Driver/Src/stm32f0xx_hal_pcd.c ****     HAL_PCD_ResetCallback(hpcd);
 4859              		.loc 1 340 5 is_stmt 1 view .LVU1082
 4860 00a4 4421     		movs	r1, #68
 4861 00a6 5A5A     		ldrh	r2, [r3, r1]
 4862 00a8 1848     		ldr	r0, .L229+16
 4863 00aa 0240     		ands	r2, r0
 4864 00ac 5A52     		strh	r2, [r3, r1]
 341:Drivers/STM32F0xx_HAL_Driver/Src/stm32f0xx_hal_pcd.c ****     HAL_PCD_SetAddress(hpcd, 0U);
 4865              		.loc 1 341 5 view .LVU1083
 4866 00ae 2000     		movs	r0, r4
 4867 00b0 FFF7FEFF 		bl	HAL_PCD_ResetCallback
 4868              	.LVL359:
 342:Drivers/STM32F0xx_HAL_Driver/Src/stm32f0xx_hal_pcd.c ****   }
 4869              		.loc 1 342 5 view .LVU1084
 4870 00b4 0021     		movs	r1, #0
 4871 00b6 2000     		movs	r0, r4
 4872 00b8 FFF7FEFF 		bl	HAL_PCD_SetAddress
 4873              	.LVL360:
 4874 00bc ADE7     		b	.L217
 4875              	.L226:
 358:Drivers/STM32F0xx_HAL_Driver/Src/stm32f0xx_hal_pcd.c **** 
 4876              		.loc 1 358 5 view .LVU1085
 358:Drivers/STM32F0xx_HAL_Driver/Src/stm32f0xx_hal_pcd.c **** 
 4877              		.loc 1 358 26 is_stmt 0 view .LVU1086
 4878 00be 4022     		movs	r2, #64
 4879 00c0 995A     		ldrh	r1, [r3, r2]
ARM GAS  /tmp/ccwMzrYy.s 			page 120


 4880 00c2 0420     		movs	r0, #4
 4881 00c4 8143     		bics	r1, r0
 4882 00c6 9952     		strh	r1, [r3, r2]
 361:Drivers/STM32F0xx_HAL_Driver/Src/stm32f0xx_hal_pcd.c ****       | USB_CNTR_ESOFM | USB_CNTR_RESETM;
 4883              		.loc 1 361 5 is_stmt 1 view .LVU1087
 4884              	.LVL361:
 365:Drivers/STM32F0xx_HAL_Driver/Src/stm32f0xx_hal_pcd.c ****     
 4885              		.loc 1 365 5 view .LVU1088
 365:Drivers/STM32F0xx_HAL_Driver/Src/stm32f0xx_hal_pcd.c ****     
 4886              		.loc 1 365 26 is_stmt 0 view .LVU1089
 4887 00c8 114B     		ldr	r3, .L229+20
 4888 00ca 2168     		ldr	r1, [r4]
 4889 00cc 8B52     		strh	r3, [r1, r2]
 367:Drivers/STM32F0xx_HAL_Driver/Src/stm32f0xx_hal_pcd.c ****     
 4890              		.loc 1 367 5 is_stmt 1 view .LVU1090
 4891 00ce 2000     		movs	r0, r4
 4892 00d0 FFF7FEFF 		bl	HAL_PCD_ResumeCallback
 4893              	.LVL362:
 369:Drivers/STM32F0xx_HAL_Driver/Src/stm32f0xx_hal_pcd.c ****   }
 4894              		.loc 1 369 5 view .LVU1091
 4895 00d4 2168     		ldr	r1, [r4]
 4896 00d6 4422     		movs	r2, #68
 4897 00d8 8B5A     		ldrh	r3, [r1, r2]
 4898 00da 0E48     		ldr	r0, .L229+24
 4899 00dc 0340     		ands	r3, r0
 4900 00de 8B52     		strh	r3, [r1, r2]
 4901 00e0 B4E7     		b	.L220
 4902              	.LVL363:
 4903              	.L227:
 383:Drivers/STM32F0xx_HAL_Driver/Src/stm32f0xx_hal_pcd.c ****     }
 4904              		.loc 1 383 7 view .LVU1092
 4905 00e2 2000     		movs	r0, r4
 4906 00e4 FFF7FEFF 		bl	HAL_PCD_SuspendCallback
 4907              	.LVL364:
 4908 00e8 C9E7     		b	.L221
 4909              	.L228:
 389:Drivers/STM32F0xx_HAL_Driver/Src/stm32f0xx_hal_pcd.c ****     HAL_PCD_SOFCallback(hpcd);
 4910              		.loc 1 389 5 view .LVU1093
 4911 00ea 4421     		movs	r1, #68
 4912 00ec 5A5A     		ldrh	r2, [r3, r1]
 4913 00ee 0A48     		ldr	r0, .L229+28
 4914 00f0 0240     		ands	r2, r0
 4915 00f2 5A52     		strh	r2, [r3, r1]
 390:Drivers/STM32F0xx_HAL_Driver/Src/stm32f0xx_hal_pcd.c ****   }
 4916              		.loc 1 390 5 view .LVU1094
 4917 00f4 2000     		movs	r0, r4
 4918 00f6 FFF7FEFF 		bl	HAL_PCD_SOFCallback
 4919              	.LVL365:
 4920 00fa C5E7     		b	.L222
 4921              	.L230:
 4922              		.align	2
 4923              	.L229:
 4924 00fc FFBFFFFF 		.word	-16385
 4925 0100 FFDFFFFF 		.word	-8193
 4926 0104 FFF7FFFF 		.word	-2049
 4927 0108 FFFEFFFF 		.word	-257
 4928 010c FFFBFFFF 		.word	-1025
ARM GAS  /tmp/ccwMzrYy.s 			page 121


 4929 0110 00BDFFFF 		.word	-17152
 4930 0114 FFEFFFFF 		.word	-4097
 4931 0118 FFFDFFFF 		.word	-513
 4932              		.cfi_endproc
 4933              	.LFE43:
 4935              		.text
 4936              	.Letext0:
 4937              		.file 2 "/usr/arm-none-eabi/include/machine/_default_types.h"
 4938              		.file 3 "/usr/arm-none-eabi/include/sys/_stdint.h"
 4939              		.file 4 "Drivers/CMSIS/Device/ST/STM32F0xx/Include/system_stm32f0xx.h"
 4940              		.file 5 "Drivers/CMSIS/Device/ST/STM32F0xx/Include/stm32f072xb.h"
 4941              		.file 6 "/usr/arm-none-eabi/include/sys/lock.h"
 4942              		.file 7 "/usr/arm-none-eabi/include/sys/_types.h"
 4943              		.file 8 "/usr/lib/gcc/arm-none-eabi/9.1.0/include/stddef.h"
 4944              		.file 9 "/usr/arm-none-eabi/include/sys/reent.h"
 4945              		.file 10 "Drivers/STM32F0xx_HAL_Driver/Inc/stm32f0xx_hal_def.h"
 4946              		.file 11 "Drivers/STM32F0xx_HAL_Driver/Inc/stm32f0xx_hal_pcd.h"
ARM GAS  /tmp/ccwMzrYy.s 			page 122


DEFINED SYMBOLS
                            *ABS*:0000000000000000 stm32f0xx_hal_pcd.c
     /tmp/ccwMzrYy.s:16     .text.HAL_PCD_MspInit:0000000000000000 $t
     /tmp/ccwMzrYy.s:24     .text.HAL_PCD_MspInit:0000000000000000 HAL_PCD_MspInit
     /tmp/ccwMzrYy.s:41     .text.HAL_PCD_Init:0000000000000000 $t
     /tmp/ccwMzrYy.s:48     .text.HAL_PCD_Init:0000000000000000 HAL_PCD_Init
     /tmp/ccwMzrYy.s:253    .text.HAL_PCD_Init:00000000000000bc $d
     /tmp/ccwMzrYy.s:258    .text.HAL_PCD_MspDeInit:0000000000000000 $t
     /tmp/ccwMzrYy.s:265    .text.HAL_PCD_MspDeInit:0000000000000000 HAL_PCD_MspDeInit
     /tmp/ccwMzrYy.s:281    .text.HAL_PCD_Start:0000000000000000 $t
     /tmp/ccwMzrYy.s:288    .text.HAL_PCD_Start:0000000000000000 HAL_PCD_Start
     /tmp/ccwMzrYy.s:316    .text.HAL_PCD_Start:0000000000000014 $d
     /tmp/ccwMzrYy.s:321    .text.HAL_PCD_Stop:0000000000000000 $t
     /tmp/ccwMzrYy.s:328    .text.HAL_PCD_Stop:0000000000000000 HAL_PCD_Stop
     /tmp/ccwMzrYy.s:391    .text.HAL_PCD_DeInit:0000000000000000 $t
     /tmp/ccwMzrYy.s:398    .text.HAL_PCD_DeInit:0000000000000000 HAL_PCD_DeInit
     /tmp/ccwMzrYy.s:454    .text.HAL_PCD_DataOutStageCallback:0000000000000000 $t
     /tmp/ccwMzrYy.s:461    .text.HAL_PCD_DataOutStageCallback:0000000000000000 HAL_PCD_DataOutStageCallback
     /tmp/ccwMzrYy.s:478    .text.HAL_PCD_DataInStageCallback:0000000000000000 $t
     /tmp/ccwMzrYy.s:485    .text.HAL_PCD_DataInStageCallback:0000000000000000 HAL_PCD_DataInStageCallback
     /tmp/ccwMzrYy.s:502    .text.HAL_PCD_SetupStageCallback:0000000000000000 $t
     /tmp/ccwMzrYy.s:509    .text.HAL_PCD_SetupStageCallback:0000000000000000 HAL_PCD_SetupStageCallback
     /tmp/ccwMzrYy.s:525    .text.HAL_PCD_SOFCallback:0000000000000000 $t
     /tmp/ccwMzrYy.s:532    .text.HAL_PCD_SOFCallback:0000000000000000 HAL_PCD_SOFCallback
     /tmp/ccwMzrYy.s:548    .text.HAL_PCD_ResetCallback:0000000000000000 $t
     /tmp/ccwMzrYy.s:555    .text.HAL_PCD_ResetCallback:0000000000000000 HAL_PCD_ResetCallback
     /tmp/ccwMzrYy.s:571    .text.HAL_PCD_SuspendCallback:0000000000000000 $t
     /tmp/ccwMzrYy.s:578    .text.HAL_PCD_SuspendCallback:0000000000000000 HAL_PCD_SuspendCallback
     /tmp/ccwMzrYy.s:594    .text.HAL_PCD_ResumeCallback:0000000000000000 $t
     /tmp/ccwMzrYy.s:601    .text.HAL_PCD_ResumeCallback:0000000000000000 HAL_PCD_ResumeCallback
     /tmp/ccwMzrYy.s:617    .text.HAL_PCD_ISOOUTIncompleteCallback:0000000000000000 $t
     /tmp/ccwMzrYy.s:624    .text.HAL_PCD_ISOOUTIncompleteCallback:0000000000000000 HAL_PCD_ISOOUTIncompleteCallback
     /tmp/ccwMzrYy.s:641    .text.HAL_PCD_ISOINIncompleteCallback:0000000000000000 $t
     /tmp/ccwMzrYy.s:648    .text.HAL_PCD_ISOINIncompleteCallback:0000000000000000 HAL_PCD_ISOINIncompleteCallback
     /tmp/ccwMzrYy.s:665    .text.HAL_PCD_ConnectCallback:0000000000000000 $t
     /tmp/ccwMzrYy.s:672    .text.HAL_PCD_ConnectCallback:0000000000000000 HAL_PCD_ConnectCallback
     /tmp/ccwMzrYy.s:688    .text.HAL_PCD_DisconnectCallback:0000000000000000 $t
     /tmp/ccwMzrYy.s:695    .text.HAL_PCD_DisconnectCallback:0000000000000000 HAL_PCD_DisconnectCallback
     /tmp/ccwMzrYy.s:711    .text.HAL_PCD_DevConnect:0000000000000000 $t
     /tmp/ccwMzrYy.s:718    .text.HAL_PCD_DevConnect:0000000000000000 HAL_PCD_DevConnect
     /tmp/ccwMzrYy.s:776    .text.HAL_PCD_DevConnect:0000000000000030 $d
     /tmp/ccwMzrYy.s:781    .text.HAL_PCD_DevDisconnect:0000000000000000 $t
     /tmp/ccwMzrYy.s:788    .text.HAL_PCD_DevDisconnect:0000000000000000 HAL_PCD_DevDisconnect
     /tmp/ccwMzrYy.s:845    .text.HAL_PCD_SetAddress:0000000000000000 $t
     /tmp/ccwMzrYy.s:852    .text.HAL_PCD_SetAddress:0000000000000000 HAL_PCD_SetAddress
     /tmp/ccwMzrYy.s:917    .text.HAL_PCD_EP_Open:0000000000000000 $t
     /tmp/ccwMzrYy.s:924    .text.HAL_PCD_EP_Open:0000000000000000 HAL_PCD_EP_Open
     /tmp/ccwMzrYy.s:1590   .text.HAL_PCD_EP_Open:0000000000000354 $d
     /tmp/ccwMzrYy.s:1609   .text.HAL_PCD_EP_Close:0000000000000000 $t
     /tmp/ccwMzrYy.s:1616   .text.HAL_PCD_EP_Close:0000000000000000 HAL_PCD_EP_Close
     /tmp/ccwMzrYy.s:2015   .text.HAL_PCD_EP_Close:00000000000001e0 $d
     /tmp/ccwMzrYy.s:2025   .text.HAL_PCD_EP_Receive:0000000000000000 $t
     /tmp/ccwMzrYy.s:2032   .text.HAL_PCD_EP_Receive:0000000000000000 HAL_PCD_EP_Receive
     /tmp/ccwMzrYy.s:2487   .text.HAL_PCD_EP_Receive:00000000000001fc $d
     /tmp/ccwMzrYy.s:2496   .text.HAL_PCD_EP_GetRxCount:0000000000000000 $t
     /tmp/ccwMzrYy.s:2503   .text.HAL_PCD_EP_GetRxCount:0000000000000000 HAL_PCD_EP_GetRxCount
     /tmp/ccwMzrYy.s:2536   .text.HAL_PCD_EP_SetStall:0000000000000000 $t
ARM GAS  /tmp/ccwMzrYy.s 			page 123


     /tmp/ccwMzrYy.s:2543   .text.HAL_PCD_EP_SetStall:0000000000000000 HAL_PCD_EP_SetStall
     /tmp/ccwMzrYy.s:2740   .text.HAL_PCD_EP_SetStall:00000000000000b4 $d
     /tmp/ccwMzrYy.s:2749   .text.HAL_PCD_EP_ClrStall:0000000000000000 $t
     /tmp/ccwMzrYy.s:2756   .text.HAL_PCD_EP_ClrStall:0000000000000000 HAL_PCD_EP_ClrStall
     /tmp/ccwMzrYy.s:2960   .text.HAL_PCD_EP_ClrStall:00000000000000d4 $d
     /tmp/ccwMzrYy.s:2970   .text.HAL_PCD_EP_Flush:0000000000000000 $t
     /tmp/ccwMzrYy.s:2977   .text.HAL_PCD_EP_Flush:0000000000000000 HAL_PCD_EP_Flush
     /tmp/ccwMzrYy.s:2996   .text.HAL_PCD_ActivateRemoteWakeup:0000000000000000 $t
     /tmp/ccwMzrYy.s:3003   .text.HAL_PCD_ActivateRemoteWakeup:0000000000000000 HAL_PCD_ActivateRemoteWakeup
     /tmp/ccwMzrYy.s:3051   .text.HAL_PCD_DeActivateRemoteWakeup:0000000000000000 $t
     /tmp/ccwMzrYy.s:3058   .text.HAL_PCD_DeActivateRemoteWakeup:0000000000000000 HAL_PCD_DeActivateRemoteWakeup
     /tmp/ccwMzrYy.s:3106   .text.HAL_PCD_GetState:0000000000000000 $t
     /tmp/ccwMzrYy.s:3113   .text.HAL_PCD_GetState:0000000000000000 HAL_PCD_GetState
     /tmp/ccwMzrYy.s:3136   .text.PCD_WritePMA:0000000000000000 $t
     /tmp/ccwMzrYy.s:3143   .text.PCD_WritePMA:0000000000000000 PCD_WritePMA
     /tmp/ccwMzrYy.s:3220   .text.HAL_PCD_EP_Transmit:0000000000000000 $t
     /tmp/ccwMzrYy.s:3227   .text.HAL_PCD_EP_Transmit:0000000000000000 HAL_PCD_EP_Transmit
     /tmp/ccwMzrYy.s:3681   .text.HAL_PCD_EP_Transmit:0000000000000208 $d
     /tmp/ccwMzrYy.s:3693   .text.PCD_ReadPMA:0000000000000000 $t
     /tmp/ccwMzrYy.s:3700   .text.PCD_ReadPMA:0000000000000000 PCD_ReadPMA
     /tmp/ccwMzrYy.s:3786   .text.PCD_EP_ISR_Handler:0000000000000000 $t
     /tmp/ccwMzrYy.s:3792   .text.PCD_EP_ISR_Handler:0000000000000000 PCD_EP_ISR_Handler
     /tmp/ccwMzrYy.s:4320   .text.PCD_EP_ISR_Handler:00000000000002cc $d
     /tmp/ccwMzrYy.s:4330   .text.PCD_EP_ISR_Handler:00000000000002e4 $t
     /tmp/ccwMzrYy.s:4686   .text.PCD_EP_ISR_Handler:00000000000004b8 $d
     /tmp/ccwMzrYy.s:4698   .text.HAL_PCD_IRQHandler:0000000000000000 $t
     /tmp/ccwMzrYy.s:4705   .text.HAL_PCD_IRQHandler:0000000000000000 HAL_PCD_IRQHandler
     /tmp/ccwMzrYy.s:4924   .text.HAL_PCD_IRQHandler:00000000000000fc $d

NO UNDEFINED SYMBOLS
