ARM GAS  /tmp/ccVcNwlp.s 			page 1


   1              		.cpu cortex-m0
   2              		.eabi_attribute 20, 1
   3              		.eabi_attribute 21, 1
   4              		.eabi_attribute 23, 3
   5              		.eabi_attribute 24, 1
   6              		.eabi_attribute 25, 1
   7              		.eabi_attribute 26, 1
   8              		.eabi_attribute 30, 1
   9              		.eabi_attribute 34, 0
  10              		.eabi_attribute 18, 4
  11              		.file	"stm32f0xx_it.c"
  12              		.text
  13              	.Ltext0:
  14              		.cfi_sections	.debug_frame
  15              		.section	.text.NMI_Handler,"ax",%progbits
  16              		.align	1
  17              		.global	NMI_Handler
  18              		.syntax unified
  19              		.code	16
  20              		.thumb_func
  21              		.fpu softvfp
  23              	NMI_Handler:
  24              	.LFB37:
  25              		.file 1 "Src/stm32f0xx_it.c"
   1:Src/stm32f0xx_it.c **** 
   2:Src/stm32f0xx_it.c **** /*
   3:Src/stm32f0xx_it.c ****  * Otter-Iron  -  Stm32f072 based soldering iron.
   4:Src/stm32f0xx_it.c ****  * Copyright (C) 2019 Jan Henrik Hemsing
   5:Src/stm32f0xx_it.c ****  *
   6:Src/stm32f0xx_it.c ****  * This program is free software: you can redistribute it and/or modify it
   7:Src/stm32f0xx_it.c ****  * under the terms of the GNU General Public License as published by the Free
   8:Src/stm32f0xx_it.c ****  * Software Foundation, either version 3 of the License, or (at your option)
   9:Src/stm32f0xx_it.c ****  * any later version.
  10:Src/stm32f0xx_it.c ****  *
  11:Src/stm32f0xx_it.c ****  * This program is distributed in the hope that it will be useful, but WITHOUT
  12:Src/stm32f0xx_it.c ****  * ANY WARRANTY; without even the implied warranty of  MERCHANTABILITY or
  13:Src/stm32f0xx_it.c ****  * FITNESS FOR A PARTICULAR PURPOSE. See the GNU General Public License for
  14:Src/stm32f0xx_it.c ****  * more details.
  15:Src/stm32f0xx_it.c ****  *
  16:Src/stm32f0xx_it.c ****  * You should have received a copy of the GNU General Public License along with
  17:Src/stm32f0xx_it.c ****  * this program.  If not, see <http://www.gnu.org/licenses/>.
  18:Src/stm32f0xx_it.c ****  */
  19:Src/stm32f0xx_it.c **** 
  20:Src/stm32f0xx_it.c **** #include "main.h"
  21:Src/stm32f0xx_it.c **** #include "stm32f0xx_it.h"
  22:Src/stm32f0xx_it.c **** 
  23:Src/stm32f0xx_it.c **** extern ADC_HandleTypeDef hadc;
  24:Src/stm32f0xx_it.c **** extern DMA_HandleTypeDef hdma_adc;
  25:Src/stm32f0xx_it.c **** 
  26:Src/stm32f0xx_it.c **** extern TIM_HandleTypeDef htim1;
  27:Src/stm32f0xx_it.c **** 
  28:Src/stm32f0xx_it.c **** extern void reg(void);
  29:Src/stm32f0xx_it.c **** 
  30:Src/stm32f0xx_it.c **** void NMI_Handler(void)
  31:Src/stm32f0xx_it.c **** {
  26              		.loc 1 31 0
  27              		.cfi_startproc
ARM GAS  /tmp/ccVcNwlp.s 			page 2


  28              		@ args = 0, pretend = 0, frame = 0
  29              		@ frame_needed = 0, uses_anonymous_args = 0
  30              		@ link register save eliminated.
  32:Src/stm32f0xx_it.c **** 
  33:Src/stm32f0xx_it.c **** }
  31              		.loc 1 33 0
  32              		@ sp needed
  33 0000 7047     		bx	lr
  34              		.cfi_endproc
  35              	.LFE37:
  37              		.section	.text.HardFault_Handler,"ax",%progbits
  38              		.align	1
  39              		.global	HardFault_Handler
  40              		.syntax unified
  41              		.code	16
  42              		.thumb_func
  43              		.fpu softvfp
  45              	HardFault_Handler:
  46              	.LFB38:
  34:Src/stm32f0xx_it.c **** 
  35:Src/stm32f0xx_it.c **** void HardFault_Handler(void)
  36:Src/stm32f0xx_it.c **** {
  47              		.loc 1 36 0
  48              		.cfi_startproc
  49              		@ Volatile: function does not return.
  50              		@ args = 0, pretend = 0, frame = 0
  51              		@ frame_needed = 0, uses_anonymous_args = 0
  52              		@ link register save eliminated.
  53              	.L3:
  54 0000 FEE7     		b	.L3
  55              		.cfi_endproc
  56              	.LFE38:
  58              		.section	.text.SVC_Handler,"ax",%progbits
  59              		.align	1
  60              		.global	SVC_Handler
  61              		.syntax unified
  62              		.code	16
  63              		.thumb_func
  64              		.fpu softvfp
  66              	SVC_Handler:
  67              	.LFB39:
  37:Src/stm32f0xx_it.c ****   while (1)
  38:Src/stm32f0xx_it.c ****   {
  39:Src/stm32f0xx_it.c ****   }
  40:Src/stm32f0xx_it.c **** }
  41:Src/stm32f0xx_it.c **** 
  42:Src/stm32f0xx_it.c **** void SVC_Handler(void)
  43:Src/stm32f0xx_it.c **** {
  68              		.loc 1 43 0
  69              		.cfi_startproc
  70              		@ args = 0, pretend = 0, frame = 0
  71              		@ frame_needed = 0, uses_anonymous_args = 0
  72              		@ link register save eliminated.
  44:Src/stm32f0xx_it.c **** }
  73              		.loc 1 44 0
  74              		@ sp needed
  75 0000 7047     		bx	lr
ARM GAS  /tmp/ccVcNwlp.s 			page 3


  76              		.cfi_endproc
  77              	.LFE39:
  79              		.section	.text.PendSV_Handler,"ax",%progbits
  80              		.align	1
  81              		.global	PendSV_Handler
  82              		.syntax unified
  83              		.code	16
  84              		.thumb_func
  85              		.fpu softvfp
  87              	PendSV_Handler:
  88              	.LFB40:
  45:Src/stm32f0xx_it.c **** 
  46:Src/stm32f0xx_it.c **** void PendSV_Handler(void)
  47:Src/stm32f0xx_it.c **** {
  89              		.loc 1 47 0
  90              		.cfi_startproc
  91              		@ args = 0, pretend = 0, frame = 0
  92              		@ frame_needed = 0, uses_anonymous_args = 0
  93              		@ link register save eliminated.
  48:Src/stm32f0xx_it.c **** }
  94              		.loc 1 48 0
  95              		@ sp needed
  96 0000 7047     		bx	lr
  97              		.cfi_endproc
  98              	.LFE40:
 100              		.section	.text.SysTick_Handler,"ax",%progbits
 101              		.align	1
 102              		.global	SysTick_Handler
 103              		.syntax unified
 104              		.code	16
 105              		.thumb_func
 106              		.fpu softvfp
 108              	SysTick_Handler:
 109              	.LFB41:
  49:Src/stm32f0xx_it.c **** 
  50:Src/stm32f0xx_it.c **** void SysTick_Handler(void)
  51:Src/stm32f0xx_it.c **** {
 110              		.loc 1 51 0
 111              		.cfi_startproc
 112              		@ args = 0, pretend = 0, frame = 0
 113              		@ frame_needed = 0, uses_anonymous_args = 0
 114 0000 10B5     		push	{r4, lr}
 115              	.LCFI0:
 116              		.cfi_def_cfa_offset 8
 117              		.cfi_offset 4, -8
 118              		.cfi_offset 14, -4
  52:Src/stm32f0xx_it.c ****   HAL_IncTick();
 119              		.loc 1 52 0
 120 0002 FFF7FEFF 		bl	HAL_IncTick
 121              	.LVL0:
  53:Src/stm32f0xx_it.c **** }
 122              		.loc 1 53 0
 123              		@ sp needed
 124 0006 10BD     		pop	{r4, pc}
 125              		.cfi_endproc
 126              	.LFE41:
 128              		.section	.text.ADC1_COMP_IRQHandler,"ax",%progbits
ARM GAS  /tmp/ccVcNwlp.s 			page 4


 129              		.align	1
 130              		.global	ADC1_COMP_IRQHandler
 131              		.syntax unified
 132              		.code	16
 133              		.thumb_func
 134              		.fpu softvfp
 136              	ADC1_COMP_IRQHandler:
 137              	.LFB42:
  54:Src/stm32f0xx_it.c **** 
  55:Src/stm32f0xx_it.c **** void ADC1_COMP_IRQHandler(void)
  56:Src/stm32f0xx_it.c **** {
 138              		.loc 1 56 0
 139              		.cfi_startproc
 140              		@ args = 0, pretend = 0, frame = 0
 141              		@ frame_needed = 0, uses_anonymous_args = 0
 142 0000 10B5     		push	{r4, lr}
 143              	.LCFI1:
 144              		.cfi_def_cfa_offset 8
 145              		.cfi_offset 4, -8
 146              		.cfi_offset 14, -4
  57:Src/stm32f0xx_it.c ****   HAL_ADC_IRQHandler(&hadc);
 147              		.loc 1 57 0
 148 0002 0248     		ldr	r0, .L8
 149 0004 FFF7FEFF 		bl	HAL_ADC_IRQHandler
 150              	.LVL1:
  58:Src/stm32f0xx_it.c **** }
 151              		.loc 1 58 0
 152              		@ sp needed
 153 0008 10BD     		pop	{r4, pc}
 154              	.L9:
 155 000a C046     		.align	2
 156              	.L8:
 157 000c 00000000 		.word	hadc
 158              		.cfi_endproc
 159              	.LFE42:
 161              		.section	.text.DMA1_Channel1_IRQHandler,"ax",%progbits
 162              		.align	1
 163              		.global	DMA1_Channel1_IRQHandler
 164              		.syntax unified
 165              		.code	16
 166              		.thumb_func
 167              		.fpu softvfp
 169              	DMA1_Channel1_IRQHandler:
 170              	.LFB43:
  59:Src/stm32f0xx_it.c **** 
  60:Src/stm32f0xx_it.c **** void DMA1_Channel1_IRQHandler(void)
  61:Src/stm32f0xx_it.c **** {
 171              		.loc 1 61 0
 172              		.cfi_startproc
 173              		@ args = 0, pretend = 0, frame = 0
 174              		@ frame_needed = 0, uses_anonymous_args = 0
 175 0000 10B5     		push	{r4, lr}
 176              	.LCFI2:
 177              		.cfi_def_cfa_offset 8
 178              		.cfi_offset 4, -8
 179              		.cfi_offset 14, -4
  62:Src/stm32f0xx_it.c ****   HAL_DMA_IRQHandler(&hdma_adc);
ARM GAS  /tmp/ccVcNwlp.s 			page 5


 180              		.loc 1 62 0
 181 0002 0348     		ldr	r0, .L11
 182 0004 FFF7FEFF 		bl	HAL_DMA_IRQHandler
 183              	.LVL2:
  63:Src/stm32f0xx_it.c ****   reg();
 184              		.loc 1 63 0
 185 0008 FFF7FEFF 		bl	reg
 186              	.LVL3:
  64:Src/stm32f0xx_it.c **** }
 187              		.loc 1 64 0
 188              		@ sp needed
 189 000c 10BD     		pop	{r4, pc}
 190              	.L12:
 191 000e C046     		.align	2
 192              	.L11:
 193 0010 00000000 		.word	hdma_adc
 194              		.cfi_endproc
 195              	.LFE43:
 197              		.section	.text.TIM1_BRK_UP_TRG_COM_IRQHandler,"ax",%progbits
 198              		.align	1
 199              		.global	TIM1_BRK_UP_TRG_COM_IRQHandler
 200              		.syntax unified
 201              		.code	16
 202              		.thumb_func
 203              		.fpu softvfp
 205              	TIM1_BRK_UP_TRG_COM_IRQHandler:
 206              	.LFB44:
  65:Src/stm32f0xx_it.c **** 
  66:Src/stm32f0xx_it.c **** void TIM1_BRK_UP_TRG_COM_IRQHandler(void)
  67:Src/stm32f0xx_it.c **** {
 207              		.loc 1 67 0
 208              		.cfi_startproc
 209              		@ args = 0, pretend = 0, frame = 0
 210              		@ frame_needed = 0, uses_anonymous_args = 0
 211 0000 10B5     		push	{r4, lr}
 212              	.LCFI3:
 213              		.cfi_def_cfa_offset 8
 214              		.cfi_offset 4, -8
 215              		.cfi_offset 14, -4
  68:Src/stm32f0xx_it.c ****   HAL_TIM_IRQHandler(&htim1);
 216              		.loc 1 68 0
 217 0002 0248     		ldr	r0, .L14
 218 0004 FFF7FEFF 		bl	HAL_TIM_IRQHandler
 219              	.LVL4:
  69:Src/stm32f0xx_it.c **** }
 220              		.loc 1 69 0
 221              		@ sp needed
 222 0008 10BD     		pop	{r4, pc}
 223              	.L15:
 224 000a C046     		.align	2
 225              	.L14:
 226 000c 00000000 		.word	htim1
 227              		.cfi_endproc
 228              	.LFE44:
 230              		.section	.text.TIM1_CC_IRQHandler,"ax",%progbits
 231              		.align	1
 232              		.global	TIM1_CC_IRQHandler
ARM GAS  /tmp/ccVcNwlp.s 			page 6


 233              		.syntax unified
 234              		.code	16
 235              		.thumb_func
 236              		.fpu softvfp
 238              	TIM1_CC_IRQHandler:
 239              	.LFB45:
  70:Src/stm32f0xx_it.c **** 
  71:Src/stm32f0xx_it.c **** void TIM1_CC_IRQHandler(void)
  72:Src/stm32f0xx_it.c **** {
 240              		.loc 1 72 0
 241              		.cfi_startproc
 242              		@ args = 0, pretend = 0, frame = 0
 243              		@ frame_needed = 0, uses_anonymous_args = 0
 244 0000 10B5     		push	{r4, lr}
 245              	.LCFI4:
 246              		.cfi_def_cfa_offset 8
 247              		.cfi_offset 4, -8
 248              		.cfi_offset 14, -4
  73:Src/stm32f0xx_it.c ****   HAL_TIM_IRQHandler(&htim1);
 249              		.loc 1 73 0
 250 0002 0248     		ldr	r0, .L17
 251 0004 FFF7FEFF 		bl	HAL_TIM_IRQHandler
 252              	.LVL5:
  74:Src/stm32f0xx_it.c **** }
 253              		.loc 1 74 0
 254              		@ sp needed
 255 0008 10BD     		pop	{r4, pc}
 256              	.L18:
 257 000a C046     		.align	2
 258              	.L17:
 259 000c 00000000 		.word	htim1
 260              		.cfi_endproc
 261              	.LFE45:
 263              		.text
 264              	.Letext0:
 265              		.file 2 "/home/janhenrik/programme/gcc-arm-none-eabi-7-2018-q2-update/arm-none-eabi/include/machin
 266              		.file 3 "/home/janhenrik/programme/gcc-arm-none-eabi-7-2018-q2-update/arm-none-eabi/include/sys/_s
 267              		.file 4 "Drivers/CMSIS/Device/ST/STM32F0xx/Include/system_stm32f0xx.h"
 268              		.file 5 "Drivers/CMSIS/Device/ST/STM32F0xx/Include/stm32f072xb.h"
 269              		.file 6 "/home/janhenrik/programme/gcc-arm-none-eabi-7-2018-q2-update/arm-none-eabi/include/sys/lo
 270              		.file 7 "/home/janhenrik/programme/gcc-arm-none-eabi-7-2018-q2-update/arm-none-eabi/include/sys/_t
 271              		.file 8 "/home/janhenrik/programme/gcc-arm-none-eabi-7-2018-q2-update/lib/gcc/arm-none-eabi/7.3.1/
 272              		.file 9 "/home/janhenrik/programme/gcc-arm-none-eabi-7-2018-q2-update/arm-none-eabi/include/sys/re
 273              		.file 10 "Drivers/STM32F0xx_HAL_Driver/Inc/stm32f0xx_hal_def.h"
 274              		.file 11 "Drivers/STM32F0xx_HAL_Driver/Inc/stm32f0xx_hal_dma.h"
 275              		.file 12 "Drivers/STM32F0xx_HAL_Driver/Inc/stm32f0xx_hal_adc.h"
 276              		.file 13 "Drivers/STM32F0xx_HAL_Driver/Inc/stm32f0xx_hal_tim.h"
 277              		.file 14 "Drivers/STM32F0xx_HAL_Driver/Inc/stm32f0xx_hal.h"
ARM GAS  /tmp/ccVcNwlp.s 			page 7

