ARM GAS  /tmp/ccGvLyNw.s 			page 1


   1              		.cpu cortex-m0
   2              		.eabi_attribute 20, 1
   3              		.eabi_attribute 21, 1
   4              		.eabi_attribute 23, 3
   5              		.eabi_attribute 24, 1
   6              		.eabi_attribute 25, 1
   7              		.eabi_attribute 26, 1
   8              		.eabi_attribute 30, 1
   9              		.eabi_attribute 34, 0
  10              		.eabi_attribute 18, 4
  11              		.file	"system_stm32f0xx.c"
  12              		.text
  13              	.Ltext0:
  14              		.cfi_sections	.debug_frame
  15              		.section	.text.SystemInit,"ax",%progbits
  16              		.align	1
  17              		.global	SystemInit
  18              		.syntax unified
  19              		.code	16
  20              		.thumb_func
  21              		.fpu softvfp
  23              	SystemInit:
  24              	.LFB37:
  25              		.file 1 "Src/system_stm32f0xx.c"
   1:Src/system_stm32f0xx.c **** /**
   2:Src/system_stm32f0xx.c ****   ******************************************************************************
   3:Src/system_stm32f0xx.c ****   * @file    system_stm32f0xx.c
   4:Src/system_stm32f0xx.c ****   * @author  MCD Application Team
   5:Src/system_stm32f0xx.c ****   * @brief   CMSIS Cortex-M0 Device Peripheral Access Layer System Source File.
   6:Src/system_stm32f0xx.c ****   *
   7:Src/system_stm32f0xx.c ****   * 1. This file provides two functions and one global variable to be called from
   8:Src/system_stm32f0xx.c ****   *    user application:
   9:Src/system_stm32f0xx.c ****   *      - SystemInit(): This function is called at startup just after reset and
  10:Src/system_stm32f0xx.c ****   *                      before branch to main program. This call is made inside
  11:Src/system_stm32f0xx.c ****   *                      the "startup_stm32f0xx.s" file.
  12:Src/system_stm32f0xx.c ****   *
  13:Src/system_stm32f0xx.c ****   *      - SystemCoreClock variable: Contains the core clock (HCLK), it can be used
  14:Src/system_stm32f0xx.c ****   *                                  by the user application to setup the SysTick
  15:Src/system_stm32f0xx.c ****   *                                  timer or configure other parameters.
  16:Src/system_stm32f0xx.c ****   *
  17:Src/system_stm32f0xx.c ****   *      - SystemCoreClockUpdate(): Updates the variable SystemCoreClock and must
  18:Src/system_stm32f0xx.c ****   *                                 be called whenever the core clock is changed
  19:Src/system_stm32f0xx.c ****   *                                 during program execution.
  20:Src/system_stm32f0xx.c ****   *
  21:Src/system_stm32f0xx.c ****   * 2. After each device reset the HSI (8 MHz) is used as system clock source.
  22:Src/system_stm32f0xx.c ****   *    Then SystemInit() function is called, in "startup_stm32f0xx.s" file, to
  23:Src/system_stm32f0xx.c ****   *    configure the system clock before to branch to main program.
  24:Src/system_stm32f0xx.c ****   *
  25:Src/system_stm32f0xx.c ****   * 3. This file configures the system clock as follows:
  26:Src/system_stm32f0xx.c ****   *=============================================================================
  27:Src/system_stm32f0xx.c ****   *                         Supported STM32F0xx device
  28:Src/system_stm32f0xx.c ****   *-----------------------------------------------------------------------------
  29:Src/system_stm32f0xx.c ****   *        System Clock source                    | HSI
  30:Src/system_stm32f0xx.c ****   *-----------------------------------------------------------------------------
  31:Src/system_stm32f0xx.c ****   *        SYSCLK(Hz)                             | 8000000
  32:Src/system_stm32f0xx.c ****   *-----------------------------------------------------------------------------
  33:Src/system_stm32f0xx.c ****   *        HCLK(Hz)                               | 8000000
ARM GAS  /tmp/ccGvLyNw.s 			page 2


  34:Src/system_stm32f0xx.c ****   *-----------------------------------------------------------------------------
  35:Src/system_stm32f0xx.c ****   *        AHB Prescaler                          | 1
  36:Src/system_stm32f0xx.c ****   *-----------------------------------------------------------------------------
  37:Src/system_stm32f0xx.c ****   *        APB1 Prescaler                         | 1
  38:Src/system_stm32f0xx.c ****   *-----------------------------------------------------------------------------
  39:Src/system_stm32f0xx.c ****   *=============================================================================
  40:Src/system_stm32f0xx.c ****   ******************************************************************************
  41:Src/system_stm32f0xx.c ****   * @attention
  42:Src/system_stm32f0xx.c ****   *
  43:Src/system_stm32f0xx.c ****   * <h2><center>&copy; COPYRIGHT(c) 2016 STMicroelectronics</center></h2>
  44:Src/system_stm32f0xx.c ****   *
  45:Src/system_stm32f0xx.c ****   * Redistribution and use in source and binary forms, with or without modification,
  46:Src/system_stm32f0xx.c ****   * are permitted provided that the following conditions are met:
  47:Src/system_stm32f0xx.c ****   *   1. Redistributions of source code must retain the above copyright notice,
  48:Src/system_stm32f0xx.c ****   *      this list of conditions and the following disclaimer.
  49:Src/system_stm32f0xx.c ****   *   2. Redistributions in binary form must reproduce the above copyright notice,
  50:Src/system_stm32f0xx.c ****   *      this list of conditions and the following disclaimer in the documentation
  51:Src/system_stm32f0xx.c ****   *      and/or other materials provided with the distribution.
  52:Src/system_stm32f0xx.c ****   *   3. Neither the name of STMicroelectronics nor the names of its contributors
  53:Src/system_stm32f0xx.c ****   *      may be used to endorse or promote products derived from this software
  54:Src/system_stm32f0xx.c ****   *      without specific prior written permission.
  55:Src/system_stm32f0xx.c ****   *
  56:Src/system_stm32f0xx.c ****   * THIS SOFTWARE IS PROVIDED BY THE COPYRIGHT HOLDERS AND CONTRIBUTORS "AS IS"
  57:Src/system_stm32f0xx.c ****   * AND ANY EXPRESS OR IMPLIED WARRANTIES, INCLUDING, BUT NOT LIMITED TO, THE
  58:Src/system_stm32f0xx.c ****   * IMPLIED WARRANTIES OF MERCHANTABILITY AND FITNESS FOR A PARTICULAR PURPOSE ARE
  59:Src/system_stm32f0xx.c ****   * DISCLAIMED. IN NO EVENT SHALL THE COPYRIGHT HOLDER OR CONTRIBUTORS BE LIABLE
  60:Src/system_stm32f0xx.c ****   * FOR ANY DIRECT, INDIRECT, INCIDENTAL, SPECIAL, EXEMPLARY, OR CONSEQUENTIAL
  61:Src/system_stm32f0xx.c ****   * DAMAGES (INCLUDING, BUT NOT LIMITED TO, PROCUREMENT OF SUBSTITUTE GOODS OR
  62:Src/system_stm32f0xx.c ****   * SERVICES; LOSS OF USE, DATA, OR PROFITS; OR BUSINESS INTERRUPTION) HOWEVER
  63:Src/system_stm32f0xx.c ****   * CAUSED AND ON ANY THEORY OF LIABILITY, WHETHER IN CONTRACT, STRICT LIABILITY,
  64:Src/system_stm32f0xx.c ****   * OR TORT (INCLUDING NEGLIGENCE OR OTHERWISE) ARISING IN ANY WAY OUT OF THE USE
  65:Src/system_stm32f0xx.c ****   * OF THIS SOFTWARE, EVEN IF ADVISED OF THE POSSIBILITY OF SUCH DAMAGE.
  66:Src/system_stm32f0xx.c ****   *
  67:Src/system_stm32f0xx.c ****   ******************************************************************************
  68:Src/system_stm32f0xx.c ****   */
  69:Src/system_stm32f0xx.c **** 
  70:Src/system_stm32f0xx.c **** /** @addtogroup CMSIS
  71:Src/system_stm32f0xx.c ****   * @{
  72:Src/system_stm32f0xx.c ****   */
  73:Src/system_stm32f0xx.c **** 
  74:Src/system_stm32f0xx.c **** /** @addtogroup stm32f0xx_system
  75:Src/system_stm32f0xx.c ****   * @{
  76:Src/system_stm32f0xx.c ****   */
  77:Src/system_stm32f0xx.c **** 
  78:Src/system_stm32f0xx.c **** /** @addtogroup STM32F0xx_System_Private_Includes
  79:Src/system_stm32f0xx.c ****   * @{
  80:Src/system_stm32f0xx.c ****   */
  81:Src/system_stm32f0xx.c **** 
  82:Src/system_stm32f0xx.c **** #include "stm32f0xx.h"
  83:Src/system_stm32f0xx.c **** 
  84:Src/system_stm32f0xx.c **** /**
  85:Src/system_stm32f0xx.c ****   * @}
  86:Src/system_stm32f0xx.c ****   */
  87:Src/system_stm32f0xx.c **** 
  88:Src/system_stm32f0xx.c **** /** @addtogroup STM32F0xx_System_Private_TypesDefinitions
  89:Src/system_stm32f0xx.c ****   * @{
  90:Src/system_stm32f0xx.c ****   */
ARM GAS  /tmp/ccGvLyNw.s 			page 3


  91:Src/system_stm32f0xx.c **** 
  92:Src/system_stm32f0xx.c **** /**
  93:Src/system_stm32f0xx.c ****   * @}
  94:Src/system_stm32f0xx.c ****   */
  95:Src/system_stm32f0xx.c **** 
  96:Src/system_stm32f0xx.c **** /** @addtogroup STM32F0xx_System_Private_Defines
  97:Src/system_stm32f0xx.c ****   * @{
  98:Src/system_stm32f0xx.c ****   */
  99:Src/system_stm32f0xx.c **** #if !defined  (HSE_VALUE)
 100:Src/system_stm32f0xx.c ****   #define HSE_VALUE    ((uint32_t)8000000) /*!< Default value of the External oscillator in Hz.
 101:Src/system_stm32f0xx.c ****                                                 This value can be provided and adapted by the user 
 102:Src/system_stm32f0xx.c **** #endif /* HSE_VALUE */
 103:Src/system_stm32f0xx.c **** 
 104:Src/system_stm32f0xx.c **** #if !defined  (HSI_VALUE)
 105:Src/system_stm32f0xx.c ****   #define HSI_VALUE    ((uint32_t)8000000) /*!< Default value of the Internal oscillator in Hz.
 106:Src/system_stm32f0xx.c ****                                                 This value can be provided and adapted by the user 
 107:Src/system_stm32f0xx.c **** #endif /* HSI_VALUE */
 108:Src/system_stm32f0xx.c **** 
 109:Src/system_stm32f0xx.c **** #if !defined (HSI48_VALUE)
 110:Src/system_stm32f0xx.c **** #define HSI48_VALUE    ((uint32_t)48000000) /*!< Default value of the HSI48 Internal oscillator in 
 111:Src/system_stm32f0xx.c ****                                                  This value can be provided and adapted by the user
 112:Src/system_stm32f0xx.c **** #endif /* HSI48_VALUE */
 113:Src/system_stm32f0xx.c **** /**
 114:Src/system_stm32f0xx.c ****   * @}
 115:Src/system_stm32f0xx.c ****   */
 116:Src/system_stm32f0xx.c **** 
 117:Src/system_stm32f0xx.c **** /** @addtogroup STM32F0xx_System_Private_Macros
 118:Src/system_stm32f0xx.c ****   * @{
 119:Src/system_stm32f0xx.c ****   */
 120:Src/system_stm32f0xx.c **** 
 121:Src/system_stm32f0xx.c **** /**
 122:Src/system_stm32f0xx.c ****   * @}
 123:Src/system_stm32f0xx.c ****   */
 124:Src/system_stm32f0xx.c **** 
 125:Src/system_stm32f0xx.c **** /** @addtogroup STM32F0xx_System_Private_Variables
 126:Src/system_stm32f0xx.c ****   * @{
 127:Src/system_stm32f0xx.c ****   */
 128:Src/system_stm32f0xx.c ****   /* This variable is updated in three ways:
 129:Src/system_stm32f0xx.c ****       1) by calling CMSIS function SystemCoreClockUpdate()
 130:Src/system_stm32f0xx.c ****       2) by calling HAL API function HAL_RCC_GetHCLKFreq()
 131:Src/system_stm32f0xx.c ****       3) each time HAL_RCC_ClockConfig() is called to configure the system clock frequency
 132:Src/system_stm32f0xx.c ****          Note: If you use this function to configure the system clock there is no need to
 133:Src/system_stm32f0xx.c ****                call the 2 first functions listed above, since SystemCoreClock variable is
 134:Src/system_stm32f0xx.c ****                updated automatically.
 135:Src/system_stm32f0xx.c ****   */
 136:Src/system_stm32f0xx.c **** uint32_t SystemCoreClock = 8000000;
 137:Src/system_stm32f0xx.c **** 
 138:Src/system_stm32f0xx.c **** const uint8_t AHBPrescTable[16] = {0, 0, 0, 0, 0, 0, 0, 0, 1, 2, 3, 4, 6, 7, 8, 9};
 139:Src/system_stm32f0xx.c **** const uint8_t APBPrescTable[8]  = {0, 0, 0, 0, 1, 2, 3, 4};
 140:Src/system_stm32f0xx.c **** 
 141:Src/system_stm32f0xx.c **** /**
 142:Src/system_stm32f0xx.c ****   * @}
 143:Src/system_stm32f0xx.c ****   */
 144:Src/system_stm32f0xx.c **** 
 145:Src/system_stm32f0xx.c **** /** @addtogroup STM32F0xx_System_Private_FunctionPrototypes
 146:Src/system_stm32f0xx.c ****   * @{
 147:Src/system_stm32f0xx.c ****   */
ARM GAS  /tmp/ccGvLyNw.s 			page 4


 148:Src/system_stm32f0xx.c **** 
 149:Src/system_stm32f0xx.c **** /**
 150:Src/system_stm32f0xx.c ****   * @}
 151:Src/system_stm32f0xx.c ****   */
 152:Src/system_stm32f0xx.c **** 
 153:Src/system_stm32f0xx.c **** /** @addtogroup STM32F0xx_System_Private_Functions
 154:Src/system_stm32f0xx.c ****   * @{
 155:Src/system_stm32f0xx.c ****   */
 156:Src/system_stm32f0xx.c **** 
 157:Src/system_stm32f0xx.c **** /**
 158:Src/system_stm32f0xx.c ****   * @brief  Setup the microcontroller system.
 159:Src/system_stm32f0xx.c ****   *         Initialize the default HSI clock source, vector table location and the PLL configuratio
 160:Src/system_stm32f0xx.c ****   * @param  None
 161:Src/system_stm32f0xx.c ****   * @retval None
 162:Src/system_stm32f0xx.c ****   */
 163:Src/system_stm32f0xx.c ****   void (*SysMemBootJump)(void);
 164:Src/system_stm32f0xx.c **** 
 165:Src/system_stm32f0xx.c ****   void SystemInit (void)
 166:Src/system_stm32f0xx.c ****   {
  26              		.loc 1 166 0
  27              		.cfi_startproc
  28              		@ args = 0, pretend = 0, frame = 0
  29              		@ frame_needed = 1, uses_anonymous_args = 0
  30 0000 80B5     		push	{r7, lr}
  31              	.LCFI0:
  32              		.cfi_def_cfa_offset 8
  33              		.cfi_offset 7, -8
  34              		.cfi_offset 14, -4
  35 0002 00AF     		add	r7, sp, #0
  36              	.LCFI1:
  37              		.cfi_def_cfa_register 7
 167:Src/system_stm32f0xx.c ****     if ( *((unsigned long *)0x20003FF0) == 0xDEADBEEF ) {
  38              		.loc 1 167 0
  39 0004 1A4B     		ldr	r3, .L4
  40 0006 1A68     		ldr	r2, [r3]
  41 0008 1A4B     		ldr	r3, .L4+4
  42 000a 9A42     		cmp	r2, r3
  43 000c 0BD1     		bne	.L2
 168:Src/system_stm32f0xx.c ****          *((unsigned long *)0x20003FF0) =  0xCAFEFEED; // Reset our trigger
  44              		.loc 1 168 0
  45 000e 184B     		ldr	r3, .L4
  46 0010 194A     		ldr	r2, .L4+8
  47 0012 1A60     		str	r2, [r3]
  48              	.LVL0:
  49              	.LBB4:
  50              	.LBB5:
  51              		.file 2 "Drivers/CMSIS/Include/cmsis_gcc.h"
   1:Drivers/CMSIS/Include/cmsis_gcc.h **** /**************************************************************************//**
   2:Drivers/CMSIS/Include/cmsis_gcc.h ****  * @file     cmsis_gcc.h
   3:Drivers/CMSIS/Include/cmsis_gcc.h ****  * @brief    CMSIS Cortex-M Core Function/Instruction Header File
   4:Drivers/CMSIS/Include/cmsis_gcc.h ****  * @version  V4.30
   5:Drivers/CMSIS/Include/cmsis_gcc.h ****  * @date     20. October 2015
   6:Drivers/CMSIS/Include/cmsis_gcc.h ****  ******************************************************************************/
   7:Drivers/CMSIS/Include/cmsis_gcc.h **** /* Copyright (c) 2009 - 2015 ARM LIMITED
   8:Drivers/CMSIS/Include/cmsis_gcc.h **** 
   9:Drivers/CMSIS/Include/cmsis_gcc.h ****    All rights reserved.
  10:Drivers/CMSIS/Include/cmsis_gcc.h ****    Redistribution and use in source and binary forms, with or without
ARM GAS  /tmp/ccGvLyNw.s 			page 5


  11:Drivers/CMSIS/Include/cmsis_gcc.h ****    modification, are permitted provided that the following conditions are met:
  12:Drivers/CMSIS/Include/cmsis_gcc.h ****    - Redistributions of source code must retain the above copyright
  13:Drivers/CMSIS/Include/cmsis_gcc.h ****      notice, this list of conditions and the following disclaimer.
  14:Drivers/CMSIS/Include/cmsis_gcc.h ****    - Redistributions in binary form must reproduce the above copyright
  15:Drivers/CMSIS/Include/cmsis_gcc.h ****      notice, this list of conditions and the following disclaimer in the
  16:Drivers/CMSIS/Include/cmsis_gcc.h ****      documentation and/or other materials provided with the distribution.
  17:Drivers/CMSIS/Include/cmsis_gcc.h ****    - Neither the name of ARM nor the names of its contributors may be used
  18:Drivers/CMSIS/Include/cmsis_gcc.h ****      to endorse or promote products derived from this software without
  19:Drivers/CMSIS/Include/cmsis_gcc.h ****      specific prior written permission.
  20:Drivers/CMSIS/Include/cmsis_gcc.h ****    *
  21:Drivers/CMSIS/Include/cmsis_gcc.h ****    THIS SOFTWARE IS PROVIDED BY THE COPYRIGHT HOLDERS AND CONTRIBUTORS "AS IS"
  22:Drivers/CMSIS/Include/cmsis_gcc.h ****    AND ANY EXPRESS OR IMPLIED WARRANTIES, INCLUDING, BUT NOT LIMITED TO, THE
  23:Drivers/CMSIS/Include/cmsis_gcc.h ****    IMPLIED WARRANTIES OF MERCHANTABILITY AND FITNESS FOR A PARTICULAR PURPOSE
  24:Drivers/CMSIS/Include/cmsis_gcc.h ****    ARE DISCLAIMED. IN NO EVENT SHALL COPYRIGHT HOLDERS AND CONTRIBUTORS BE
  25:Drivers/CMSIS/Include/cmsis_gcc.h ****    LIABLE FOR ANY DIRECT, INDIRECT, INCIDENTAL, SPECIAL, EXEMPLARY, OR
  26:Drivers/CMSIS/Include/cmsis_gcc.h ****    CONSEQUENTIAL DAMAGES (INCLUDING, BUT NOT LIMITED TO, PROCUREMENT OF
  27:Drivers/CMSIS/Include/cmsis_gcc.h ****    SUBSTITUTE GOODS OR SERVICES; LOSS OF USE, DATA, OR PROFITS; OR BUSINESS
  28:Drivers/CMSIS/Include/cmsis_gcc.h ****    INTERRUPTION) HOWEVER CAUSED AND ON ANY THEORY OF LIABILITY, WHETHER IN
  29:Drivers/CMSIS/Include/cmsis_gcc.h ****    CONTRACT, STRICT LIABILITY, OR TORT (INCLUDING NEGLIGENCE OR OTHERWISE)
  30:Drivers/CMSIS/Include/cmsis_gcc.h ****    ARISING IN ANY WAY OUT OF THE USE OF THIS SOFTWARE, EVEN IF ADVISED OF THE
  31:Drivers/CMSIS/Include/cmsis_gcc.h ****    POSSIBILITY OF SUCH DAMAGE.
  32:Drivers/CMSIS/Include/cmsis_gcc.h ****    ---------------------------------------------------------------------------*/
  33:Drivers/CMSIS/Include/cmsis_gcc.h **** 
  34:Drivers/CMSIS/Include/cmsis_gcc.h **** 
  35:Drivers/CMSIS/Include/cmsis_gcc.h **** #ifndef __CMSIS_GCC_H
  36:Drivers/CMSIS/Include/cmsis_gcc.h **** #define __CMSIS_GCC_H
  37:Drivers/CMSIS/Include/cmsis_gcc.h **** 
  38:Drivers/CMSIS/Include/cmsis_gcc.h **** /* ignore some GCC warnings */
  39:Drivers/CMSIS/Include/cmsis_gcc.h **** #if defined ( __GNUC__ )
  40:Drivers/CMSIS/Include/cmsis_gcc.h **** #pragma GCC diagnostic push
  41:Drivers/CMSIS/Include/cmsis_gcc.h **** #pragma GCC diagnostic ignored "-Wsign-conversion"
  42:Drivers/CMSIS/Include/cmsis_gcc.h **** #pragma GCC diagnostic ignored "-Wconversion"
  43:Drivers/CMSIS/Include/cmsis_gcc.h **** #pragma GCC diagnostic ignored "-Wunused-parameter"
  44:Drivers/CMSIS/Include/cmsis_gcc.h **** #endif
  45:Drivers/CMSIS/Include/cmsis_gcc.h **** 
  46:Drivers/CMSIS/Include/cmsis_gcc.h **** 
  47:Drivers/CMSIS/Include/cmsis_gcc.h **** /* ###########################  Core Function Access  ########################### */
  48:Drivers/CMSIS/Include/cmsis_gcc.h **** /** \ingroup  CMSIS_Core_FunctionInterface
  49:Drivers/CMSIS/Include/cmsis_gcc.h ****     \defgroup CMSIS_Core_RegAccFunctions CMSIS Core Register Access Functions
  50:Drivers/CMSIS/Include/cmsis_gcc.h ****   @{
  51:Drivers/CMSIS/Include/cmsis_gcc.h ****  */
  52:Drivers/CMSIS/Include/cmsis_gcc.h **** 
  53:Drivers/CMSIS/Include/cmsis_gcc.h **** /**
  54:Drivers/CMSIS/Include/cmsis_gcc.h ****   \brief   Enable IRQ Interrupts
  55:Drivers/CMSIS/Include/cmsis_gcc.h ****   \details Enables IRQ interrupts by clearing the I-bit in the CPSR.
  56:Drivers/CMSIS/Include/cmsis_gcc.h ****            Can only be executed in Privileged modes.
  57:Drivers/CMSIS/Include/cmsis_gcc.h ****  */
  58:Drivers/CMSIS/Include/cmsis_gcc.h **** __attribute__( ( always_inline ) ) __STATIC_INLINE void __enable_irq(void)
  59:Drivers/CMSIS/Include/cmsis_gcc.h **** {
  60:Drivers/CMSIS/Include/cmsis_gcc.h ****   __ASM volatile ("cpsie i" : : : "memory");
  61:Drivers/CMSIS/Include/cmsis_gcc.h **** }
  62:Drivers/CMSIS/Include/cmsis_gcc.h **** 
  63:Drivers/CMSIS/Include/cmsis_gcc.h **** 
  64:Drivers/CMSIS/Include/cmsis_gcc.h **** /**
  65:Drivers/CMSIS/Include/cmsis_gcc.h ****   \brief   Disable IRQ Interrupts
  66:Drivers/CMSIS/Include/cmsis_gcc.h ****   \details Disables IRQ interrupts by setting the I-bit in the CPSR.
  67:Drivers/CMSIS/Include/cmsis_gcc.h ****   Can only be executed in Privileged modes.
ARM GAS  /tmp/ccGvLyNw.s 			page 6


  68:Drivers/CMSIS/Include/cmsis_gcc.h ****  */
  69:Drivers/CMSIS/Include/cmsis_gcc.h **** __attribute__( ( always_inline ) ) __STATIC_INLINE void __disable_irq(void)
  70:Drivers/CMSIS/Include/cmsis_gcc.h **** {
  71:Drivers/CMSIS/Include/cmsis_gcc.h ****   __ASM volatile ("cpsid i" : : : "memory");
  72:Drivers/CMSIS/Include/cmsis_gcc.h **** }
  73:Drivers/CMSIS/Include/cmsis_gcc.h **** 
  74:Drivers/CMSIS/Include/cmsis_gcc.h **** 
  75:Drivers/CMSIS/Include/cmsis_gcc.h **** /**
  76:Drivers/CMSIS/Include/cmsis_gcc.h ****   \brief   Get Control Register
  77:Drivers/CMSIS/Include/cmsis_gcc.h ****   \details Returns the content of the Control Register.
  78:Drivers/CMSIS/Include/cmsis_gcc.h ****   \return               Control Register value
  79:Drivers/CMSIS/Include/cmsis_gcc.h ****  */
  80:Drivers/CMSIS/Include/cmsis_gcc.h **** __attribute__( ( always_inline ) ) __STATIC_INLINE uint32_t __get_CONTROL(void)
  81:Drivers/CMSIS/Include/cmsis_gcc.h **** {
  82:Drivers/CMSIS/Include/cmsis_gcc.h ****   uint32_t result;
  83:Drivers/CMSIS/Include/cmsis_gcc.h **** 
  84:Drivers/CMSIS/Include/cmsis_gcc.h ****   __ASM volatile ("MRS %0, control" : "=r" (result) );
  85:Drivers/CMSIS/Include/cmsis_gcc.h ****   return(result);
  86:Drivers/CMSIS/Include/cmsis_gcc.h **** }
  87:Drivers/CMSIS/Include/cmsis_gcc.h **** 
  88:Drivers/CMSIS/Include/cmsis_gcc.h **** 
  89:Drivers/CMSIS/Include/cmsis_gcc.h **** /**
  90:Drivers/CMSIS/Include/cmsis_gcc.h ****   \brief   Set Control Register
  91:Drivers/CMSIS/Include/cmsis_gcc.h ****   \details Writes the given value to the Control Register.
  92:Drivers/CMSIS/Include/cmsis_gcc.h ****   \param [in]    control  Control Register value to set
  93:Drivers/CMSIS/Include/cmsis_gcc.h ****  */
  94:Drivers/CMSIS/Include/cmsis_gcc.h **** __attribute__( ( always_inline ) ) __STATIC_INLINE void __set_CONTROL(uint32_t control)
  95:Drivers/CMSIS/Include/cmsis_gcc.h **** {
  96:Drivers/CMSIS/Include/cmsis_gcc.h ****   __ASM volatile ("MSR control, %0" : : "r" (control) : "memory");
  97:Drivers/CMSIS/Include/cmsis_gcc.h **** }
  98:Drivers/CMSIS/Include/cmsis_gcc.h **** 
  99:Drivers/CMSIS/Include/cmsis_gcc.h **** 
 100:Drivers/CMSIS/Include/cmsis_gcc.h **** /**
 101:Drivers/CMSIS/Include/cmsis_gcc.h ****   \brief   Get IPSR Register
 102:Drivers/CMSIS/Include/cmsis_gcc.h ****   \details Returns the content of the IPSR Register.
 103:Drivers/CMSIS/Include/cmsis_gcc.h ****   \return               IPSR Register value
 104:Drivers/CMSIS/Include/cmsis_gcc.h ****  */
 105:Drivers/CMSIS/Include/cmsis_gcc.h **** __attribute__( ( always_inline ) ) __STATIC_INLINE uint32_t __get_IPSR(void)
 106:Drivers/CMSIS/Include/cmsis_gcc.h **** {
 107:Drivers/CMSIS/Include/cmsis_gcc.h ****   uint32_t result;
 108:Drivers/CMSIS/Include/cmsis_gcc.h **** 
 109:Drivers/CMSIS/Include/cmsis_gcc.h ****   __ASM volatile ("MRS %0, ipsr" : "=r" (result) );
 110:Drivers/CMSIS/Include/cmsis_gcc.h ****   return(result);
 111:Drivers/CMSIS/Include/cmsis_gcc.h **** }
 112:Drivers/CMSIS/Include/cmsis_gcc.h **** 
 113:Drivers/CMSIS/Include/cmsis_gcc.h **** 
 114:Drivers/CMSIS/Include/cmsis_gcc.h **** /**
 115:Drivers/CMSIS/Include/cmsis_gcc.h ****   \brief   Get APSR Register
 116:Drivers/CMSIS/Include/cmsis_gcc.h ****   \details Returns the content of the APSR Register.
 117:Drivers/CMSIS/Include/cmsis_gcc.h ****   \return               APSR Register value
 118:Drivers/CMSIS/Include/cmsis_gcc.h ****  */
 119:Drivers/CMSIS/Include/cmsis_gcc.h **** __attribute__( ( always_inline ) ) __STATIC_INLINE uint32_t __get_APSR(void)
 120:Drivers/CMSIS/Include/cmsis_gcc.h **** {
 121:Drivers/CMSIS/Include/cmsis_gcc.h ****   uint32_t result;
 122:Drivers/CMSIS/Include/cmsis_gcc.h **** 
 123:Drivers/CMSIS/Include/cmsis_gcc.h ****   __ASM volatile ("MRS %0, apsr" : "=r" (result) );
 124:Drivers/CMSIS/Include/cmsis_gcc.h ****   return(result);
ARM GAS  /tmp/ccGvLyNw.s 			page 7


 125:Drivers/CMSIS/Include/cmsis_gcc.h **** }
 126:Drivers/CMSIS/Include/cmsis_gcc.h **** 
 127:Drivers/CMSIS/Include/cmsis_gcc.h **** 
 128:Drivers/CMSIS/Include/cmsis_gcc.h **** /**
 129:Drivers/CMSIS/Include/cmsis_gcc.h ****   \brief   Get xPSR Register
 130:Drivers/CMSIS/Include/cmsis_gcc.h ****   \details Returns the content of the xPSR Register.
 131:Drivers/CMSIS/Include/cmsis_gcc.h **** 
 132:Drivers/CMSIS/Include/cmsis_gcc.h ****     \return               xPSR Register value
 133:Drivers/CMSIS/Include/cmsis_gcc.h ****  */
 134:Drivers/CMSIS/Include/cmsis_gcc.h **** __attribute__( ( always_inline ) ) __STATIC_INLINE uint32_t __get_xPSR(void)
 135:Drivers/CMSIS/Include/cmsis_gcc.h **** {
 136:Drivers/CMSIS/Include/cmsis_gcc.h ****   uint32_t result;
 137:Drivers/CMSIS/Include/cmsis_gcc.h **** 
 138:Drivers/CMSIS/Include/cmsis_gcc.h ****   __ASM volatile ("MRS %0, xpsr" : "=r" (result) );
 139:Drivers/CMSIS/Include/cmsis_gcc.h ****   return(result);
 140:Drivers/CMSIS/Include/cmsis_gcc.h **** }
 141:Drivers/CMSIS/Include/cmsis_gcc.h **** 
 142:Drivers/CMSIS/Include/cmsis_gcc.h **** 
 143:Drivers/CMSIS/Include/cmsis_gcc.h **** /**
 144:Drivers/CMSIS/Include/cmsis_gcc.h ****   \brief   Get Process Stack Pointer
 145:Drivers/CMSIS/Include/cmsis_gcc.h ****   \details Returns the current value of the Process Stack Pointer (PSP).
 146:Drivers/CMSIS/Include/cmsis_gcc.h ****   \return               PSP Register value
 147:Drivers/CMSIS/Include/cmsis_gcc.h ****  */
 148:Drivers/CMSIS/Include/cmsis_gcc.h **** __attribute__( ( always_inline ) ) __STATIC_INLINE uint32_t __get_PSP(void)
 149:Drivers/CMSIS/Include/cmsis_gcc.h **** {
 150:Drivers/CMSIS/Include/cmsis_gcc.h ****   register uint32_t result;
 151:Drivers/CMSIS/Include/cmsis_gcc.h **** 
 152:Drivers/CMSIS/Include/cmsis_gcc.h ****   __ASM volatile ("MRS %0, psp\n"  : "=r" (result) );
 153:Drivers/CMSIS/Include/cmsis_gcc.h ****   return(result);
 154:Drivers/CMSIS/Include/cmsis_gcc.h **** }
 155:Drivers/CMSIS/Include/cmsis_gcc.h **** 
 156:Drivers/CMSIS/Include/cmsis_gcc.h **** 
 157:Drivers/CMSIS/Include/cmsis_gcc.h **** /**
 158:Drivers/CMSIS/Include/cmsis_gcc.h ****   \brief   Set Process Stack Pointer
 159:Drivers/CMSIS/Include/cmsis_gcc.h ****   \details Assigns the given value to the Process Stack Pointer (PSP).
 160:Drivers/CMSIS/Include/cmsis_gcc.h ****   \param [in]    topOfProcStack  Process Stack Pointer value to set
 161:Drivers/CMSIS/Include/cmsis_gcc.h ****  */
 162:Drivers/CMSIS/Include/cmsis_gcc.h **** __attribute__( ( always_inline ) ) __STATIC_INLINE void __set_PSP(uint32_t topOfProcStack)
 163:Drivers/CMSIS/Include/cmsis_gcc.h **** {
 164:Drivers/CMSIS/Include/cmsis_gcc.h ****   __ASM volatile ("MSR psp, %0\n" : : "r" (topOfProcStack) : "sp");
 165:Drivers/CMSIS/Include/cmsis_gcc.h **** }
 166:Drivers/CMSIS/Include/cmsis_gcc.h **** 
 167:Drivers/CMSIS/Include/cmsis_gcc.h **** 
 168:Drivers/CMSIS/Include/cmsis_gcc.h **** /**
 169:Drivers/CMSIS/Include/cmsis_gcc.h ****   \brief   Get Main Stack Pointer
 170:Drivers/CMSIS/Include/cmsis_gcc.h ****   \details Returns the current value of the Main Stack Pointer (MSP).
 171:Drivers/CMSIS/Include/cmsis_gcc.h ****   \return               MSP Register value
 172:Drivers/CMSIS/Include/cmsis_gcc.h ****  */
 173:Drivers/CMSIS/Include/cmsis_gcc.h **** __attribute__( ( always_inline ) ) __STATIC_INLINE uint32_t __get_MSP(void)
 174:Drivers/CMSIS/Include/cmsis_gcc.h **** {
 175:Drivers/CMSIS/Include/cmsis_gcc.h ****   register uint32_t result;
 176:Drivers/CMSIS/Include/cmsis_gcc.h **** 
 177:Drivers/CMSIS/Include/cmsis_gcc.h ****   __ASM volatile ("MRS %0, msp\n" : "=r" (result) );
 178:Drivers/CMSIS/Include/cmsis_gcc.h ****   return(result);
 179:Drivers/CMSIS/Include/cmsis_gcc.h **** }
 180:Drivers/CMSIS/Include/cmsis_gcc.h **** 
 181:Drivers/CMSIS/Include/cmsis_gcc.h **** 
ARM GAS  /tmp/ccGvLyNw.s 			page 8


 182:Drivers/CMSIS/Include/cmsis_gcc.h **** /**
 183:Drivers/CMSIS/Include/cmsis_gcc.h ****   \brief   Set Main Stack Pointer
 184:Drivers/CMSIS/Include/cmsis_gcc.h ****   \details Assigns the given value to the Main Stack Pointer (MSP).
 185:Drivers/CMSIS/Include/cmsis_gcc.h **** 
 186:Drivers/CMSIS/Include/cmsis_gcc.h ****     \param [in]    topOfMainStack  Main Stack Pointer value to set
 187:Drivers/CMSIS/Include/cmsis_gcc.h ****  */
 188:Drivers/CMSIS/Include/cmsis_gcc.h **** __attribute__( ( always_inline ) ) __STATIC_INLINE void __set_MSP(uint32_t topOfMainStack)
 189:Drivers/CMSIS/Include/cmsis_gcc.h **** {
 190:Drivers/CMSIS/Include/cmsis_gcc.h ****   __ASM volatile ("MSR msp, %0\n" : : "r" (topOfMainStack) : "sp");
  52              		.loc 2 190 0
  53 0014 194B     		ldr	r3, .L4+12
  54              		.syntax divided
  55              	@ 190 "Drivers/CMSIS/Include/cmsis_gcc.h" 1
  56 0016 83F30888 		MSR msp, r3
  57              	
  58              	@ 0 "" 2
  59              	.LVL1:
  60              		.thumb
  61              		.syntax unified
  62              	.LBE5:
  63              	.LBE4:
 169:Src/system_stm32f0xx.c ****         __set_MSP(0x20002250);
 170:Src/system_stm32f0xx.c ****                                                        // 0x1fffC800 is "System Memory" start addre
 171:Src/system_stm32f0xx.c ****         SysMemBootJump = (void (*)(void)) (*((uint32_t *) 0x1fffC804)); // Point the PC to the Syst
  64              		.loc 1 171 0
  65 001a 194B     		ldr	r3, .L4+16
  66 001c 1B68     		ldr	r3, [r3]
  67 001e 194A     		ldr	r2, .L4+20
  68 0020 1360     		str	r3, [r2]
 172:Src/system_stm32f0xx.c ****         SysMemBootJump();
  69              		.loc 1 172 0
  70 0022 9847     		blx	r3
  71              	.LVL2:
  72              	.L3:
  73 0024 FEE7     		b	.L3
  74              	.L2:
 173:Src/system_stm32f0xx.c ****         while (1);
 174:Src/system_stm32f0xx.c ****     }
 175:Src/system_stm32f0xx.c **** 
 176:Src/system_stm32f0xx.c ****   /* Reset the RCC clock configuration to the default reset state ------------*/
 177:Src/system_stm32f0xx.c ****   /* Set HSION bit */
 178:Src/system_stm32f0xx.c ****   RCC->CR |= (uint32_t)0x00000001U;
  75              		.loc 1 178 0
  76 0026 184B     		ldr	r3, .L4+24
  77 0028 1A68     		ldr	r2, [r3]
  78 002a 0121     		movs	r1, #1
  79 002c 0A43     		orrs	r2, r1
  80 002e 1A60     		str	r2, [r3]
 179:Src/system_stm32f0xx.c **** 
 180:Src/system_stm32f0xx.c **** #if defined (STM32F051x8) || defined (STM32F058x8)
 181:Src/system_stm32f0xx.c ****   /* Reset SW[1:0], HPRE[3:0], PPRE[2:0], ADCPRE and MCOSEL[2:0] bits */
 182:Src/system_stm32f0xx.c ****   RCC->CFGR &= (uint32_t)0xF8FFB80CU;
 183:Src/system_stm32f0xx.c **** #else
 184:Src/system_stm32f0xx.c ****   /* Reset SW[1:0], HPRE[3:0], PPRE[2:0], ADCPRE, MCOSEL[2:0], MCOPRE[2:0] and PLLNODIV bits */
 185:Src/system_stm32f0xx.c ****   RCC->CFGR &= (uint32_t)0x08FFB80CU;
  81              		.loc 1 185 0
  82 0030 5A68     		ldr	r2, [r3, #4]
ARM GAS  /tmp/ccGvLyNw.s 			page 9


  83 0032 1648     		ldr	r0, .L4+28
  84 0034 0240     		ands	r2, r0
  85 0036 5A60     		str	r2, [r3, #4]
 186:Src/system_stm32f0xx.c **** #endif /* STM32F051x8 or STM32F058x8 */
 187:Src/system_stm32f0xx.c **** 
 188:Src/system_stm32f0xx.c ****   /* Reset HSEON, CSSON and PLLON bits */
 189:Src/system_stm32f0xx.c ****   RCC->CR &= (uint32_t)0xFEF6FFFFU;
  86              		.loc 1 189 0
  87 0038 1A68     		ldr	r2, [r3]
  88 003a 1548     		ldr	r0, .L4+32
  89 003c 0240     		ands	r2, r0
  90 003e 1A60     		str	r2, [r3]
 190:Src/system_stm32f0xx.c **** 
 191:Src/system_stm32f0xx.c ****   /* Reset HSEBYP bit */
 192:Src/system_stm32f0xx.c ****   RCC->CR &= (uint32_t)0xFFFBFFFFU;
  91              		.loc 1 192 0
  92 0040 1A68     		ldr	r2, [r3]
  93 0042 1448     		ldr	r0, .L4+36
  94 0044 0240     		ands	r2, r0
  95 0046 1A60     		str	r2, [r3]
 193:Src/system_stm32f0xx.c **** 
 194:Src/system_stm32f0xx.c ****   /* Reset PLLSRC, PLLXTPRE and PLLMUL[3:0] bits */
 195:Src/system_stm32f0xx.c ****   RCC->CFGR &= (uint32_t)0xFFC0FFFFU;
  96              		.loc 1 195 0
  97 0048 5A68     		ldr	r2, [r3, #4]
  98 004a 1348     		ldr	r0, .L4+40
  99 004c 0240     		ands	r2, r0
 100 004e 5A60     		str	r2, [r3, #4]
 196:Src/system_stm32f0xx.c **** 
 197:Src/system_stm32f0xx.c ****   /* Reset PREDIV[3:0] bits */
 198:Src/system_stm32f0xx.c ****   RCC->CFGR2 &= (uint32_t)0xFFFFFFF0U;
 101              		.loc 1 198 0
 102 0050 DA6A     		ldr	r2, [r3, #44]
 103 0052 0F20     		movs	r0, #15
 104 0054 8243     		bics	r2, r0
 105 0056 DA62     		str	r2, [r3, #44]
 199:Src/system_stm32f0xx.c **** 
 200:Src/system_stm32f0xx.c **** #if defined (STM32F072xB) || defined (STM32F078xx)
 201:Src/system_stm32f0xx.c ****   /* Reset USART2SW[1:0], USART1SW[1:0], I2C1SW, CECSW, USBSW and ADCSW bits */
 202:Src/system_stm32f0xx.c ****   RCC->CFGR3 &= (uint32_t)0xFFFCFE2CU;
 106              		.loc 1 202 0
 107 0058 1A6B     		ldr	r2, [r3, #48]
 108 005a 1048     		ldr	r0, .L4+44
 109 005c 0240     		ands	r2, r0
 110 005e 1A63     		str	r2, [r3, #48]
 203:Src/system_stm32f0xx.c **** #elif defined (STM32F071xB)
 204:Src/system_stm32f0xx.c ****   /* Reset USART2SW[1:0], USART1SW[1:0], I2C1SW, CECSW and ADCSW bits */
 205:Src/system_stm32f0xx.c ****   RCC->CFGR3 &= (uint32_t)0xFFFFCEACU;
 206:Src/system_stm32f0xx.c **** #elif defined (STM32F091xC) || defined (STM32F098xx)
 207:Src/system_stm32f0xx.c ****   /* Reset USART3SW[1:0], USART2SW[1:0], USART1SW[1:0], I2C1SW, CECSW and ADCSW bits */
 208:Src/system_stm32f0xx.c ****   RCC->CFGR3 &= (uint32_t)0xFFF0FEACU;
 209:Src/system_stm32f0xx.c **** #elif defined (STM32F030x6) || defined (STM32F030x8) || defined (STM32F031x6) || defined (STM32F038
 210:Src/system_stm32f0xx.c ****   /* Reset USART1SW[1:0], I2C1SW and ADCSW bits */
 211:Src/system_stm32f0xx.c ****   RCC->CFGR3 &= (uint32_t)0xFFFFFEECU;
 212:Src/system_stm32f0xx.c **** #elif defined (STM32F051x8) || defined (STM32F058xx)
 213:Src/system_stm32f0xx.c ****   /* Reset USART1SW[1:0], I2C1SW, CECSW and ADCSW bits */
 214:Src/system_stm32f0xx.c ****   RCC->CFGR3 &= (uint32_t)0xFFFFFEACU;
ARM GAS  /tmp/ccGvLyNw.s 			page 10


 215:Src/system_stm32f0xx.c **** #elif defined (STM32F042x6) || defined (STM32F048xx)
 216:Src/system_stm32f0xx.c ****   /* Reset USART1SW[1:0], I2C1SW, CECSW, USBSW and ADCSW bits */
 217:Src/system_stm32f0xx.c ****   RCC->CFGR3 &= (uint32_t)0xFFFFFE2CU;
 218:Src/system_stm32f0xx.c **** #elif defined (STM32F070x6) || defined (STM32F070xB)
 219:Src/system_stm32f0xx.c ****   /* Reset USART1SW[1:0], I2C1SW, USBSW and ADCSW bits */
 220:Src/system_stm32f0xx.c ****   RCC->CFGR3 &= (uint32_t)0xFFFFFE6CU;
 221:Src/system_stm32f0xx.c ****   /* Set default USB clock to PLLCLK, since there is no HSI48 */
 222:Src/system_stm32f0xx.c ****   RCC->CFGR3 |= (uint32_t)0x00000080U;
 223:Src/system_stm32f0xx.c **** #else
 224:Src/system_stm32f0xx.c ****  #warning "No target selected"
 225:Src/system_stm32f0xx.c **** #endif
 226:Src/system_stm32f0xx.c **** 
 227:Src/system_stm32f0xx.c ****   /* Reset HSI14 bit */
 228:Src/system_stm32f0xx.c ****   RCC->CR2 &= (uint32_t)0xFFFFFFFEU;
 111              		.loc 1 228 0
 112 0060 5A6B     		ldr	r2, [r3, #52]
 113 0062 8A43     		bics	r2, r1
 114 0064 5A63     		str	r2, [r3, #52]
 229:Src/system_stm32f0xx.c **** 
 230:Src/system_stm32f0xx.c ****   /* Disable all interrupts */
 231:Src/system_stm32f0xx.c ****   RCC->CIR = 0x00000000U;
 115              		.loc 1 231 0
 116 0066 0022     		movs	r2, #0
 117 0068 9A60     		str	r2, [r3, #8]
 232:Src/system_stm32f0xx.c **** 
 233:Src/system_stm32f0xx.c **** }
 118              		.loc 1 233 0
 119 006a BD46     		mov	sp, r7
 120              		@ sp needed
 121 006c 80BD     		pop	{r7, pc}
 122              	.L5:
 123 006e C046     		.align	2
 124              	.L4:
 125 0070 F03F0020 		.word	536887280
 126 0074 EFBEADDE 		.word	-559038737
 127 0078 EDFEFECA 		.word	-889258259
 128 007c 50220020 		.word	536879696
 129 0080 04C8FF1F 		.word	536856580
 130 0084 00000000 		.word	SysMemBootJump
 131 0088 00100240 		.word	1073876992
 132 008c 0CB8FF08 		.word	150976524
 133 0090 FFFFF6FE 		.word	-17367041
 134 0094 FFFFFBFF 		.word	-262145
 135 0098 FFFFC0FF 		.word	-4128769
 136 009c 2CFEFCFF 		.word	-197076
 137              		.cfi_endproc
 138              	.LFE37:
 140              		.global	__aeabi_uidiv
 141              		.section	.text.SystemCoreClockUpdate,"ax",%progbits
 142              		.align	1
 143              		.global	SystemCoreClockUpdate
 144              		.syntax unified
 145              		.code	16
 146              		.thumb_func
 147              		.fpu softvfp
 149              	SystemCoreClockUpdate:
 150              	.LFB38:
ARM GAS  /tmp/ccGvLyNw.s 			page 11


 234:Src/system_stm32f0xx.c **** 
 235:Src/system_stm32f0xx.c **** /**
 236:Src/system_stm32f0xx.c ****    * @brief  Update SystemCoreClock variable according to Clock Register Values.
 237:Src/system_stm32f0xx.c ****   *         The SystemCoreClock variable contains the core clock (HCLK), it can
 238:Src/system_stm32f0xx.c ****   *         be used by the user application to setup the SysTick timer or configure
 239:Src/system_stm32f0xx.c ****   *         other parameters.
 240:Src/system_stm32f0xx.c ****   *
 241:Src/system_stm32f0xx.c ****   * @note   Each time the core clock (HCLK) changes, this function must be called
 242:Src/system_stm32f0xx.c ****   *         to update SystemCoreClock variable value. Otherwise, any configuration
 243:Src/system_stm32f0xx.c ****   *         based on this variable will be incorrect.
 244:Src/system_stm32f0xx.c ****   *
 245:Src/system_stm32f0xx.c ****   * @note   - The system frequency computed by this function is not the real
 246:Src/system_stm32f0xx.c ****   *           frequency in the chip. It is calculated based on the predefined
 247:Src/system_stm32f0xx.c ****   *           constant and the selected clock source:
 248:Src/system_stm32f0xx.c ****   *
 249:Src/system_stm32f0xx.c ****   *           - If SYSCLK source is HSI, SystemCoreClock will contain the HSI_VALUE(*)
 250:Src/system_stm32f0xx.c ****   *
 251:Src/system_stm32f0xx.c ****   *           - If SYSCLK source is HSE, SystemCoreClock will contain the HSE_VALUE(**)
 252:Src/system_stm32f0xx.c ****   *
 253:Src/system_stm32f0xx.c ****   *           - If SYSCLK source is PLL, SystemCoreClock will contain the HSE_VALUE(**)
 254:Src/system_stm32f0xx.c ****   *             or HSI_VALUE(*) multiplied/divided by the PLL factors.
 255:Src/system_stm32f0xx.c ****   *
 256:Src/system_stm32f0xx.c ****   *         (*) HSI_VALUE is a constant defined in stm32f0xx_hal.h file (default value
 257:Src/system_stm32f0xx.c ****   *             8 MHz) but the real value may vary depending on the variations
 258:Src/system_stm32f0xx.c ****   *             in voltage and temperature.
 259:Src/system_stm32f0xx.c ****   *
 260:Src/system_stm32f0xx.c ****   *         (**) HSE_VALUE is a constant defined in stm32f0xx_hal.h file (default value
 261:Src/system_stm32f0xx.c ****   *              8 MHz), user has to ensure that HSE_VALUE is same as the real
 262:Src/system_stm32f0xx.c ****   *              frequency of the crystal used. Otherwise, this function may
 263:Src/system_stm32f0xx.c ****   *              have wrong result.
 264:Src/system_stm32f0xx.c ****   *
 265:Src/system_stm32f0xx.c ****   *         - The result of this function could be not correct when using fractional
 266:Src/system_stm32f0xx.c ****   *           value for HSE crystal.
 267:Src/system_stm32f0xx.c ****   *
 268:Src/system_stm32f0xx.c ****   * @param  None
 269:Src/system_stm32f0xx.c ****   * @retval None
 270:Src/system_stm32f0xx.c ****   */
 271:Src/system_stm32f0xx.c **** void SystemCoreClockUpdate (void)
 272:Src/system_stm32f0xx.c **** {
 151              		.loc 1 272 0
 152              		.cfi_startproc
 153              		@ args = 0, pretend = 0, frame = 0
 154              		@ frame_needed = 0, uses_anonymous_args = 0
 155 0000 10B5     		push	{r4, lr}
 156              	.LCFI2:
 157              		.cfi_def_cfa_offset 8
 158              		.cfi_offset 4, -8
 159              		.cfi_offset 14, -4
 160              	.LVL3:
 273:Src/system_stm32f0xx.c ****   uint32_t tmp = 0, pllmull = 0, pllsource = 0, predivfactor = 0;
 274:Src/system_stm32f0xx.c **** 
 275:Src/system_stm32f0xx.c ****   /* Get SYSCLK source -------------------------------------------------------*/
 276:Src/system_stm32f0xx.c ****   tmp = RCC->CFGR & RCC_CFGR_SWS;
 161              		.loc 1 276 0
 162 0002 254B     		ldr	r3, .L18
 163 0004 5A68     		ldr	r2, [r3, #4]
 164 0006 0C23     		movs	r3, #12
ARM GAS  /tmp/ccGvLyNw.s 			page 12


 165 0008 1340     		ands	r3, r2
 166              	.LVL4:
 277:Src/system_stm32f0xx.c **** 
 278:Src/system_stm32f0xx.c ****   switch (tmp)
 167              		.loc 1 278 0
 168 000a 042B     		cmp	r3, #4
 169 000c 16D0     		beq	.L8
 170 000e 082B     		cmp	r3, #8
 171 0010 18D0     		beq	.L9
 172 0012 002B     		cmp	r3, #0
 173 0014 03D0     		beq	.L15
 279:Src/system_stm32f0xx.c ****   {
 280:Src/system_stm32f0xx.c ****     case RCC_CFGR_SWS_HSI:  /* HSI used as system clock */
 281:Src/system_stm32f0xx.c ****       SystemCoreClock = HSI_VALUE;
 282:Src/system_stm32f0xx.c ****       break;
 283:Src/system_stm32f0xx.c ****     case RCC_CFGR_SWS_HSE:  /* HSE used as system clock */
 284:Src/system_stm32f0xx.c ****       SystemCoreClock = HSE_VALUE;
 285:Src/system_stm32f0xx.c ****       break;
 286:Src/system_stm32f0xx.c ****     case RCC_CFGR_SWS_PLL:  /* PLL used as system clock */
 287:Src/system_stm32f0xx.c ****       /* Get PLL clock source and multiplication factor ----------------------*/
 288:Src/system_stm32f0xx.c ****       pllmull = RCC->CFGR & RCC_CFGR_PLLMUL;
 289:Src/system_stm32f0xx.c ****       pllsource = RCC->CFGR & RCC_CFGR_PLLSRC;
 290:Src/system_stm32f0xx.c ****       pllmull = ( pllmull >> 18) + 2;
 291:Src/system_stm32f0xx.c ****       predivfactor = (RCC->CFGR2 & RCC_CFGR2_PREDIV) + 1;
 292:Src/system_stm32f0xx.c **** 
 293:Src/system_stm32f0xx.c ****       if (pllsource == RCC_CFGR_PLLSRC_HSE_PREDIV)
 294:Src/system_stm32f0xx.c ****       {
 295:Src/system_stm32f0xx.c ****         /* HSE used as PLL clock source : SystemCoreClock = HSE/PREDIV * PLLMUL */
 296:Src/system_stm32f0xx.c ****         SystemCoreClock = (HSE_VALUE/predivfactor) * pllmull;
 297:Src/system_stm32f0xx.c ****       }
 298:Src/system_stm32f0xx.c **** #if defined(STM32F042x6) || defined(STM32F048xx) || defined(STM32F072xB) || defined(STM32F078xx) ||
 299:Src/system_stm32f0xx.c ****       else if (pllsource == RCC_CFGR_PLLSRC_HSI48_PREDIV)
 300:Src/system_stm32f0xx.c ****       {
 301:Src/system_stm32f0xx.c ****         /* HSI48 used as PLL clock source : SystemCoreClock = HSI48/PREDIV * PLLMUL */
 302:Src/system_stm32f0xx.c ****         SystemCoreClock = (HSI48_VALUE/predivfactor) * pllmull;
 303:Src/system_stm32f0xx.c ****       }
 304:Src/system_stm32f0xx.c **** #endif /* STM32F042x6 || STM32F048xx || STM32F072xB || STM32F078xx || STM32F091xC || STM32F098xx */
 305:Src/system_stm32f0xx.c ****       else
 306:Src/system_stm32f0xx.c ****       {
 307:Src/system_stm32f0xx.c **** #if defined(STM32F042x6) || defined(STM32F048xx)  || defined(STM32F070x6) \
 308:Src/system_stm32f0xx.c ****  || defined(STM32F078xx) || defined(STM32F071xB)  || defined(STM32F072xB) \
 309:Src/system_stm32f0xx.c ****  || defined(STM32F070xB) || defined(STM32F091xC) || defined(STM32F098xx)  || defined(STM32F030xC)
 310:Src/system_stm32f0xx.c ****         /* HSI used as PLL clock source : SystemCoreClock = HSI/PREDIV * PLLMUL */
 311:Src/system_stm32f0xx.c ****         SystemCoreClock = (HSI_VALUE/predivfactor) * pllmull;
 312:Src/system_stm32f0xx.c **** #else
 313:Src/system_stm32f0xx.c ****         /* HSI used as PLL clock source : SystemCoreClock = HSI/2 * PLLMUL */
 314:Src/system_stm32f0xx.c ****         SystemCoreClock = (HSI_VALUE >> 1) * pllmull;
 315:Src/system_stm32f0xx.c **** #endif /* STM32F042x6 || STM32F048xx || STM32F070x6 ||
 316:Src/system_stm32f0xx.c ****           STM32F071xB || STM32F072xB || STM32F078xx || STM32F070xB ||
 317:Src/system_stm32f0xx.c ****           STM32F091xC || STM32F098xx || STM32F030xC */
 318:Src/system_stm32f0xx.c ****       }
 319:Src/system_stm32f0xx.c ****       break;
 320:Src/system_stm32f0xx.c ****     default: /* HSI used as system clock */
 321:Src/system_stm32f0xx.c ****       SystemCoreClock = HSI_VALUE;
 174              		.loc 1 321 0
 175 0016 214B     		ldr	r3, .L18+4
 176              	.LVL5:
ARM GAS  /tmp/ccGvLyNw.s 			page 13


 177 0018 214A     		ldr	r2, .L18+8
 178              	.LVL6:
 179 001a 1A60     		str	r2, [r3]
 322:Src/system_stm32f0xx.c ****       break;
 180              		.loc 1 322 0
 181 001c 02E0     		b	.L11
 182              	.LVL7:
 183              	.L15:
 281:Src/system_stm32f0xx.c ****       break;
 184              		.loc 1 281 0
 185 001e 1F4B     		ldr	r3, .L18+4
 186              	.LVL8:
 187 0020 1F4A     		ldr	r2, .L18+8
 188              	.LVL9:
 189 0022 1A60     		str	r2, [r3]
 190              	.LVL10:
 191              	.L11:
 323:Src/system_stm32f0xx.c ****   }
 324:Src/system_stm32f0xx.c ****   /* Compute HCLK clock frequency ----------------*/
 325:Src/system_stm32f0xx.c ****   /* Get HCLK prescaler */
 326:Src/system_stm32f0xx.c ****   tmp = AHBPrescTable[((RCC->CFGR & RCC_CFGR_HPRE) >> 4)];
 192              		.loc 1 326 0
 193 0024 1C4B     		ldr	r3, .L18
 194 0026 5A68     		ldr	r2, [r3, #4]
 195 0028 1209     		lsrs	r2, r2, #4
 196 002a 0F23     		movs	r3, #15
 197 002c 1340     		ands	r3, r2
 198 002e 1D4A     		ldr	r2, .L18+12
 199 0030 D35C     		ldrb	r3, [r2, r3]
 200              	.LVL11:
 327:Src/system_stm32f0xx.c ****   /* HCLK clock frequency */
 328:Src/system_stm32f0xx.c ****   SystemCoreClock >>= tmp;
 201              		.loc 1 328 0
 202 0032 1A4A     		ldr	r2, .L18+4
 203 0034 1168     		ldr	r1, [r2]
 204 0036 D940     		lsrs	r1, r1, r3
 205 0038 1160     		str	r1, [r2]
 329:Src/system_stm32f0xx.c **** }
 206              		.loc 1 329 0
 207              		@ sp needed
 208 003a 10BD     		pop	{r4, pc}
 209              	.LVL12:
 210              	.L8:
 284:Src/system_stm32f0xx.c ****       break;
 211              		.loc 1 284 0
 212 003c 174B     		ldr	r3, .L18+4
 213              	.LVL13:
 214 003e 184A     		ldr	r2, .L18+8
 215              	.LVL14:
 216 0040 1A60     		str	r2, [r3]
 285:Src/system_stm32f0xx.c ****     case RCC_CFGR_SWS_PLL:  /* PLL used as system clock */
 217              		.loc 1 285 0
 218 0042 EFE7     		b	.L11
 219              	.LVL15:
 220              	.L9:
 288:Src/system_stm32f0xx.c ****       pllsource = RCC->CFGR & RCC_CFGR_PLLSRC;
 221              		.loc 1 288 0
ARM GAS  /tmp/ccGvLyNw.s 			page 14


 222 0044 144A     		ldr	r2, .L18
 223 0046 5068     		ldr	r0, [r2, #4]
 224              	.LVL16:
 289:Src/system_stm32f0xx.c ****       pllmull = ( pllmull >> 18) + 2;
 225              		.loc 1 289 0
 226 0048 5368     		ldr	r3, [r2, #4]
 227              	.LVL17:
 228 004a C021     		movs	r1, #192
 229 004c 4902     		lsls	r1, r1, #9
 230 004e 0B40     		ands	r3, r1
 231              	.LVL18:
 290:Src/system_stm32f0xx.c ****       predivfactor = (RCC->CFGR2 & RCC_CFGR2_PREDIV) + 1;
 232              		.loc 1 290 0
 233 0050 800C     		lsrs	r0, r0, #18
 234              	.LVL19:
 235 0052 0F21     		movs	r1, #15
 236 0054 0840     		ands	r0, r1
 237 0056 841C     		adds	r4, r0, #2
 238              	.LVL20:
 291:Src/system_stm32f0xx.c **** 
 239              		.loc 1 291 0
 240 0058 D26A     		ldr	r2, [r2, #44]
 241 005a 1140     		ands	r1, r2
 242 005c 0131     		adds	r1, r1, #1
 243              	.LVL21:
 293:Src/system_stm32f0xx.c ****       {
 244              		.loc 1 293 0
 245 005e 8022     		movs	r2, #128
 246 0060 5202     		lsls	r2, r2, #9
 247 0062 9342     		cmp	r3, r2
 248 0064 0AD0     		beq	.L16
 299:Src/system_stm32f0xx.c ****       {
 249              		.loc 1 299 0
 250 0066 C022     		movs	r2, #192
 251 0068 5202     		lsls	r2, r2, #9
 252 006a 9342     		cmp	r3, r2
 253 006c 0DD0     		beq	.L17
 311:Src/system_stm32f0xx.c **** #else
 254              		.loc 1 311 0
 255 006e 0C48     		ldr	r0, .L18+8
 256 0070 FFF7FEFF 		bl	__aeabi_uidiv
 257              	.LVL22:
 258 0074 6043     		muls	r0, r4
 259 0076 094B     		ldr	r3, .L18+4
 260 0078 1860     		str	r0, [r3]
 261 007a D3E7     		b	.L11
 262              	.LVL23:
 263              	.L16:
 296:Src/system_stm32f0xx.c ****       }
 264              		.loc 1 296 0
 265 007c 0848     		ldr	r0, .L18+8
 266 007e FFF7FEFF 		bl	__aeabi_uidiv
 267              	.LVL24:
 268 0082 6043     		muls	r0, r4
 269 0084 054B     		ldr	r3, .L18+4
 270 0086 1860     		str	r0, [r3]
 271 0088 CCE7     		b	.L11
ARM GAS  /tmp/ccGvLyNw.s 			page 15


 272              	.LVL25:
 273              	.L17:
 302:Src/system_stm32f0xx.c ****       }
 274              		.loc 1 302 0
 275 008a 0748     		ldr	r0, .L18+16
 276 008c FFF7FEFF 		bl	__aeabi_uidiv
 277              	.LVL26:
 278 0090 6043     		muls	r0, r4
 279 0092 024B     		ldr	r3, .L18+4
 280 0094 1860     		str	r0, [r3]
 281 0096 C5E7     		b	.L11
 282              	.L19:
 283              		.align	2
 284              	.L18:
 285 0098 00100240 		.word	1073876992
 286 009c 00000000 		.word	.LANCHOR0
 287 00a0 00127A00 		.word	8000000
 288 00a4 00000000 		.word	.LANCHOR1
 289 00a8 006CDC02 		.word	48000000
 290              		.cfi_endproc
 291              	.LFE38:
 293              		.comm	SysMemBootJump,4,4
 294              		.global	APBPrescTable
 295              		.global	AHBPrescTable
 296              		.global	SystemCoreClock
 297              		.section	.data.SystemCoreClock,"aw",%progbits
 298              		.align	2
 299              		.set	.LANCHOR0,. + 0
 302              	SystemCoreClock:
 303 0000 00127A00 		.word	8000000
 304              		.section	.rodata.AHBPrescTable,"a",%progbits
 305              		.align	2
 306              		.set	.LANCHOR1,. + 0
 309              	AHBPrescTable:
 310 0000 00       		.byte	0
 311 0001 00       		.byte	0
 312 0002 00       		.byte	0
 313 0003 00       		.byte	0
 314 0004 00       		.byte	0
 315 0005 00       		.byte	0
 316 0006 00       		.byte	0
 317 0007 00       		.byte	0
 318 0008 01       		.byte	1
 319 0009 02       		.byte	2
 320 000a 03       		.byte	3
 321 000b 04       		.byte	4
 322 000c 06       		.byte	6
 323 000d 07       		.byte	7
 324 000e 08       		.byte	8
 325 000f 09       		.byte	9
 326              		.section	.rodata.APBPrescTable,"a",%progbits
 327              		.align	2
 330              	APBPrescTable:
 331 0000 00       		.byte	0
 332 0001 00       		.byte	0
 333 0002 00       		.byte	0
 334 0003 00       		.byte	0
ARM GAS  /tmp/ccGvLyNw.s 			page 16


 335 0004 01       		.byte	1
 336 0005 02       		.byte	2
 337 0006 03       		.byte	3
 338 0007 04       		.byte	4
 339              		.text
 340              	.Letext0:
 341              		.file 3 "/home/janhenrik/programme/gcc-arm-none-eabi-7-2018-q2-update/arm-none-eabi/include/machin
 342              		.file 4 "/home/janhenrik/programme/gcc-arm-none-eabi-7-2018-q2-update/arm-none-eabi/include/sys/_s
 343              		.file 5 "Drivers/CMSIS/Device/ST/STM32F0xx/Include/system_stm32f0xx.h"
 344              		.file 6 "Drivers/CMSIS/Device/ST/STM32F0xx/Include/stm32f072xb.h"
 345              		.file 7 "/home/janhenrik/programme/gcc-arm-none-eabi-7-2018-q2-update/arm-none-eabi/include/sys/lo
 346              		.file 8 "/home/janhenrik/programme/gcc-arm-none-eabi-7-2018-q2-update/arm-none-eabi/include/sys/_t
 347              		.file 9 "/home/janhenrik/programme/gcc-arm-none-eabi-7-2018-q2-update/lib/gcc/arm-none-eabi/7.3.1/
 348              		.file 10 "/home/janhenrik/programme/gcc-arm-none-eabi-7-2018-q2-update/arm-none-eabi/include/sys/r
ARM GAS  /tmp/ccGvLyNw.s 			page 17

